 CourseworkBase2020

 Timestamp is 62339a5e (Thu Mar 17 20:30:22 2022)

 Preferred load address is 00400000

 Start         Length     Name                   Class
 0001:00000000 00026a90H .text$mn                CODE
 0001:00026a90 000026fbH .text$x                 CODE
 0002:00000000 00000104H .CRT$XCA                DATA
 0002:00000104 00000104H .CRT$XCAA               DATA
 0002:00000208 00000104H .CRT$XCZ                DATA
 0002:0000030c 00000104H .CRT$XIA                DATA
 0002:00000410 00000104H .CRT$XIAA               DATA
 0002:00000514 00000104H .CRT$XIAC               DATA
 0002:00000618 00000104H .CRT$XIZ                DATA
 0002:0000071c 00000104H .CRT$XPA                DATA
 0002:00000820 00000104H .CRT$XPZ                DATA
 0002:00000924 00000104H .CRT$XTA                DATA
 0002:00000a28 00000108H .CRT$XTZ                DATA
 0002:00000b30 0000b1d0H .rdata                  DATA
 0002:0000bd00 00000104H .rdata$CastGuardVftablesA DATA
 0002:0000be04 00000104H .rdata$CastGuardVftablesC DATA
 0002:0000bf08 00000ee0H .rdata$r                DATA
 0002:0000cde8 00000280H .rdata$sxdata           DATA
 0002:0000d068 00000194H .rdata$zzzdbg           DATA
 0002:0000d1fc 00000104H .rtc$IAA                DATA
 0002:0000d300 00000104H .rtc$IZZ                DATA
 0002:0000d404 00000104H .rtc$TAA                DATA
 0002:0000d508 00000108H .rtc$TZZ                DATA
 0002:0000d610 00001598H .xdata$x                DATA
 0002:0000eba8 00000000H .edata                  DATA
 0003:00000000 00000130H .data                   DATA
 0003:00000130 00000178H .data$r                 DATA
 0003:000002a8 000005f0H .data$rs                DATA
 0003:00000898 00000448H .bss                    DATA
 0004:00000000 00000388H .idata$5                DATA
 0004:00000388 0000008cH .idata$2                DATA
 0004:00000414 00000014H .idata$3                DATA
 0004:00000428 00000388H .idata$4                DATA
 0004:000007b0 00000e8fH .idata$6                DATA
 0005:00000000 00000109H .00cfg                  DATA
 0006:00000000 00000170H .rsrc$01                DATA
 0006:00000170 000002ccH .rsrc$02                DATA

  Address         Publics by Value              Rva+Base       Lib:Object

 0000:00000000       ___arm64x_native_entrypoint 00000000     <absolute>
 0000:00000000       ___guard_fids_table        00000000     <absolute>
 0000:00000000       ___dynamic_value_reloc_table 00000000     <absolute>
 0000:00000000       ___hybrid_code_map         00000000     <absolute>
 0000:00000000       ___guard_longjmp_count     00000000     <absolute>
 0000:00000000       ___hybrid_auxiliary_iat    00000000     <absolute>
 0000:00000000       ___guard_eh_cont_table     00000000     <absolute>
 0000:00000000       ___hybrid_auxiliary_iat_copy 00000000     <absolute>
 0000:00000000       ___enclave_config          00000000     <absolute>
 0000:00000000       ___arm64x_extra_rfe_table  00000000     <absolute>
 0000:00000000       ___guard_longjmp_table     00000000     <absolute>
 0000:00000000       ___hybrid_code_map_count   00000000     <absolute>
 0000:00000000       ___guard_iat_count         00000000     <absolute>
 0000:00000000       ___volatile_metadata       00000000     <absolute>
 0000:00000000       ___arm64x_redirection_metadata_count 00000000     <absolute>
 0000:00000000       ___guard_eh_cont_count     00000000     <absolute>
 0000:00000000       ___guard_fids_count        00000000     <absolute>
 0000:00000000       ___arm64x_extra_rfe_table_size 00000000     <absolute>
 0000:00000000       ___x64_code_ranges_to_entry_points 00000000     <absolute>
 0000:00000000       ___arm64x_redirection_metadata 00000000     <absolute>
 0000:00000000       ___AbsoluteZero            00000000     <absolute>
 0000:00000000       ___guard_check_icall_a64n_fptr 00000000     <absolute>
 0000:00000000       ___x64_code_ranges_to_entry_points_count 00000000     <absolute>
 0000:00000000       ___guard_iat_table         00000000     <absolute>
 0000:00000052       ___safe_se_handler_count   00000052     <absolute>
 0000:00000100       ___guard_flags             00000100     <absolute>
 0000:00000000       ___ImageBase               00400000     <linker-defined>
 0001:00002a10       ?virtSetupBackgroundBuffer@DraggingDemo@@UAEXXZ 00403a10 f   DraggingDemo.obj
 0001:00002b50       ?virtInitialiseObjects@DraggingDemo@@UAEHXZ 00403b50 f   DraggingDemo.obj
 0001:00002da0       ?virtKeyDown@DraggingDemo@@UAEXH@Z 00403da0 f   DraggingDemo.obj
 0001:00002dc7       ___RTDynamicCast           00403dc7 f   vcruntimed:VCRUNTIME140D.dll
 0001:00002dd0       ??0MyTextBar@@QAE@PAVBaseEngine@@@Z 00403dd0 f i Psyjl16Engine.obj
 0001:00002e70       ?lockAndSetupBackground@BaseEngine@@QAEXXZ 00403e70 f i Psyjl16Engine.obj
 0001:00002ea0       __vsprintf_l               00403ea0 f i Psyjl16Engine.obj
 0001:00002ec0       ??$?0$$V@?$_Compressed_pair@V?$allocator@D@std@@V?$_String_val@U?$_Simple_types@D@std@@@2@$00@std@@QAE@U_Zero_then_variadic_args_t@1@@Z 00403ec0 f i DraggingDemo.obj
 0001:00002ef0       ??$?0$$V@?$_Compressed_pair@V?$allocator@U?$_Tree_node@U?$pair@$$CBV?$basic_string@DU?$char_traits@D@std@@V?$allocator@D@2@@std@@V?$shared_ptr@VRawImageData@@@2@@std@@PAX@std@@@std@@V?$_Tree_val@U?$_Tree_simple_types@U?$pair@$$CBV?$basic_string@DU?$char_traits@D@std@@V?$allocator@D@2@@std@@V?$shared_ptr@VRawImageData@@@2@@std@@@std@@@2@$00@std@@QAE@U_Zero_then_variadic_args_t@1@@Z 00403ef0 f i DraggingDemo.obj
 0001:00002f20       ??$?0$$V@?$_Compressed_pair@V?$allocator@U?$_Tree_node@U?$pair@$$CBV?$basic_string@DU?$char_traits@D@std@@V?$allocator@D@2@@std@@V?$weak_ptr@VRawImageData@@@2@@std@@PAX@std@@@std@@V?$_Tree_val@U?$_Tree_simple_types@U?$pair@$$CBV?$basic_string@DU?$char_traits@D@std@@V?$allocator@D@2@@std@@V?$weak_ptr@VRawImageData@@@2@@std@@@std@@@2@$00@std@@QAE@U_Zero_then_variadic_args_t@1@@Z 00403f20 f i DraggingDemo.obj
 0001:00002f50       ??$?0AAPAU?$_Tree_node@U?$pair@$$CBV?$basic_string@DU?$char_traits@D@std@@V?$allocator@D@2@@std@@V?$shared_ptr@VRawImageData@@@2@@std@@PAX@std@@_N$0A@@?$pair@PAU?$_Tree_node@U?$pair@$$CBV?$basic_string@DU?$char_traits@D@std@@V?$allocator@D@2@@std@@V?$shared_ptr@VRawImageData@@@2@@std@@PAX@std@@_N@std@@QAE@AAPAU?$_Tree_node@U?$pair@$$CBV?$basic_string@DU?$char_traits@D@std@@V?$allocator@D@2@@std@@V?$shared_ptr@VRawImageData@@@2@@std@@PAX@1@$$QA_N@Z 00403f50 f i DraggingDemo.obj
 0001:00002fa0       ??$?0AAPAU?$_Tree_node@U?$pair@$$CBV?$basic_string@DU?$char_traits@D@std@@V?$allocator@D@2@@std@@V?$weak_ptr@VRawImageData@@@2@@std@@PAX@std@@_N$0A@@?$pair@PAU?$_Tree_node@U?$pair@$$CBV?$basic_string@DU?$char_traits@D@std@@V?$allocator@D@2@@std@@V?$weak_ptr@VRawImageData@@@2@@std@@PAX@std@@_N@std@@QAE@AAPAU?$_Tree_node@U?$pair@$$CBV?$basic_string@DU?$char_traits@D@std@@V?$allocator@D@2@@std@@V?$weak_ptr@VRawImageData@@@2@@std@@PAX@1@$$QA_N@Z 00403fa0 f i DraggingDemo.obj
 0001:00002ff0       ??$?0AAV?$basic_string@DU?$char_traits@D@std@@V?$allocator@D@2@@std@@AAV?$shared_ptr@VRawImageData@@@1@$0A@@?$pair@V?$basic_string@DU?$char_traits@D@std@@V?$allocator@D@2@@std@@V?$shared_ptr@VRawImageData@@@2@@std@@QAE@AAV?$basic_string@DU?$char_traits@D@std@@V?$allocator@D@2@@1@AAV?$shared_ptr@VRawImageData@@@1@@Z 00403ff0 f i DraggingDemo.obj
 0001:00003040       ??$?0AAV?$basic_string@DU?$char_traits@D@std@@V?$allocator@D@2@@std@@AAV?$weak_ptr@VRawImageData@@@1@$0A@@?$pair@V?$basic_string@DU?$char_traits@D@std@@V?$allocator@D@2@@std@@V?$weak_ptr@VRawImageData@@@2@@std@@QAE@AAV?$basic_string@DU?$char_traits@D@std@@V?$allocator@D@2@@1@AAV?$weak_ptr@VRawImageData@@@1@@Z 00404040 f i DraggingDemo.obj
 0001:00003090       ??$?0ABU?$less@V?$basic_string@DU?$char_traits@D@std@@V?$allocator@D@2@@std@@@std@@U_Zero_then_variadic_args_t@1@@?$_Compressed_pair@U?$less@V?$basic_string@DU?$char_traits@D@std@@V?$allocator@D@2@@std@@@std@@V?$_Compressed_pair@V?$allocator@U?$_Tree_node@U?$pair@$$CBV?$basic_string@DU?$char_traits@D@std@@V?$allocator@D@2@@std@@V?$shared_ptr@VRawImageData@@@2@@std@@PAX@std@@@std@@V?$_Tree_val@U?$_Tree_simple_types@U?$pair@$$CBV?$basic_string@DU?$char_traits@D@std@@V?$allocator@D@2@@std@@V?$shared_ptr@VRawImageData@@@2@@std@@@std@@@2@$00@2@$00@std@@QAE@U_One_then_variadic_args_t@1@ABU?$less@V?$basic_string@DU?$char_traits@D@std@@V?$allocator@D@2@@std@@@1@$$QAU_Zero_then_variadic_args_t@1@@Z 00404090 f i DraggingDemo.obj
 0001:000030e0       ??$?0ABU?$less@V?$basic_string@DU?$char_traits@D@std@@V?$allocator@D@2@@std@@@std@@U_Zero_then_variadic_args_t@1@@?$_Compressed_pair@U?$less@V?$basic_string@DU?$char_traits@D@std@@V?$allocator@D@2@@std@@@std@@V?$_Compressed_pair@V?$allocator@U?$_Tree_node@U?$pair@$$CBV?$basic_string@DU?$char_traits@D@std@@V?$allocator@D@2@@std@@V?$weak_ptr@VRawImageData@@@2@@std@@PAX@std@@@std@@V?$_Tree_val@U?$_Tree_simple_types@U?$pair@$$CBV?$basic_string@DU?$char_traits@D@std@@V?$allocator@D@2@@std@@V?$weak_ptr@VRawImageData@@@2@@std@@@std@@@2@$00@2@$00@std@@QAE@U_One_then_variadic_args_t@1@ABU?$less@V?$basic_string@DU?$char_traits@D@std@@V?$allocator@D@2@@std@@@1@$$QAU_Zero_then_variadic_args_t@1@@Z 004040e0 f i DraggingDemo.obj
 0001:00003130       ??$?0D@?$allocator@U_Container_proxy@std@@@std@@QAE@ABV?$allocator@D@1@@Z 00404130 f i DraggingDemo.obj
 0001:00003150       ??$?0PAU?$_Tree_node@U?$pair@$$CBV?$basic_string@DU?$char_traits@D@std@@V?$allocator@D@2@@std@@V?$shared_ptr@VRawImageData@@@2@@std@@PAX@std@@_N$0A@@?$pair@PAU?$_Tree_node@U?$pair@$$CBV?$basic_string@DU?$char_traits@D@std@@V?$allocator@D@2@@std@@V?$shared_ptr@VRawImageData@@@2@@std@@PAX@std@@_N@std@@QAE@$$QAPAU?$_Tree_node@U?$pair@$$CBV?$basic_string@DU?$char_traits@D@std@@V?$allocator@D@2@@std@@V?$shared_ptr@VRawImageData@@@2@@std@@PAX@1@$$QA_N@Z 00404150 f i DraggingDemo.obj
 0001:000031a0       ??$?0PAU?$_Tree_node@U?$pair@$$CBV?$basic_string@DU?$char_traits@D@std@@V?$allocator@D@2@@std@@V?$weak_ptr@VRawImageData@@@2@@std@@PAX@std@@_N$0A@@?$pair@PAU?$_Tree_node@U?$pair@$$CBV?$basic_string@DU?$char_traits@D@std@@V?$allocator@D@2@@std@@V?$weak_ptr@VRawImageData@@@2@@std@@PAX@std@@_N@std@@QAE@$$QAPAU?$_Tree_node@U?$pair@$$CBV?$basic_string@DU?$char_traits@D@std@@V?$allocator@D@2@@std@@V?$weak_ptr@VRawImageData@@@2@@std@@PAX@1@$$QA_N@Z 004041a0 f i DraggingDemo.obj
 0001:000031f0       ??$?0U?$_Tree_node@U?$pair@$$CBV?$basic_string@DU?$char_traits@D@std@@V?$allocator@D@2@@std@@V?$shared_ptr@VRawImageData@@@2@@std@@PAX@std@@@?$allocator@U_Container_proxy@std@@@std@@QAE@ABV?$allocator@U?$_Tree_node@U?$pair@$$CBV?$basic_string@DU?$char_traits@D@std@@V?$allocator@D@2@@std@@V?$shared_ptr@VRawImageData@@@2@@std@@PAX@std@@@1@@Z 004041f0 f i DraggingDemo.obj
 0001:00003210       ??$?0U?$_Tree_node@U?$pair@$$CBV?$basic_string@DU?$char_traits@D@std@@V?$allocator@D@2@@std@@V?$weak_ptr@VRawImageData@@@2@@std@@PAX@std@@@?$allocator@U_Container_proxy@std@@@std@@QAE@ABV?$allocator@U?$_Tree_node@U?$pair@$$CBV?$basic_string@DU?$char_traits@D@std@@V?$allocator@D@2@@std@@V?$weak_ptr@VRawImageData@@@2@@std@@PAX@std@@@1@@Z 00404210 f i DraggingDemo.obj
 0001:00003230       ??$?0U?$pair@V?$basic_string@DU?$char_traits@D@std@@V?$allocator@D@2@@std@@V?$shared_ptr@VRawImageData@@@2@@std@@@?$_Tree_temp_node@V?$allocator@U?$_Tree_node@U?$pair@$$CBV?$basic_string@DU?$char_traits@D@std@@V?$allocator@D@2@@std@@V?$shared_ptr@VRawImageData@@@2@@std@@PAX@std@@@std@@@std@@QAE@AAV?$allocator@U?$_Tree_node@U?$pair@$$CBV?$basic_string@DU?$char_traits@D@std@@V?$allocator@D@2@@std@@V?$shared_ptr@VRawImageData@@@2@@std@@PAX@std@@@1@PAU?$_Tree_node@U?$pair@$$CBV?$basic_string@DU?$char_traits@D@std@@V?$allocator@D@2@@std@@V?$shared_ptr@VRawImageData@@@2@@std@@PAX@1@$$QAU?$pair@V?$basic_string@DU?$char_traits@D@std@@V?$allocator@D@2@@std@@V?$shared_ptr@VRawImageData@@@2@@1@@Z 00404230 f i DraggingDemo.obj
 0001:00003310       ?length@?$basic_string@DU?$char_traits@D@std@@V?$allocator@D@2@@std@@QBEIXZ 00404310 f i MyBasicButton.obj
 0001:00003340       ??$?0U?$pair@V?$basic_string@DU?$char_traits@D@std@@V?$allocator@D@2@@std@@V?$weak_ptr@VRawImageData@@@2@@std@@@?$_Tree_temp_node@V?$allocator@U?$_Tree_node@U?$pair@$$CBV?$basic_string@DU?$char_traits@D@std@@V?$allocator@D@2@@std@@V?$weak_ptr@VRawImageData@@@2@@std@@PAX@std@@@std@@@std@@QAE@AAV?$allocator@U?$_Tree_node@U?$pair@$$CBV?$basic_string@DU?$char_traits@D@std@@V?$allocator@D@2@@std@@V?$weak_ptr@VRawImageData@@@2@@std@@PAX@std@@@1@PAU?$_Tree_node@U?$pair@$$CBV?$basic_string@DU?$char_traits@D@std@@V?$allocator@D@2@@std@@V?$weak_ptr@VRawImageData@@@2@@std@@PAX@1@$$QAU?$pair@V?$basic_string@DU?$char_traits@D@std@@V?$allocator@D@2@@std@@V?$weak_ptr@VRawImageData@@@2@@1@@Z 00404340 f i DraggingDemo.obj
 0001:00003450       ??$?0V?$_Tree_iterator@V?$_Tree_val@U?$_Tree_simple_types@U?$pair@$$CBV?$basic_string@DU?$char_traits@D@std@@V?$allocator@D@2@@std@@V?$shared_ptr@VRawImageData@@@2@@std@@@std@@@std@@@std@@AB_N$0A@@?$pair@V?$_Tree_iterator@V?$_Tree_val@U?$_Tree_simple_types@U?$pair@$$CBV?$basic_string@DU?$char_traits@D@std@@V?$allocator@D@2@@std@@V?$shared_ptr@VRawImageData@@@2@@std@@@std@@@std@@@std@@_N@std@@QAE@$$QAV?$_Tree_iterator@V?$_Tree_val@U?$_Tree_simple_types@U?$pair@$$CBV?$basic_string@DU?$char_traits@D@std@@V?$allocator@D@2@@std@@V?$shared_ptr@VRawImageData@@@2@@std@@@std@@@std@@@1@AB_N@Z 00404450 f i DraggingDemo.obj
 0001:000034a0       ??$?0V?$_Tree_iterator@V?$_Tree_val@U?$_Tree_simple_types@U?$pair@$$CBV?$basic_string@DU?$char_traits@D@std@@V?$allocator@D@2@@std@@V?$weak_ptr@VRawImageData@@@2@@std@@@std@@@std@@@std@@AB_N$0A@@?$pair@V?$_Tree_iterator@V?$_Tree_val@U?$_Tree_simple_types@U?$pair@$$CBV?$basic_string@DU?$char_traits@D@std@@V?$allocator@D@2@@std@@V?$weak_ptr@VRawImageData@@@2@@std@@@std@@@std@@@std@@_N@std@@QAE@$$QAV?$_Tree_iterator@V?$_Tree_val@U?$_Tree_simple_types@U?$pair@$$CBV?$basic_string@DU?$char_traits@D@std@@V?$allocator@D@2@@std@@V?$weak_ptr@VRawImageData@@@2@@std@@@std@@@std@@@1@AB_N@Z 004044a0 f i DraggingDemo.obj
 0001:000034f0       ??$?0V?$allocator@D@std@@$$V@?$_Compressed_pair@V?$allocator@D@std@@V?$_String_val@U?$_Simple_types@D@std@@@2@$00@std@@QAE@U_One_then_variadic_args_t@1@$$QAV?$allocator@D@1@@Z 004044f0 f i DraggingDemo.obj
 0001:00003520       ??$?0V?$basic_string@DU?$char_traits@D@std@@V?$allocator@D@2@@std@@V?$shared_ptr@VRawImageData@@@1@$0A@@?$pair@$$CBV?$basic_string@DU?$char_traits@D@std@@V?$allocator@D@2@@std@@V?$shared_ptr@VRawImageData@@@2@@std@@QAE@$$QAU?$pair@V?$basic_string@DU?$char_traits@D@std@@V?$allocator@D@2@@std@@V?$shared_ptr@VRawImageData@@@2@@1@@Z 00404520 f i DraggingDemo.obj
 0001:00003570       ??$?0V?$basic_string@DU?$char_traits@D@std@@V?$allocator@D@2@@std@@V?$weak_ptr@VRawImageData@@@1@$0A@@?$pair@$$CBV?$basic_string@DU?$char_traits@D@std@@V?$allocator@D@2@@std@@V?$weak_ptr@VRawImageData@@@2@@std@@QAE@$$QAU?$pair@V?$basic_string@DU?$char_traits@D@std@@V?$allocator@D@2@@std@@V?$weak_ptr@VRawImageData@@@2@@1@@Z 00404570 f i DraggingDemo.obj
 0001:000035c0       ??$?0VRawImageData@@$0A@@?$shared_ptr@VRawImageData@@@std@@QAE@PAVRawImageData@@@Z 004045c0 f i DraggingDemo.obj
 0001:000036b0       ??$?0VRawImageData@@$0A@@?$weak_ptr@VRawImageData@@@std@@QAE@ABV?$shared_ptr@VRawImageData@@@1@@Z 004046b0 f i DraggingDemo.obj
 0001:000036e0       ??$?6DU?$char_traits@D@std@@V?$allocator@D@1@@std@@YAAAV?$basic_ostream@DU?$char_traits@D@std@@@0@AAV10@ABV?$basic_string@DU?$char_traits@D@std@@V?$allocator@D@2@@0@@Z 004046e0 f i DraggingDemo.obj
 0001:00003710       ??$?6U?$char_traits@D@std@@@std@@YAAAV?$basic_ostream@DU?$char_traits@D@std@@@0@AAV10@PBD@Z 00404710 f i DraggingDemo.obj
 0001:00003a40       ?loadImage@ImageManager@@SA?AVSimpleImage@@V?$basic_string@DU?$char_traits@D@std@@V?$allocator@D@2@@std@@_N@Z 00404a40 f i Psyjl16Engine.obj
 0001:00003b10       ??$?9VRawImageData@@@std@@YA_NABV?$shared_ptr@VRawImageData@@@0@$$T@Z 00404b10 f i DraggingDemo.obj
 0001:00003b40       ??$?CVRawImageData@@$0A@@?$shared_ptr@VRawImageData@@@std@@QBEPAVRawImageData@@XZ 00404b40 f i DraggingDemo.obj
 0001:00003b60       ??$?MDU?$char_traits@D@std@@V?$allocator@D@1@@std@@YA_NABV?$basic_string@DU?$char_traits@D@std@@V?$allocator@D@2@@0@0@Z 00404b60 f i DraggingDemo.obj
 0001:00003ba0       ??$_Alloc_proxy@V?$allocator@U_Container_proxy@std@@@std@@@_Container_base12@std@@QAEX$$QAV?$allocator@U_Container_proxy@std@@@1@@Z 00404ba0 f i DraggingDemo.obj
 0001:00003c00       ??$_Allocate@$07U_Default_allocate_traits@std@@$0A@@std@@YAPAXI@Z 00404c00 f i DraggingDemo.obj
 0001:00003c40       ??$_Allocate_manually_vector_aligned@U_Default_allocate_traits@std@@@std@@YAPAXI@Z 00404c40 f i DraggingDemo.obj
 0001:00003d30       ??$_Buyheadnode@V?$allocator@U?$_Tree_node@U?$pair@$$CBV?$basic_string@DU?$char_traits@D@std@@V?$allocator@D@2@@std@@V?$shared_ptr@VRawImageData@@@2@@std@@PAX@std@@@std@@@?$_Tree_node@U?$pair@$$CBV?$basic_string@DU?$char_traits@D@std@@V?$allocator@D@2@@std@@V?$shared_ptr@VRawImageData@@@2@@std@@PAX@std@@SAPAU01@AAV?$allocator@U?$_Tree_node@U?$pair@$$CBV?$basic_string@DU?$char_traits@D@std@@V?$allocator@D@2@@std@@V?$shared_ptr@VRawImageData@@@2@@std@@PAX@std@@@1@@Z 00404d30 f i DraggingDemo.obj
 0001:00003db0       ??$_Buyheadnode@V?$allocator@U?$_Tree_node@U?$pair@$$CBV?$basic_string@DU?$char_traits@D@std@@V?$allocator@D@2@@std@@V?$weak_ptr@VRawImageData@@@2@@std@@PAX@std@@@std@@@?$_Tree_node@U?$pair@$$CBV?$basic_string@DU?$char_traits@D@std@@V?$allocator@D@2@@std@@V?$weak_ptr@VRawImageData@@@2@@std@@PAX@std@@SAPAU01@AAV?$allocator@U?$_Tree_node@U?$pair@$$CBV?$basic_string@DU?$char_traits@D@std@@V?$allocator@D@2@@std@@V?$weak_ptr@VRawImageData@@@2@@std@@PAX@std@@@1@@Z 00404db0 f i DraggingDemo.obj
 0001:00003e30       ??$_Construct_from_weak@VRawImageData@@@?$_Ptr_base@VRawImageData@@@std@@IAE_NABV?$weak_ptr@VRawImageData@@@1@@Z 00404e30 f i DraggingDemo.obj
 0001:00003e90       ??$_Construct_in_place@PADAAPAD@std@@YAXAAPAD0@Z 00404e90 f i DraggingDemo.obj
 0001:00003ee0       ??$_Construct_in_place@PADABQAD@std@@YAXAAPADABQAD@Z 00404ee0 f i DraggingDemo.obj
 0001:00003f30       ??$_Construct_in_place@PAU?$_Tree_node@U?$pair@$$CBV?$basic_string@DU?$char_traits@D@std@@V?$allocator@D@2@@std@@V?$shared_ptr@VRawImageData@@@2@@std@@PAX@std@@AAPAU12@@std@@YAXAAPAU?$_Tree_node@U?$pair@$$CBV?$basic_string@DU?$char_traits@D@std@@V?$allocator@D@2@@std@@V?$shared_ptr@VRawImageData@@@2@@std@@PAX@0@0@Z 00404f30 f i DraggingDemo.obj
 0001:00003f80       ??$_Construct_in_place@PAU?$_Tree_node@U?$pair@$$CBV?$basic_string@DU?$char_traits@D@std@@V?$allocator@D@2@@std@@V?$shared_ptr@VRawImageData@@@2@@std@@PAX@std@@ABQAU12@@std@@YAXAAPAU?$_Tree_node@U?$pair@$$CBV?$basic_string@DU?$char_traits@D@std@@V?$allocator@D@2@@std@@V?$shared_ptr@VRawImageData@@@2@@std@@PAX@0@ABQAU10@@Z 00404f80 f i DraggingDemo.obj
 0001:00003fd0       ??$_Construct_in_place@PAU?$_Tree_node@U?$pair@$$CBV?$basic_string@DU?$char_traits@D@std@@V?$allocator@D@2@@std@@V?$weak_ptr@VRawImageData@@@2@@std@@PAX@std@@AAPAU12@@std@@YAXAAPAU?$_Tree_node@U?$pair@$$CBV?$basic_string@DU?$char_traits@D@std@@V?$allocator@D@2@@std@@V?$weak_ptr@VRawImageData@@@2@@std@@PAX@0@0@Z 00404fd0 f i DraggingDemo.obj
 0001:00004020       ??$_Construct_in_place@PAU?$_Tree_node@U?$pair@$$CBV?$basic_string@DU?$char_traits@D@std@@V?$allocator@D@2@@std@@V?$weak_ptr@VRawImageData@@@2@@std@@PAX@std@@ABQAU12@@std@@YAXAAPAU?$_Tree_node@U?$pair@$$CBV?$basic_string@DU?$char_traits@D@std@@V?$allocator@D@2@@std@@V?$weak_ptr@VRawImageData@@@2@@std@@PAX@0@ABQAU10@@Z 00405020 f i DraggingDemo.obj
 0001:00004070       ??$_Construct_in_place@U_Container_proxy@std@@PAU_Container_base12@2@@std@@YAXAAU_Container_proxy@0@$$QAPAU_Container_base12@0@@Z 00405070 f i DraggingDemo.obj
 0001:000040d0       ??$_Convert_size@I@std@@YAII@Z 004050d0 f i DraggingDemo.obj
 0001:000040e0       ??$_Copy_construct_from@VRawImageData@@@?$_Ptr_base@VRawImageData@@@std@@IAEXABV?$shared_ptr@VRawImageData@@@1@@Z 004050e0 f i DraggingDemo.obj
 0001:00004120       ??$_Copy_memmove@PAPAVDisplayableObject@@PAPAV1@@std@@YAPAPAVDisplayableObject@@PAPAV1@00@Z 00405120 f i DraggingDemo.obj
 0001:000041b0       ??$_Deallocate@$07$0A@@std@@YAXPAXI@Z 004051b0 f i DraggingDemo.obj
 0001:00004230       ??$_Deallocate_plain@V?$allocator@U_Container_proxy@std@@@std@@@std@@YAXAAV?$allocator@U_Container_proxy@std@@@0@QAU_Container_proxy@0@@Z 00405230 f i DraggingDemo.obj
 0001:00004290       ??$_Debug_lt_pred@ABU?$less@V?$basic_string@DU?$char_traits@D@std@@V?$allocator@D@2@@std@@@std@@ABV?$basic_string@DU?$char_traits@D@std@@V?$allocator@D@2@@2@ABV32@$0A@@std@@YA_NABU?$less@V?$basic_string@DU?$char_traits@D@std@@V?$allocator@D@2@@std@@@0@ABV?$basic_string@DU?$char_traits@D@std@@V?$allocator@D@2@@0@1@Z 00405290 f i DraggingDemo.obj
 0001:00004340       ??$_Delete_plain_internal@V?$allocator@U_Container_proxy@std@@@std@@@std@@YAXAAV?$allocator@U_Container_proxy@std@@@0@QAU_Container_proxy@0@@Z 00405340 f i DraggingDemo.obj
 0001:00004360       ??$_Destroy_in_place@PAD@std@@YAXAAPAD@Z 00405360 f i DraggingDemo.obj
 0001:00004370       ??$_Destroy_in_place@PAU?$_Tree_node@U?$pair@$$CBV?$basic_string@DU?$char_traits@D@std@@V?$allocator@D@2@@std@@V?$shared_ptr@VRawImageData@@@2@@std@@PAX@std@@@std@@YAXAAPAU?$_Tree_node@U?$pair@$$CBV?$basic_string@DU?$char_traits@D@std@@V?$allocator@D@2@@std@@V?$shared_ptr@VRawImageData@@@2@@std@@PAX@0@@Z 00405370 f i DraggingDemo.obj
 0001:00004380       ??$_Destroy_in_place@PAU?$_Tree_node@U?$pair@$$CBV?$basic_string@DU?$char_traits@D@std@@V?$allocator@D@2@@std@@V?$weak_ptr@VRawImageData@@@2@@std@@PAX@std@@@std@@YAXAAPAU?$_Tree_node@U?$pair@$$CBV?$basic_string@DU?$char_traits@D@std@@V?$allocator@D@2@@std@@V?$weak_ptr@VRawImageData@@@2@@std@@PAX@0@@Z 00405380 f i DraggingDemo.obj
 0001:00004390       ??$_Destroy_range@V?$allocator@PAVDisplayableObject@@@std@@@std@@YAXPAPAVDisplayableObject@@QAPAV1@AAV?$allocator@PAVDisplayableObject@@@0@@Z 00405390 f i DraggingDemo.obj
 0001:000043a0       ??$_Emplace@U?$pair@V?$basic_string@DU?$char_traits@D@std@@V?$allocator@D@2@@std@@V?$shared_ptr@VRawImageData@@@2@@std@@@?$_Tree@V?$_Tmap_traits@V?$basic_string@DU?$char_traits@D@std@@V?$allocator@D@2@@std@@V?$shared_ptr@VRawImageData@@@2@U?$less@V?$basic_string@DU?$char_traits@D@std@@V?$allocator@D@2@@std@@@2@V?$allocator@U?$pair@$$CBV?$basic_string@DU?$char_traits@D@std@@V?$allocator@D@2@@std@@V?$shared_ptr@VRawImageData@@@2@@std@@@2@$0A@@std@@@std@@IAE?AU?$pair@PAU?$_Tree_node@U?$pair@$$CBV?$basic_string@DU?$char_traits@D@std@@V?$allocator@D@2@@std@@V?$shared_ptr@VRawImageData@@@2@@std@@PAX@std@@_N@1@$$QAU?$pair@V?$basic_string@DU?$char_traits@D@std@@V?$allocator@D@2@@std@@V?$shared_ptr@VRawImageData@@@2@@1@@Z 004053a0 f i DraggingDemo.obj
 0001:00004490       _sprintf                   00405490 f i Psyjl16Engine.obj
 0001:000044d0       ??$_Emplace@U?$pair@V?$basic_string@DU?$char_traits@D@std@@V?$allocator@D@2@@std@@V?$weak_ptr@VRawImageData@@@2@@std@@@?$_Tree@V?$_Tmap_traits@V?$basic_string@DU?$char_traits@D@std@@V?$allocator@D@2@@std@@V?$weak_ptr@VRawImageData@@@2@U?$less@V?$basic_string@DU?$char_traits@D@std@@V?$allocator@D@2@@std@@@2@V?$allocator@U?$pair@$$CBV?$basic_string@DU?$char_traits@D@std@@V?$allocator@D@2@@std@@V?$weak_ptr@VRawImageData@@@2@@std@@@2@$0A@@std@@@std@@IAE?AU?$pair@PAU?$_Tree_node@U?$pair@$$CBV?$basic_string@DU?$char_traits@D@std@@V?$allocator@D@2@@std@@V?$weak_ptr@VRawImageData@@@2@@std@@PAX@std@@_N@1@$$QAU?$pair@V?$basic_string@DU?$char_traits@D@std@@V?$allocator@D@2@@std@@V?$weak_ptr@VRawImageData@@@2@@1@@Z 004054d0 f i DraggingDemo.obj
 0001:00004600       ??$_Emplace_back@$$V@?$_Uninitialized_backout_al@V?$allocator@PAVDisplayableObject@@@std@@@std@@QAEXXZ 00405600 f i DraggingDemo.obj
 0001:00004650       ??$_Emplace_back@PAVDisplayableObject@@@?$_Uninitialized_backout_al@V?$allocator@PAVDisplayableObject@@@std@@@std@@QAEX$$QAPAVDisplayableObject@@@Z 00405650 f i DraggingDemo.obj
 0001:000046b0       ??$_Erase_head@V?$allocator@U?$_Tree_node@U?$pair@$$CBV?$basic_string@DU?$char_traits@D@std@@V?$allocator@D@2@@std@@V?$weak_ptr@VRawImageData@@@2@@std@@PAX@std@@@std@@@?$_Tree_val@U?$_Tree_simple_types@U?$pair@$$CBV?$basic_string@DU?$char_traits@D@std@@V?$allocator@D@2@@std@@V?$weak_ptr@VRawImageData@@@2@@std@@@std@@@std@@QAEXAAV?$allocator@U?$_Tree_node@U?$pair@$$CBV?$basic_string@DU?$char_traits@D@std@@V?$allocator@D@2@@std@@V?$weak_ptr@VRawImageData@@@2@@std@@PAX@std@@@1@@Z 004056b0 f i DraggingDemo.obj
 0001:00004700       ??$_Erase_tree@V?$allocator@U?$_Tree_node@U?$pair@$$CBV?$basic_string@DU?$char_traits@D@std@@V?$allocator@D@2@@std@@V?$weak_ptr@VRawImageData@@@2@@std@@PAX@std@@@std@@@?$_Tree_val@U?$_Tree_simple_types@U?$pair@$$CBV?$basic_string@DU?$char_traits@D@std@@V?$allocator@D@2@@std@@V?$weak_ptr@VRawImageData@@@2@@std@@@std@@@std@@QAEXAAV?$allocator@U?$_Tree_node@U?$pair@$$CBV?$basic_string@DU?$char_traits@D@std@@V?$allocator@D@2@@std@@V?$weak_ptr@VRawImageData@@@2@@std@@PAX@std@@@1@PAU?$_Tree_node@U?$pair@$$CBV?$basic_string@DU?$char_traits@D@std@@V?$allocator@D@2@@std@@V?$weak_ptr@VRawImageData@@@2@@std@@PAX@1@@Z 00405700 f i DraggingDemo.obj
 0001:00004760       ??$_Find@V?$basic_string@DU?$char_traits@D@std@@V?$allocator@D@2@@std@@@?$_Tree@V?$_Tmap_traits@V?$basic_string@DU?$char_traits@D@std@@V?$allocator@D@2@@std@@V?$weak_ptr@VRawImageData@@@2@U?$less@V?$basic_string@DU?$char_traits@D@std@@V?$allocator@D@2@@std@@@2@V?$allocator@U?$pair@$$CBV?$basic_string@DU?$char_traits@D@std@@V?$allocator@D@2@@std@@V?$weak_ptr@VRawImageData@@@2@@std@@@2@$0A@@std@@@std@@ABEPAU?$_Tree_node@U?$pair@$$CBV?$basic_string@DU?$char_traits@D@std@@V?$allocator@D@2@@std@@V?$weak_ptr@VRawImageData@@@2@@std@@PAX@1@ABV?$basic_string@DU?$char_traits@D@std@@V?$allocator@D@2@@1@@Z 00405760 f i DraggingDemo.obj
 0001:000047c0       ??$_Find_lower_bound@V?$basic_string@DU?$char_traits@D@std@@V?$allocator@D@2@@std@@@?$_Tree@V?$_Tmap_traits@V?$basic_string@DU?$char_traits@D@std@@V?$allocator@D@2@@std@@V?$shared_ptr@VRawImageData@@@2@U?$less@V?$basic_string@DU?$char_traits@D@std@@V?$allocator@D@2@@std@@@2@V?$allocator@U?$pair@$$CBV?$basic_string@DU?$char_traits@D@std@@V?$allocator@D@2@@std@@V?$shared_ptr@VRawImageData@@@2@@std@@@2@$0A@@std@@@std@@IBE?AU?$_Tree_find_result@PAU?$_Tree_node@U?$pair@$$CBV?$basic_string@DU?$char_traits@D@std@@V?$allocator@D@2@@std@@V?$shared_ptr@VRawImageData@@@2@@std@@PAX@std@@@1@ABV?$basic_string@DU?$char_traits@D@std@@V?$allocator@D@2@@1@@Z 004057c0 f i DraggingDemo.obj
 0001:000048b0       ??$_Find_lower_bound@V?$basic_string@DU?$char_traits@D@std@@V?$allocator@D@2@@std@@@?$_Tree@V?$_Tmap_traits@V?$basic_string@DU?$char_traits@D@std@@V?$allocator@D@2@@std@@V?$weak_ptr@VRawImageData@@@2@U?$less@V?$basic_string@DU?$char_traits@D@std@@V?$allocator@D@2@@std@@@2@V?$allocator@U?$pair@$$CBV?$basic_string@DU?$char_traits@D@std@@V?$allocator@D@2@@std@@V?$weak_ptr@VRawImageData@@@2@@std@@@2@$0A@@std@@@std@@IBE?AU?$_Tree_find_result@PAU?$_Tree_node@U?$pair@$$CBV?$basic_string@DU?$char_traits@D@std@@V?$allocator@D@2@@std@@V?$weak_ptr@VRawImageData@@@2@@std@@PAX@std@@@1@ABV?$basic_string@DU?$char_traits@D@std@@V?$allocator@D@2@@1@@Z 004058b0 f i DraggingDemo.obj
 0001:000049a0       ??$_Freenode0@V?$allocator@U?$_Tree_node@U?$pair@$$CBV?$basic_string@DU?$char_traits@D@std@@V?$allocator@D@2@@std@@V?$weak_ptr@VRawImageData@@@2@@std@@PAX@std@@@std@@@?$_Tree_node@U?$pair@$$CBV?$basic_string@DU?$char_traits@D@std@@V?$allocator@D@2@@std@@V?$weak_ptr@VRawImageData@@@2@@std@@PAX@std@@SAXAAV?$allocator@U?$_Tree_node@U?$pair@$$CBV?$basic_string@DU?$char_traits@D@std@@V?$allocator@D@2@@std@@V?$weak_ptr@VRawImageData@@@2@@std@@PAX@std@@@1@PAU01@@Z 004059a0 f i DraggingDemo.obj
 0001:00004a30       ??$_Freenode@V?$allocator@U?$_Tree_node@U?$pair@$$CBV?$basic_string@DU?$char_traits@D@std@@V?$allocator@D@2@@std@@V?$weak_ptr@VRawImageData@@@2@@std@@PAX@std@@@std@@@?$_Tree_node@U?$pair@$$CBV?$basic_string@DU?$char_traits@D@std@@V?$allocator@D@2@@std@@V?$weak_ptr@VRawImageData@@@2@@std@@PAX@std@@SAXAAV?$allocator@U?$_Tree_node@U?$pair@$$CBV?$basic_string@DU?$char_traits@D@std@@V?$allocator@D@2@@std@@V?$weak_ptr@VRawImageData@@@2@@std@@PAX@std@@@1@PAU01@@Z 00405a30 f i DraggingDemo.obj
 0001:00004ab0       ??$_Get_size_of_n@$00@std@@YAII@Z 00405ab0 f i DraggingDemo.obj
 0001:00004ad0       ??$_Get_size_of_n@$03@std@@YAII@Z 00405ad0 f i DraggingDemo.obj
 0001:00004b10       ??$_Get_size_of_n@$07@std@@YAII@Z 00405b10 f i DraggingDemo.obj
 0001:00004b50       ??$_Get_size_of_n@$0DE@@std@@YAII@Z 00405b50 f i DraggingDemo.obj
 0001:00004b80       ??$_Get_unwrapped@ABQAPAVDisplayableObject@@@std@@YA?A_TABQAPAVDisplayableObject@@@Z 00405b80 f i DraggingDemo.obj
 0001:00004b90       ??$_Insert_string@DU?$char_traits@D@std@@I@std@@YAAAV?$basic_ostream@DU?$char_traits@D@std@@@0@AAV10@QBDI@Z 00405b90 f i DraggingDemo.obj
 0001:00004e60       __vsnprintf_l              00405e60 f i Psyjl16Engine.obj
 0001:00004ec0       ?_Eos@?$basic_string@DU?$char_traits@D@std@@V?$allocator@D@2@@std@@AAEXI@Z 00405ec0 f i MyTextBar.obj
 0001:00004f10       ??$_Kfn@$$CBV?$basic_string@DU?$char_traits@D@std@@V?$allocator@D@2@@std@@V?$shared_ptr@VRawImageData@@@2@@?$_Tmap_traits@V?$basic_string@DU?$char_traits@D@std@@V?$allocator@D@2@@std@@V?$shared_ptr@VRawImageData@@@2@U?$less@V?$basic_string@DU?$char_traits@D@std@@V?$allocator@D@2@@std@@@2@V?$allocator@U?$pair@$$CBV?$basic_string@DU?$char_traits@D@std@@V?$allocator@D@2@@std@@V?$shared_ptr@VRawImageData@@@2@@std@@@2@$0A@@std@@SAABV?$basic_string@DU?$char_traits@D@std@@V?$allocator@D@2@@1@ABU?$pair@$$CBV?$basic_string@DU?$char_traits@D@std@@V?$allocator@D@2@@std@@V?$shared_ptr@VRawImageData@@@2@@1@@Z 00405f10 f i DraggingDemo.obj
 0001:00004f20       ??$_Kfn@$$CBV?$basic_string@DU?$char_traits@D@std@@V?$allocator@D@2@@std@@V?$weak_ptr@VRawImageData@@@2@@?$_Tmap_traits@V?$basic_string@DU?$char_traits@D@std@@V?$allocator@D@2@@std@@V?$weak_ptr@VRawImageData@@@2@U?$less@V?$basic_string@DU?$char_traits@D@std@@V?$allocator@D@2@@std@@@2@V?$allocator@U?$pair@$$CBV?$basic_string@DU?$char_traits@D@std@@V?$allocator@D@2@@std@@V?$weak_ptr@VRawImageData@@@2@@std@@@2@$0A@@std@@SAABV?$basic_string@DU?$char_traits@D@std@@V?$allocator@D@2@@1@ABU?$pair@$$CBV?$basic_string@DU?$char_traits@D@std@@V?$allocator@D@2@@std@@V?$weak_ptr@VRawImageData@@@2@@1@@Z 00405f20 f i DraggingDemo.obj
 0001:00004f30       ??$_Lower_bound_duplicate@V?$basic_string@DU?$char_traits@D@std@@V?$allocator@D@2@@std@@@?$_Tree@V?$_Tmap_traits@V?$basic_string@DU?$char_traits@D@std@@V?$allocator@D@2@@std@@V?$shared_ptr@VRawImageData@@@2@U?$less@V?$basic_string@DU?$char_traits@D@std@@V?$allocator@D@2@@std@@@2@V?$allocator@U?$pair@$$CBV?$basic_string@DU?$char_traits@D@std@@V?$allocator@D@2@@std@@V?$shared_ptr@VRawImageData@@@2@@std@@@2@$0A@@std@@@std@@IBE_NQAU?$_Tree_node@U?$pair@$$CBV?$basic_string@DU?$char_traits@D@std@@V?$allocator@D@2@@std@@V?$shared_ptr@VRawImageData@@@2@@std@@PAX@1@ABV?$basic_string@DU?$char_traits@D@std@@V?$allocator@D@2@@1@@Z 00405f30 f i DraggingDemo.obj
 0001:00004fa0       ??$_Lower_bound_duplicate@V?$basic_string@DU?$char_traits@D@std@@V?$allocator@D@2@@std@@@?$_Tree@V?$_Tmap_traits@V?$basic_string@DU?$char_traits@D@std@@V?$allocator@D@2@@std@@V?$weak_ptr@VRawImageData@@@2@U?$less@V?$basic_string@DU?$char_traits@D@std@@V?$allocator@D@2@@std@@@2@V?$allocator@U?$pair@$$CBV?$basic_string@DU?$char_traits@D@std@@V?$allocator@D@2@@std@@V?$weak_ptr@VRawImageData@@@2@@std@@@2@$0A@@std@@@std@@IBE_NQAU?$_Tree_node@U?$pair@$$CBV?$basic_string@DU?$char_traits@D@std@@V?$allocator@D@2@@std@@V?$weak_ptr@VRawImageData@@@2@@std@@PAX@1@ABV?$basic_string@DU?$char_traits@D@std@@V?$allocator@D@2@@1@@Z 00405fa0 f i DraggingDemo.obj
 0001:00005010       ??$_Move_construct_from@VRawImageData@@@?$_Ptr_base@VRawImageData@@@std@@IAEX$$QAV01@@Z 00406010 f i DraggingDemo.obj
 0001:00005060       ??$_Reallocate_for@V<lambda_9366063389c5f42a00a5088cf24e69de>@@PBD@?$basic_string@DU?$char_traits@D@std@@V?$allocator@D@2@@std@@AAEAAV01@IV<lambda_9366063389c5f42a00a5088cf24e69de>@@PBD@Z 00406060 f i DraggingDemo.obj
 0001:00005160       ??$_Resize@U_Value_init_tag@std@@@?$vector@PAVDisplayableObject@@V?$allocator@PAVDisplayableObject@@@std@@@std@@AAEXIABU_Value_init_tag@1@@Z 00406160 f i DraggingDemo.obj
 0001:00005280       ??$_Resize_reallocate@U_Value_init_tag@std@@@?$vector@PAVDisplayableObject@@V?$allocator@PAVDisplayableObject@@@std@@@std@@AAEXIABU_Value_init_tag@1@@Z 00406280 f i DraggingDemo.obj
 0001:00005430       ??$_Set_ptr_rep_and_enable_shared@VRawImageData@@@?$shared_ptr@VRawImageData@@@std@@AAEXQAVRawImageData@@QAV_Ref_count_base@1@@Z 00406430 f i DraggingDemo.obj
 0001:00005460       ??$_To_address@PAPAVDisplayableObject@@@std@@YA?A_PABQAPAVDisplayableObject@@@Z 00406460 f i DraggingDemo.obj
 0001:00005470       ??$_Traits_compare@U?$char_traits@D@std@@@std@@YAHQBDI0I@Z 00406470 f i DraggingDemo.obj
 0001:000054e0       ??$_Unfancy@D@std@@YAPADPAD@Z 004064e0 f i DraggingDemo.obj
 0001:000054f0       ??$_Unfancy@PAVDisplayableObject@@@std@@YAPAPAVDisplayableObject@@PAPAV1@@Z 004064f0 f i DraggingDemo.obj
 0001:00005500       ??$_Unfancy@U_Container_proxy@std@@@std@@YAPAU_Container_proxy@0@PAU10@@Z 00406500 f i DraggingDemo.obj
 0001:00005510       ??$_Uninitialized_move@PAPAVDisplayableObject@@V?$allocator@PAVDisplayableObject@@@std@@@std@@YAPAPAVDisplayableObject@@QAPAV1@0PAPAV1@AAV?$allocator@PAVDisplayableObject@@@0@@Z 00406510 f i DraggingDemo.obj
 0001:00005630       ??$_Uninitialized_value_construct_n@V?$allocator@PAVDisplayableObject@@@std@@@std@@YAPAPAVDisplayableObject@@PAPAV1@IAAV?$allocator@PAVDisplayableObject@@@0@@Z 00406630 f i DraggingDemo.obj
 0001:00005710       ??$_Voidify_iter@PAPAD@std@@YAPAXPAPAD@Z 00406710 f i DraggingDemo.obj
 0001:00005720       ??$_Voidify_iter@PAPAU?$_Tree_node@U?$pair@$$CBV?$basic_string@DU?$char_traits@D@std@@V?$allocator@D@2@@std@@V?$shared_ptr@VRawImageData@@@2@@std@@PAX@std@@@std@@YAPAXPAPAU?$_Tree_node@U?$pair@$$CBV?$basic_string@DU?$char_traits@D@std@@V?$allocator@D@2@@std@@V?$shared_ptr@VRawImageData@@@2@@std@@PAX@0@@Z 00406720 f i DraggingDemo.obj
 0001:00005730       ??$_Voidify_iter@PAPAU?$_Tree_node@U?$pair@$$CBV?$basic_string@DU?$char_traits@D@std@@V?$allocator@D@2@@std@@V?$weak_ptr@VRawImageData@@@2@@std@@PAX@std@@@std@@YAPAXPAPAU?$_Tree_node@U?$pair@$$CBV?$basic_string@DU?$char_traits@D@std@@V?$allocator@D@2@@std@@V?$weak_ptr@VRawImageData@@@2@@std@@PAX@0@@Z 00406730 f i DraggingDemo.obj
 0001:00005740       ??$_Voidify_iter@PAPAVDisplayableObject@@@std@@YAPAXPAPAVDisplayableObject@@@Z 00406740 f i DraggingDemo.obj
 0001:00005750       ??$_Voidify_iter@PAU?$pair@$$CBV?$basic_string@DU?$char_traits@D@std@@V?$allocator@D@2@@std@@V?$shared_ptr@VRawImageData@@@2@@std@@@std@@YAPAXPAU?$pair@$$CBV?$basic_string@DU?$char_traits@D@std@@V?$allocator@D@2@@std@@V?$shared_ptr@VRawImageData@@@2@@0@@Z 00406750 f i DraggingDemo.obj
 0001:00005760       ??$_Voidify_iter@PAU?$pair@$$CBV?$basic_string@DU?$char_traits@D@std@@V?$allocator@D@2@@std@@V?$weak_ptr@VRawImageData@@@2@@std@@@std@@YAPAXPAU?$pair@$$CBV?$basic_string@DU?$char_traits@D@std@@V?$allocator@D@2@@std@@V?$weak_ptr@VRawImageData@@@2@@0@@Z 00406760 f i DraggingDemo.obj
 0001:00005770       ??$_Voidify_iter@PAU_Container_proxy@std@@@std@@YAPAXPAU_Container_proxy@0@@Z 00406770 f i DraggingDemo.obj
 0001:00005780       ??$_Weakly_construct_from@VRawImageData@@@?$_Ptr_base@VRawImageData@@@std@@IAEXABV01@@Z 00406780 f i DraggingDemo.obj
 0001:000057d0       ??$_Zero_range@PAPAVDisplayableObject@@@std@@YAPAPAVDisplayableObject@@QAPAV1@0@Z 004067d0 f i DraggingDemo.obj
 0001:00005820       ??$addressof@$$CBV?$_String_val@U?$_Simple_types@D@std@@@std@@@std@@YAPBV?$_String_val@U?$_Simple_types@D@std@@@0@ABV10@@Z 00406820 f i DraggingDemo.obj
 0001:00005830       ??$addressof@$$CBV?$_Tree_val@U?$_Tree_simple_types@U?$pair@$$CBV?$basic_string@DU?$char_traits@D@std@@V?$allocator@D@2@@std@@V?$shared_ptr@VRawImageData@@@2@@std@@@std@@@std@@@std@@YAPBV?$_Tree_val@U?$_Tree_simple_types@U?$pair@$$CBV?$basic_string@DU?$char_traits@D@std@@V?$allocator@D@2@@std@@V?$shared_ptr@VRawImageData@@@2@@std@@@std@@@0@ABV10@@Z 00406830 f i DraggingDemo.obj
 0001:00005840       ??$addressof@$$CBV?$_Tree_val@U?$_Tree_simple_types@U?$pair@$$CBV?$basic_string@DU?$char_traits@D@std@@V?$allocator@D@2@@std@@V?$weak_ptr@VRawImageData@@@2@@std@@@std@@@std@@@std@@YAPBV?$_Tree_val@U?$_Tree_simple_types@U?$pair@$$CBV?$basic_string@DU?$char_traits@D@std@@V?$allocator@D@2@@std@@V?$weak_ptr@VRawImageData@@@2@@std@@@std@@@0@ABV10@@Z 00406840 f i DraggingDemo.obj
 0001:00005850       ??$addressof@PAD@std@@YAPAPADAAPAD@Z 00406850 f i DraggingDemo.obj
 0001:00005860       ??$addressof@PAU?$_Tree_node@U?$pair@$$CBV?$basic_string@DU?$char_traits@D@std@@V?$allocator@D@2@@std@@V?$shared_ptr@VRawImageData@@@2@@std@@PAX@std@@@std@@YAPAPAU?$_Tree_node@U?$pair@$$CBV?$basic_string@DU?$char_traits@D@std@@V?$allocator@D@2@@std@@V?$shared_ptr@VRawImageData@@@2@@std@@PAX@0@AAPAU10@@Z 00406860 f i DraggingDemo.obj
 0001:00005870       ??$addressof@PAU?$_Tree_node@U?$pair@$$CBV?$basic_string@DU?$char_traits@D@std@@V?$allocator@D@2@@std@@V?$weak_ptr@VRawImageData@@@2@@std@@PAX@std@@@std@@YAPAPAU?$_Tree_node@U?$pair@$$CBV?$basic_string@DU?$char_traits@D@std@@V?$allocator@D@2@@std@@V?$weak_ptr@VRawImageData@@@2@@std@@PAX@0@AAPAU10@@Z 00406870 f i DraggingDemo.obj
 0001:00005880       ??$addressof@U?$pair@$$CBV?$basic_string@DU?$char_traits@D@std@@V?$allocator@D@2@@std@@V?$shared_ptr@VRawImageData@@@2@@std@@@std@@YAPAU?$pair@$$CBV?$basic_string@DU?$char_traits@D@std@@V?$allocator@D@2@@std@@V?$shared_ptr@VRawImageData@@@2@@0@AAU10@@Z 00406880 f i DraggingDemo.obj
 0001:00005890       ??$addressof@U?$pair@$$CBV?$basic_string@DU?$char_traits@D@std@@V?$allocator@D@2@@std@@V?$weak_ptr@VRawImageData@@@2@@std@@@std@@YAPAU?$pair@$$CBV?$basic_string@DU?$char_traits@D@std@@V?$allocator@D@2@@std@@V?$weak_ptr@VRawImageData@@@2@@0@AAU10@@Z 00406890 f i DraggingDemo.obj
 0001:000058a0       ??$addressof@U_Container_base12@std@@@std@@YAPAU_Container_base12@0@AAU10@@Z 004068a0 f i DraggingDemo.obj
 0001:000058b0       ??$addressof@U_Container_proxy@std@@@std@@YAPAU_Container_proxy@0@AAU10@@Z 004068b0 f i DraggingDemo.obj
 0001:000058c0       ??$addressof@V?$_String_val@U?$_Simple_types@D@std@@@std@@@std@@YAPAV?$_String_val@U?$_Simple_types@D@std@@@0@AAV10@@Z 004068c0 f i DraggingDemo.obj
 0001:000058d0       ??$addressof@V?$_Tree_val@U?$_Tree_simple_types@U?$pair@$$CBV?$basic_string@DU?$char_traits@D@std@@V?$allocator@D@2@@std@@V?$shared_ptr@VRawImageData@@@2@@std@@@std@@@std@@@std@@YAPAV?$_Tree_val@U?$_Tree_simple_types@U?$pair@$$CBV?$basic_string@DU?$char_traits@D@std@@V?$allocator@D@2@@std@@V?$shared_ptr@VRawImageData@@@2@@std@@@std@@@0@AAV10@@Z 004068d0 f i DraggingDemo.obj
 0001:000058e0       ??$addressof@V?$_Tree_val@U?$_Tree_simple_types@U?$pair@$$CBV?$basic_string@DU?$char_traits@D@std@@V?$allocator@D@2@@std@@V?$weak_ptr@VRawImageData@@@2@@std@@@std@@@std@@@std@@YAPAV?$_Tree_val@U?$_Tree_simple_types@U?$pair@$$CBV?$basic_string@DU?$char_traits@D@std@@V?$allocator@D@2@@std@@V?$weak_ptr@VRawImageData@@@2@@std@@@std@@@0@AAV10@@Z 004068e0 f i DraggingDemo.obj
 0001:000058f0       ??$construct@PAVDisplayableObject@@$$V@?$_Default_allocator_traits@V?$allocator@PAVDisplayableObject@@@std@@@std@@SAXAAV?$allocator@PAVDisplayableObject@@@1@QAPAVDisplayableObject@@@Z 004068f0 f i DraggingDemo.obj
 0001:00005940       ??$construct@PAVDisplayableObject@@PAV1@@?$_Default_allocator_traits@V?$allocator@PAVDisplayableObject@@@std@@@std@@SAXAAV?$allocator@PAVDisplayableObject@@@1@QAPAVDisplayableObject@@$$QAPAV3@@Z 00406940 f i DraggingDemo.obj
 0001:00005990       ??$construct@U?$pair@$$CBV?$basic_string@DU?$char_traits@D@std@@V?$allocator@D@2@@std@@V?$shared_ptr@VRawImageData@@@2@@std@@U?$pair@V?$basic_string@DU?$char_traits@D@std@@V?$allocator@D@2@@std@@V?$shared_ptr@VRawImageData@@@2@@2@@?$_Default_allocator_traits@V?$allocator@U?$_Tree_node@U?$pair@$$CBV?$basic_string@DU?$char_traits@D@std@@V?$allocator@D@2@@std@@V?$shared_ptr@VRawImageData@@@2@@std@@PAX@std@@@std@@@std@@SAXAAV?$allocator@U?$_Tree_node@U?$pair@$$CBV?$basic_string@DU?$char_traits@D@std@@V?$allocator@D@2@@std@@V?$shared_ptr@VRawImageData@@@2@@std@@PAX@std@@@1@QAU?$pair@$$CBV?$basic_string@DU?$char_traits@D@std@@V?$allocator@D@2@@std@@V?$shared_ptr@VRawImageData@@@2@@1@$$QAU?$pair@V?$basic_string@DU?$char_traits@D@std@@V?$allocator@D@2@@std@@V?$shared_ptr@VRawImageData@@@2@@1@@Z 00406990 f i DraggingDemo.obj
 0001:000059e0       ??$construct@U?$pair@$$CBV?$basic_string@DU?$char_traits@D@std@@V?$allocator@D@2@@std@@V?$weak_ptr@VRawImageData@@@2@@std@@U?$pair@V?$basic_string@DU?$char_traits@D@std@@V?$allocator@D@2@@std@@V?$weak_ptr@VRawImageData@@@2@@2@@?$_Default_allocator_traits@V?$allocator@U?$_Tree_node@U?$pair@$$CBV?$basic_string@DU?$char_traits@D@std@@V?$allocator@D@2@@std@@V?$weak_ptr@VRawImageData@@@2@@std@@PAX@std@@@std@@@std@@SAXAAV?$allocator@U?$_Tree_node@U?$pair@$$CBV?$basic_string@DU?$char_traits@D@std@@V?$allocator@D@2@@std@@V?$weak_ptr@VRawImageData@@@2@@std@@PAX@std@@@1@QAU?$pair@$$CBV?$basic_string@DU?$char_traits@D@std@@V?$allocator@D@2@@std@@V?$weak_ptr@VRawImageData@@@2@@1@$$QAU?$pair@V?$basic_string@DU?$char_traits@D@std@@V?$allocator@D@2@@std@@V?$weak_ptr@VRawImageData@@@2@@1@@Z 004069e0 f i DraggingDemo.obj
 0001:00005a30       ??$destroy@U?$pair@$$CBV?$basic_string@DU?$char_traits@D@std@@V?$allocator@D@2@@std@@V?$shared_ptr@VRawImageData@@@2@@std@@@?$_Default_allocator_traits@V?$allocator@U?$_Tree_node@U?$pair@$$CBV?$basic_string@DU?$char_traits@D@std@@V?$allocator@D@2@@std@@V?$shared_ptr@VRawImageData@@@2@@std@@PAX@std@@@std@@@std@@SAXAAV?$allocator@U?$_Tree_node@U?$pair@$$CBV?$basic_string@DU?$char_traits@D@std@@V?$allocator@D@2@@std@@V?$shared_ptr@VRawImageData@@@2@@std@@PAX@std@@@1@QAU?$pair@$$CBV?$basic_string@DU?$char_traits@D@std@@V?$allocator@D@2@@std@@V?$shared_ptr@VRawImageData@@@2@@1@@Z 00406a30 f i DraggingDemo.obj
 0001:00005a50       ??$destroy@U?$pair@$$CBV?$basic_string@DU?$char_traits@D@std@@V?$allocator@D@2@@std@@V?$weak_ptr@VRawImageData@@@2@@std@@@?$_Default_allocator_traits@V?$allocator@U?$_Tree_node@U?$pair@$$CBV?$basic_string@DU?$char_traits@D@std@@V?$allocator@D@2@@std@@V?$weak_ptr@VRawImageData@@@2@@std@@PAX@std@@@std@@@std@@SAXAAV?$allocator@U?$_Tree_node@U?$pair@$$CBV?$basic_string@DU?$char_traits@D@std@@V?$allocator@D@2@@std@@V?$weak_ptr@VRawImageData@@@2@@std@@PAX@std@@@1@QAU?$pair@$$CBV?$basic_string@DU?$char_traits@D@std@@V?$allocator@D@2@@std@@V?$weak_ptr@VRawImageData@@@2@@1@@Z 00406a50 f i DraggingDemo.obj
 0001:00005a70       ??$emplace@U?$pair@V?$basic_string@DU?$char_traits@D@std@@V?$allocator@D@2@@std@@V?$shared_ptr@VRawImageData@@@2@@std@@@?$_Tree@V?$_Tmap_traits@V?$basic_string@DU?$char_traits@D@std@@V?$allocator@D@2@@std@@V?$shared_ptr@VRawImageData@@@2@U?$less@V?$basic_string@DU?$char_traits@D@std@@V?$allocator@D@2@@std@@@2@V?$allocator@U?$pair@$$CBV?$basic_string@DU?$char_traits@D@std@@V?$allocator@D@2@@std@@V?$shared_ptr@VRawImageData@@@2@@std@@@2@$0A@@std@@@std@@QAE?AU?$pair@V?$_Tree_iterator@V?$_Tree_val@U?$_Tree_simple_types@U?$pair@$$CBV?$basic_string@DU?$char_traits@D@std@@V?$allocator@D@2@@std@@V?$shared_ptr@VRawImageData@@@2@@std@@@std@@@std@@@std@@_N@1@$$QAU?$pair@V?$basic_string@DU?$char_traits@D@std@@V?$allocator@D@2@@std@@V?$shared_ptr@VRawImageData@@@2@@1@@Z 00406a70 f i DraggingDemo.obj
 0001:00005b00       ??$emplace@U?$pair@V?$basic_string@DU?$char_traits@D@std@@V?$allocator@D@2@@std@@V?$weak_ptr@VRawImageData@@@2@@std@@@?$_Tree@V?$_Tmap_traits@V?$basic_string@DU?$char_traits@D@std@@V?$allocator@D@2@@std@@V?$weak_ptr@VRawImageData@@@2@U?$less@V?$basic_string@DU?$char_traits@D@std@@V?$allocator@D@2@@std@@@2@V?$allocator@U?$pair@$$CBV?$basic_string@DU?$char_traits@D@std@@V?$allocator@D@2@@std@@V?$weak_ptr@VRawImageData@@@2@@std@@@2@$0A@@std@@@std@@QAE?AU?$pair@V?$_Tree_iterator@V?$_Tree_val@U?$_Tree_simple_types@U?$pair@$$CBV?$basic_string@DU?$char_traits@D@std@@V?$allocator@D@2@@std@@V?$weak_ptr@VRawImageData@@@2@@std@@@std@@@std@@@std@@_N@1@$$QAU?$pair@V?$basic_string@DU?$char_traits@D@std@@V?$allocator@D@2@@std@@V?$weak_ptr@VRawImageData@@@2@@1@@Z 00406b00 f i DraggingDemo.obj
 0001:00005b90       ??$endl@DU?$char_traits@D@std@@@std@@YAAAV?$basic_ostream@DU?$char_traits@D@std@@@0@AAV10@@Z 00406b90 f i DraggingDemo.obj
 0001:00005bd0       ??$erase@V?$_Tree_iterator@V?$_Tree_val@U?$_Tree_simple_types@U?$pair@$$CBV?$basic_string@DU?$char_traits@D@std@@V?$allocator@D@2@@std@@V?$weak_ptr@VRawImageData@@@2@@std@@@std@@@std@@@std@@$0A@@?$_Tree@V?$_Tmap_traits@V?$basic_string@DU?$char_traits@D@std@@V?$allocator@D@2@@std@@V?$weak_ptr@VRawImageData@@@2@U?$less@V?$basic_string@DU?$char_traits@D@std@@V?$allocator@D@2@@std@@@2@V?$allocator@U?$pair@$$CBV?$basic_string@DU?$char_traits@D@std@@V?$allocator@D@2@@std@@V?$weak_ptr@VRawImageData@@@2@@std@@@2@$0A@@std@@@std@@QAE?AV?$_Tree_iterator@V?$_Tree_val@U?$_Tree_simple_types@U?$pair@$$CBV?$basic_string@DU?$char_traits@D@std@@V?$allocator@D@2@@std@@V?$weak_ptr@VRawImageData@@@2@@std@@@std@@@std@@@1@V21@@Z 00406bd0 f i DraggingDemo.obj
 0001:00005d20       ??$exchange@PAU?$_Tree_node@U?$pair@$$CBV?$basic_string@DU?$char_traits@D@std@@V?$allocator@D@2@@std@@V?$shared_ptr@VRawImageData@@@2@@std@@PAX@std@@$$T@std@@YAPAU?$_Tree_node@U?$pair@$$CBV?$basic_string@DU?$char_traits@D@std@@V?$allocator@D@2@@std@@V?$shared_ptr@VRawImageData@@@2@@std@@PAX@0@AAPAU10@$$QA$$T@Z 00406d20 f i DraggingDemo.obj
 0001:00005d50       ??$exchange@PAU?$_Tree_node@U?$pair@$$CBV?$basic_string@DU?$char_traits@D@std@@V?$allocator@D@2@@std@@V?$weak_ptr@VRawImageData@@@2@@std@@PAX@std@@$$T@std@@YAPAU?$_Tree_node@U?$pair@$$CBV?$basic_string@DU?$char_traits@D@std@@V?$allocator@D@2@@std@@V?$weak_ptr@VRawImageData@@@2@@std@@PAX@0@AAPAU10@$$QA$$T@Z 00406d50 f i DraggingDemo.obj
 0001:00005d80       ??$exchange@PAU?$_Tree_node@U?$pair@$$CBV?$basic_string@DU?$char_traits@D@std@@V?$allocator@D@2@@std@@V?$weak_ptr@VRawImageData@@@2@@std@@PAX@std@@AAPAU12@@std@@YAPAU?$_Tree_node@U?$pair@$$CBV?$basic_string@DU?$char_traits@D@std@@V?$allocator@D@2@@std@@V?$weak_ptr@VRawImageData@@@2@@std@@PAX@0@AAPAU10@0@Z 00406d80 f i DraggingDemo.obj
 0001:00005db0       ??$forward@AAPAD@std@@YAAAPADAAPAD@Z 00406db0 f i DraggingDemo.obj
 0001:00005dc0       ??$forward@AAPAU?$_Tree_node@U?$pair@$$CBV?$basic_string@DU?$char_traits@D@std@@V?$allocator@D@2@@std@@V?$shared_ptr@VRawImageData@@@2@@std@@PAX@std@@@std@@YAAAPAU?$_Tree_node@U?$pair@$$CBV?$basic_string@DU?$char_traits@D@std@@V?$allocator@D@2@@std@@V?$shared_ptr@VRawImageData@@@2@@std@@PAX@0@AAPAU10@@Z 00406dc0 f i DraggingDemo.obj
 0001:00005dd0       ??$forward@AAPAU?$_Tree_node@U?$pair@$$CBV?$basic_string@DU?$char_traits@D@std@@V?$allocator@D@2@@std@@V?$weak_ptr@VRawImageData@@@2@@std@@PAX@std@@@std@@YAAAPAU?$_Tree_node@U?$pair@$$CBV?$basic_string@DU?$char_traits@D@std@@V?$allocator@D@2@@std@@V?$weak_ptr@VRawImageData@@@2@@std@@PAX@0@AAPAU10@@Z 00406dd0 f i DraggingDemo.obj
 0001:00005de0       ??$forward@AAV?$basic_string@DU?$char_traits@D@std@@V?$allocator@D@2@@std@@@std@@YAAAV?$basic_string@DU?$char_traits@D@std@@V?$allocator@D@2@@0@AAV10@@Z 00406de0 f i DraggingDemo.obj
 0001:00005df0       ??$forward@AAV?$shared_ptr@VRawImageData@@@std@@@std@@YAAAV?$shared_ptr@VRawImageData@@@0@AAV10@@Z 00406df0 f i DraggingDemo.obj
 0001:00005e00       ??$forward@AAV?$weak_ptr@VRawImageData@@@std@@@std@@YAAAV?$weak_ptr@VRawImageData@@@0@AAV10@@Z 00406e00 f i DraggingDemo.obj
 0001:00005e10       ??$forward@ABQAD@std@@YAABQADABQAD@Z 00406e10 f i DraggingDemo.obj
 0001:00005e20       ??$forward@ABQAU?$_Tree_node@U?$pair@$$CBV?$basic_string@DU?$char_traits@D@std@@V?$allocator@D@2@@std@@V?$shared_ptr@VRawImageData@@@2@@std@@PAX@std@@@std@@YAABQAU?$_Tree_node@U?$pair@$$CBV?$basic_string@DU?$char_traits@D@std@@V?$allocator@D@2@@std@@V?$shared_ptr@VRawImageData@@@2@@std@@PAX@0@ABQAU10@@Z 00406e20 f i DraggingDemo.obj
 0001:00005e30       ??$forward@ABQAU?$_Tree_node@U?$pair@$$CBV?$basic_string@DU?$char_traits@D@std@@V?$allocator@D@2@@std@@V?$weak_ptr@VRawImageData@@@2@@std@@PAX@std@@@std@@YAABQAU?$_Tree_node@U?$pair@$$CBV?$basic_string@DU?$char_traits@D@std@@V?$allocator@D@2@@std@@V?$weak_ptr@VRawImageData@@@2@@std@@PAX@0@ABQAU10@@Z 00406e30 f i DraggingDemo.obj
 0001:00005e40       ??$forward@ABU?$less@V?$basic_string@DU?$char_traits@D@std@@V?$allocator@D@2@@std@@@std@@@std@@YAABU?$less@V?$basic_string@DU?$char_traits@D@std@@V?$allocator@D@2@@std@@@0@ABU10@@Z 00406e40 f i DraggingDemo.obj
 0001:00005e50       ??$forward@AB_N@std@@YAAB_NAB_N@Z 00406e50 f i DraggingDemo.obj
 0001:00005e60       ??$forward@PAU?$_Tree_node@U?$pair@$$CBV?$basic_string@DU?$char_traits@D@std@@V?$allocator@D@2@@std@@V?$shared_ptr@VRawImageData@@@2@@std@@PAX@std@@@std@@YA$$QAPAU?$_Tree_node@U?$pair@$$CBV?$basic_string@DU?$char_traits@D@std@@V?$allocator@D@2@@std@@V?$shared_ptr@VRawImageData@@@2@@std@@PAX@0@AAPAU10@@Z 00406e60 f i DraggingDemo.obj
 0001:00005e70       ??$forward@PAU?$_Tree_node@U?$pair@$$CBV?$basic_string@DU?$char_traits@D@std@@V?$allocator@D@2@@std@@V?$weak_ptr@VRawImageData@@@2@@std@@PAX@std@@@std@@YA$$QAPAU?$_Tree_node@U?$pair@$$CBV?$basic_string@DU?$char_traits@D@std@@V?$allocator@D@2@@std@@V?$weak_ptr@VRawImageData@@@2@@std@@PAX@0@AAPAU10@@Z 00406e70 f i DraggingDemo.obj
 0001:00005e80       ??$forward@PAU_Container_base12@std@@@std@@YA$$QAPAU_Container_base12@0@AAPAU10@@Z 00406e80 f i DraggingDemo.obj
 0001:00005e90       ??$forward@PAVDisplayableObject@@@std@@YA$$QAPAVDisplayableObject@@AAPAV1@@Z 00406e90 f i DraggingDemo.obj
 0001:00005ea0       ??$forward@U?$pair@V?$basic_string@DU?$char_traits@D@std@@V?$allocator@D@2@@std@@V?$shared_ptr@VRawImageData@@@2@@std@@@std@@YA$$QAU?$pair@V?$basic_string@DU?$char_traits@D@std@@V?$allocator@D@2@@std@@V?$shared_ptr@VRawImageData@@@2@@0@AAU10@@Z 00406ea0 f i DraggingDemo.obj
 0001:00005eb0       ??$forward@U?$pair@V?$basic_string@DU?$char_traits@D@std@@V?$allocator@D@2@@std@@V?$weak_ptr@VRawImageData@@@2@@std@@@std@@YA$$QAU?$pair@V?$basic_string@DU?$char_traits@D@std@@V?$allocator@D@2@@std@@V?$weak_ptr@VRawImageData@@@2@@0@AAU10@@Z 00406eb0 f i DraggingDemo.obj
 0001:00005ec0       ??$forward@U_Zero_then_variadic_args_t@std@@@std@@YA$$QAU_Zero_then_variadic_args_t@0@AAU10@@Z 00406ec0 f i DraggingDemo.obj
 0001:00005ed0       ??$forward@V?$_Tree_iterator@V?$_Tree_val@U?$_Tree_simple_types@U?$pair@$$CBV?$basic_string@DU?$char_traits@D@std@@V?$allocator@D@2@@std@@V?$shared_ptr@VRawImageData@@@2@@std@@@std@@@std@@@std@@@std@@YA$$QAV?$_Tree_iterator@V?$_Tree_val@U?$_Tree_simple_types@U?$pair@$$CBV?$basic_string@DU?$char_traits@D@std@@V?$allocator@D@2@@std@@V?$shared_ptr@VRawImageData@@@2@@std@@@std@@@std@@@0@AAV10@@Z 00406ed0 f i DraggingDemo.obj
 0001:00005ee0       ??$forward@V?$_Tree_iterator@V?$_Tree_val@U?$_Tree_simple_types@U?$pair@$$CBV?$basic_string@DU?$char_traits@D@std@@V?$allocator@D@2@@std@@V?$weak_ptr@VRawImageData@@@2@@std@@@std@@@std@@@std@@@std@@YA$$QAV?$_Tree_iterator@V?$_Tree_val@U?$_Tree_simple_types@U?$pair@$$CBV?$basic_string@DU?$char_traits@D@std@@V?$allocator@D@2@@std@@V?$weak_ptr@VRawImageData@@@2@@std@@@std@@@std@@@0@AAV10@@Z 00406ee0 f i DraggingDemo.obj
 0001:00005ef0       ??$forward@V?$allocator@D@std@@@std@@YA$$QAV?$allocator@D@0@AAV10@@Z 00406ef0 f i DraggingDemo.obj
 0001:00005f00       ??$forward@V?$basic_string@DU?$char_traits@D@std@@V?$allocator@D@2@@std@@@std@@YA$$QAV?$basic_string@DU?$char_traits@D@std@@V?$allocator@D@2@@0@AAV10@@Z 00406f00 f i DraggingDemo.obj
 0001:00005f10       ??$forward@V?$shared_ptr@VRawImageData@@@std@@@std@@YA$$QAV?$shared_ptr@VRawImageData@@@0@AAV10@@Z 00406f10 f i DraggingDemo.obj
 0001:00005f20       ??$forward@V?$weak_ptr@VRawImageData@@@std@@@std@@YA$$QAV?$weak_ptr@VRawImageData@@@0@AAV10@@Z 00406f20 f i DraggingDemo.obj
 0001:00005f30       ??$forward@_N@std@@YA$$QA_NAA_N@Z 00406f30 f i DraggingDemo.obj
 0001:00005f40       ??$insert@U?$pair@V?$basic_string@DU?$char_traits@D@std@@V?$allocator@D@2@@std@@V?$shared_ptr@VRawImageData@@@2@@std@@$0A@@?$map@V?$basic_string@DU?$char_traits@D@std@@V?$allocator@D@2@@std@@V?$shared_ptr@VRawImageData@@@2@U?$less@V?$basic_string@DU?$char_traits@D@std@@V?$allocator@D@2@@std@@@2@V?$allocator@U?$pair@$$CBV?$basic_string@DU?$char_traits@D@std@@V?$allocator@D@2@@std@@V?$shared_ptr@VRawImageData@@@2@@std@@@2@@std@@QAE?AU?$pair@V?$_Tree_iterator@V?$_Tree_val@U?$_Tree_simple_types@U?$pair@$$CBV?$basic_string@DU?$char_traits@D@std@@V?$allocator@D@2@@std@@V?$shared_ptr@VRawImageData@@@2@@std@@@std@@@std@@@std@@_N@1@$$QAU?$pair@V?$basic_string@DU?$char_traits@D@std@@V?$allocator@D@2@@std@@V?$shared_ptr@VRawImageData@@@2@@1@@Z 00406f40 f i DraggingDemo.obj
 0001:00005f90       ??$insert@U?$pair@V?$basic_string@DU?$char_traits@D@std@@V?$allocator@D@2@@std@@V?$weak_ptr@VRawImageData@@@2@@std@@$0A@@?$map@V?$basic_string@DU?$char_traits@D@std@@V?$allocator@D@2@@std@@V?$weak_ptr@VRawImageData@@@2@U?$less@V?$basic_string@DU?$char_traits@D@std@@V?$allocator@D@2@@std@@@2@V?$allocator@U?$pair@$$CBV?$basic_string@DU?$char_traits@D@std@@V?$allocator@D@2@@std@@V?$weak_ptr@VRawImageData@@@2@@std@@@2@@std@@QAE?AU?$pair@V?$_Tree_iterator@V?$_Tree_val@U?$_Tree_simple_types@U?$pair@$$CBV?$basic_string@DU?$char_traits@D@std@@V?$allocator@D@2@@std@@V?$weak_ptr@VRawImageData@@@2@@std@@@std@@@std@@@std@@_N@1@$$QAU?$pair@V?$basic_string@DU?$char_traits@D@std@@V?$allocator@D@2@@std@@V?$weak_ptr@VRawImageData@@@2@@1@@Z 00406f90 f i DraggingDemo.obj
 0001:00005fe0       ??$max@I@std@@YAABIABI0@Z  00406fe0 f i DraggingDemo.obj
 0001:00006020       ??$min@I@std@@YAABIABI0@Z  00407020 f i DraggingDemo.obj
 0001:00006060       ??$move@AAD@std@@YA$$QADAAD@Z 00407060 f i DraggingDemo.obj
 0001:00006070       ??$move@AAPAVDisplayableObject@@@std@@YA$$QAPAVDisplayableObject@@AAPAV1@@Z 00407070 f i DraggingDemo.obj
 0001:00006080       ??$move@AAV?$allocator@D@std@@@std@@YA$$QAV?$allocator@D@0@AAV10@@Z 00407080 f i DraggingDemo.obj
 0001:00006090       ??$move@AAV?$shared_ptr@VRawImageData@@@std@@@std@@YA$$QAV?$shared_ptr@VRawImageData@@@0@AAV10@@Z 00407090 f i DraggingDemo.obj
 0001:000060a0       ??$move@AAV?$weak_ptr@VRawImageData@@@std@@@std@@YA$$QAV?$weak_ptr@VRawImageData@@@0@AAV10@@Z 004070a0 f i DraggingDemo.obj
 0001:000060b0       ??$swap@D$0A@@std@@YAXAAD0@Z 004070b0 f i DraggingDemo.obj
 0001:00006100       ??0?$_Alloc_construct_ptr@V?$allocator@U?$_Tree_node@U?$pair@$$CBV?$basic_string@DU?$char_traits@D@std@@V?$allocator@D@2@@std@@V?$shared_ptr@VRawImageData@@@2@@std@@PAX@std@@@std@@@std@@QAE@AAV?$allocator@U?$_Tree_node@U?$pair@$$CBV?$basic_string@DU?$char_traits@D@std@@V?$allocator@D@2@@std@@V?$shared_ptr@VRawImageData@@@2@@std@@PAX@std@@@1@@Z 00407100 f i DraggingDemo.obj
 0001:00006130       ??0?$_Alloc_construct_ptr@V?$allocator@U?$_Tree_node@U?$pair@$$CBV?$basic_string@DU?$char_traits@D@std@@V?$allocator@D@2@@std@@V?$weak_ptr@VRawImageData@@@2@@std@@PAX@std@@@std@@@std@@QAE@AAV?$allocator@U?$_Tree_node@U?$pair@$$CBV?$basic_string@DU?$char_traits@D@std@@V?$allocator@D@2@@std@@V?$weak_ptr@VRawImageData@@@2@@std@@PAX@std@@@1@@Z 00407130 f i DraggingDemo.obj
 0001:00006160       ??0?$_Container_proxy_ptr12@V?$allocator@U_Container_proxy@std@@@std@@@std@@QAE@AAV?$allocator@U_Container_proxy@std@@@1@AAU_Container_base12@1@@Z 00407160 f i DraggingDemo.obj
 0001:000061e0       ??0?$_Ptr_base@VRawImageData@@@std@@IAE@XZ 004071e0 f i DraggingDemo.obj
 0001:00006210       ??0?$_Ref_count@VRawImageData@@@std@@QAE@PAVRawImageData@@@Z 00407210 f i DraggingDemo.obj
 0001:00006260       ??0?$_String_val@U?$_Simple_types@D@std@@@std@@QAE@XZ 00407260 f i DraggingDemo.obj
 0001:000062b0       ??0?$_Temporary_owner@VRawImageData@@@std@@QAE@QAVRawImageData@@@Z 004072b0 f i DraggingDemo.obj
 0001:000062d0       ??0?$_Tree@V?$_Tmap_traits@V?$basic_string@DU?$char_traits@D@std@@V?$allocator@D@2@@std@@V?$shared_ptr@VRawImageData@@@2@U?$less@V?$basic_string@DU?$char_traits@D@std@@V?$allocator@D@2@@std@@@2@V?$allocator@U?$pair@$$CBV?$basic_string@DU?$char_traits@D@std@@V?$allocator@D@2@@std@@V?$shared_ptr@VRawImageData@@@2@@std@@@2@$0A@@std@@@std@@QAE@ABU?$less@V?$basic_string@DU?$char_traits@D@std@@V?$allocator@D@2@@std@@@1@@Z 004072d0 f i DraggingDemo.obj
 0001:00006310       ??0?$_Tree@V?$_Tmap_traits@V?$basic_string@DU?$char_traits@D@std@@V?$allocator@D@2@@std@@V?$weak_ptr@VRawImageData@@@2@U?$less@V?$basic_string@DU?$char_traits@D@std@@V?$allocator@D@2@@std@@@2@V?$allocator@U?$pair@$$CBV?$basic_string@DU?$char_traits@D@std@@V?$allocator@D@2@@std@@V?$weak_ptr@VRawImageData@@@2@@std@@@2@$0A@@std@@@std@@QAE@ABU?$less@V?$basic_string@DU?$char_traits@D@std@@V?$allocator@D@2@@std@@@1@@Z 00407310 f i DraggingDemo.obj
 0001:00006350       ??0?$_Tree_const_iterator@V?$_Tree_val@U?$_Tree_simple_types@U?$pair@$$CBV?$basic_string@DU?$char_traits@D@std@@V?$allocator@D@2@@std@@V?$shared_ptr@VRawImageData@@@2@@std@@@std@@@std@@@std@@QAE@$$QAV01@@Z 00407350 f i DraggingDemo.obj
 0001:00006380       ??0?$_Tree_const_iterator@V?$_Tree_val@U?$_Tree_simple_types@U?$pair@$$CBV?$basic_string@DU?$char_traits@D@std@@V?$allocator@D@2@@std@@V?$shared_ptr@VRawImageData@@@2@@std@@@std@@@std@@@std@@QAE@PAU?$_Tree_node@U?$pair@$$CBV?$basic_string@DU?$char_traits@D@std@@V?$allocator@D@2@@std@@V?$shared_ptr@VRawImageData@@@2@@std@@PAX@1@PBV?$_Tree_val@U?$_Tree_simple_types@U?$pair@$$CBV?$basic_string@DU?$char_traits@D@std@@V?$allocator@D@2@@std@@V?$shared_ptr@VRawImageData@@@2@@std@@@std@@@1@@Z 00407380 f i DraggingDemo.obj
 0001:000063b0       ??0?$_Tree_const_iterator@V?$_Tree_val@U?$_Tree_simple_types@U?$pair@$$CBV?$basic_string@DU?$char_traits@D@std@@V?$allocator@D@2@@std@@V?$weak_ptr@VRawImageData@@@2@@std@@@std@@@std@@@std@@QAE@$$QAV01@@Z 004073b0 f i DraggingDemo.obj
 0001:000063e0       ??0?$_Tree_const_iterator@V?$_Tree_val@U?$_Tree_simple_types@U?$pair@$$CBV?$basic_string@DU?$char_traits@D@std@@V?$allocator@D@2@@std@@V?$weak_ptr@VRawImageData@@@2@@std@@@std@@@std@@@std@@QAE@ABV01@@Z 004073e0 f i DraggingDemo.obj
 0001:00006410       ??0?$_Tree_const_iterator@V?$_Tree_val@U?$_Tree_simple_types@U?$pair@$$CBV?$basic_string@DU?$char_traits@D@std@@V?$allocator@D@2@@std@@V?$weak_ptr@VRawImageData@@@2@@std@@@std@@@std@@@std@@QAE@PAU?$_Tree_node@U?$pair@$$CBV?$basic_string@DU?$char_traits@D@std@@V?$allocator@D@2@@std@@V?$weak_ptr@VRawImageData@@@2@@std@@PAX@1@PBV?$_Tree_val@U?$_Tree_simple_types@U?$pair@$$CBV?$basic_string@DU?$char_traits@D@std@@V?$allocator@D@2@@std@@V?$weak_ptr@VRawImageData@@@2@@std@@@std@@@1@@Z 00407410 f i DraggingDemo.obj
 0001:00006440       ??0?$_Tree_iterator@V?$_Tree_val@U?$_Tree_simple_types@U?$pair@$$CBV?$basic_string@DU?$char_traits@D@std@@V?$allocator@D@2@@std@@V?$shared_ptr@VRawImageData@@@2@@std@@@std@@@std@@@std@@QAE@$$QAV01@@Z 00407440 f i DraggingDemo.obj
 0001:00006470       ??0?$_Tree_iterator@V?$_Tree_val@U?$_Tree_simple_types@U?$pair@$$CBV?$basic_string@DU?$char_traits@D@std@@V?$allocator@D@2@@std@@V?$shared_ptr@VRawImageData@@@2@@std@@@std@@@std@@@std@@QAE@PAU?$_Tree_node@U?$pair@$$CBV?$basic_string@DU?$char_traits@D@std@@V?$allocator@D@2@@std@@V?$shared_ptr@VRawImageData@@@2@@std@@PAX@1@PBV?$_Tree_val@U?$_Tree_simple_types@U?$pair@$$CBV?$basic_string@DU?$char_traits@D@std@@V?$allocator@D@2@@std@@V?$shared_ptr@VRawImageData@@@2@@std@@@std@@@1@@Z 00407470 f i DraggingDemo.obj
 0001:000064a0       ??0?$_Tree_iterator@V?$_Tree_val@U?$_Tree_simple_types@U?$pair@$$CBV?$basic_string@DU?$char_traits@D@std@@V?$allocator@D@2@@std@@V?$weak_ptr@VRawImageData@@@2@@std@@@std@@@std@@@std@@QAE@$$QAV01@@Z 004074a0 f i DraggingDemo.obj
 0001:000064d0       ??0?$_Tree_iterator@V?$_Tree_val@U?$_Tree_simple_types@U?$pair@$$CBV?$basic_string@DU?$char_traits@D@std@@V?$allocator@D@2@@std@@V?$weak_ptr@VRawImageData@@@2@@std@@@std@@@std@@@std@@QAE@ABV01@@Z 004074d0 f i DraggingDemo.obj
 0001:00006500       ??0?$_Tree_iterator@V?$_Tree_val@U?$_Tree_simple_types@U?$pair@$$CBV?$basic_string@DU?$char_traits@D@std@@V?$allocator@D@2@@std@@V?$weak_ptr@VRawImageData@@@2@@std@@@std@@@std@@@std@@QAE@PAU?$_Tree_node@U?$pair@$$CBV?$basic_string@DU?$char_traits@D@std@@V?$allocator@D@2@@std@@V?$weak_ptr@VRawImageData@@@2@@std@@PAX@1@PBV?$_Tree_val@U?$_Tree_simple_types@U?$pair@$$CBV?$basic_string@DU?$char_traits@D@std@@V?$allocator@D@2@@std@@V?$weak_ptr@VRawImageData@@@2@@std@@@std@@@1@@Z 00407500 f i DraggingDemo.obj
 0001:00006530       ??0?$_Tree_temp_node_alloc@V?$allocator@U?$_Tree_node@U?$pair@$$CBV?$basic_string@DU?$char_traits@D@std@@V?$allocator@D@2@@std@@V?$shared_ptr@VRawImageData@@@2@@std@@PAX@std@@@std@@@std@@QAE@AAV?$allocator@U?$_Tree_node@U?$pair@$$CBV?$basic_string@DU?$char_traits@D@std@@V?$allocator@D@2@@std@@V?$shared_ptr@VRawImageData@@@2@@std@@PAX@std@@@1@@Z 00407530 f i DraggingDemo.obj
 0001:000065b0       ??0?$_Tree_temp_node_alloc@V?$allocator@U?$_Tree_node@U?$pair@$$CBV?$basic_string@DU?$char_traits@D@std@@V?$allocator@D@2@@std@@V?$weak_ptr@VRawImageData@@@2@@std@@PAX@std@@@std@@@std@@QAE@AAV?$allocator@U?$_Tree_node@U?$pair@$$CBV?$basic_string@DU?$char_traits@D@std@@V?$allocator@D@2@@std@@V?$weak_ptr@VRawImageData@@@2@@std@@PAX@std@@@1@@Z 004075b0 f i DraggingDemo.obj
 0001:00006630       ??0?$_Tree_unchecked_const_iterator@V?$_Tree_val@U?$_Tree_simple_types@U?$pair@$$CBV?$basic_string@DU?$char_traits@D@std@@V?$allocator@D@2@@std@@V?$shared_ptr@VRawImageData@@@2@@std@@@std@@@std@@U_Iterator_base12@2@@std@@QAE@$$QAV01@@Z 00407630 f i DraggingDemo.obj
 0001:00006670       ??0?$_Tree_unchecked_const_iterator@V?$_Tree_val@U?$_Tree_simple_types@U?$pair@$$CBV?$basic_string@DU?$char_traits@D@std@@V?$allocator@D@2@@std@@V?$shared_ptr@VRawImageData@@@2@@std@@@std@@@std@@U_Iterator_base12@2@@std@@QAE@PAU?$_Tree_node@U?$pair@$$CBV?$basic_string@DU?$char_traits@D@std@@V?$allocator@D@2@@std@@V?$shared_ptr@VRawImageData@@@2@@std@@PAX@1@PBV?$_Tree_val@U?$_Tree_simple_types@U?$pair@$$CBV?$basic_string@DU?$char_traits@D@std@@V?$allocator@D@2@@std@@V?$shared_ptr@VRawImageData@@@2@@std@@@std@@@1@@Z 00407670 f i DraggingDemo.obj
 0001:000066b0       ??0?$_Tree_unchecked_const_iterator@V?$_Tree_val@U?$_Tree_simple_types@U?$pair@$$CBV?$basic_string@DU?$char_traits@D@std@@V?$allocator@D@2@@std@@V?$weak_ptr@VRawImageData@@@2@@std@@@std@@@std@@U_Iterator_base0@2@@std@@QAE@PAU?$_Tree_node@U?$pair@$$CBV?$basic_string@DU?$char_traits@D@std@@V?$allocator@D@2@@std@@V?$weak_ptr@VRawImageData@@@2@@std@@PAX@1@PBV?$_Tree_val@U?$_Tree_simple_types@U?$pair@$$CBV?$basic_string@DU?$char_traits@D@std@@V?$allocator@D@2@@std@@V?$weak_ptr@VRawImageData@@@2@@std@@@std@@@1@@Z 004076b0 f i DraggingDemo.obj
 0001:000066e0       ??0?$_Tree_unchecked_const_iterator@V?$_Tree_val@U?$_Tree_simple_types@U?$pair@$$CBV?$basic_string@DU?$char_traits@D@std@@V?$allocator@D@2@@std@@V?$weak_ptr@VRawImageData@@@2@@std@@@std@@@std@@U_Iterator_base12@2@@std@@QAE@$$QAV01@@Z 004076e0 f i DraggingDemo.obj
 0001:00006720       ??0?$_Tree_unchecked_const_iterator@V?$_Tree_val@U?$_Tree_simple_types@U?$pair@$$CBV?$basic_string@DU?$char_traits@D@std@@V?$allocator@D@2@@std@@V?$weak_ptr@VRawImageData@@@2@@std@@@std@@@std@@U_Iterator_base12@2@@std@@QAE@ABV01@@Z 00407720 f i DraggingDemo.obj
 0001:00006760       ??0?$_Tree_unchecked_const_iterator@V?$_Tree_val@U?$_Tree_simple_types@U?$pair@$$CBV?$basic_string@DU?$char_traits@D@std@@V?$allocator@D@2@@std@@V?$weak_ptr@VRawImageData@@@2@@std@@@std@@@std@@U_Iterator_base12@2@@std@@QAE@PAU?$_Tree_node@U?$pair@$$CBV?$basic_string@DU?$char_traits@D@std@@V?$allocator@D@2@@std@@V?$weak_ptr@VRawImageData@@@2@@std@@PAX@1@PBV?$_Tree_val@U?$_Tree_simple_types@U?$pair@$$CBV?$basic_string@DU?$char_traits@D@std@@V?$allocator@D@2@@std@@V?$weak_ptr@VRawImageData@@@2@@std@@@std@@@1@@Z 00407760 f i DraggingDemo.obj
 0001:000067a0       ??0?$_Tree_unchecked_iterator@V?$_Tree_val@U?$_Tree_simple_types@U?$pair@$$CBV?$basic_string@DU?$char_traits@D@std@@V?$allocator@D@2@@std@@V?$weak_ptr@VRawImageData@@@2@@std@@@std@@@std@@@std@@QAE@PAU?$_Tree_node@U?$pair@$$CBV?$basic_string@DU?$char_traits@D@std@@V?$allocator@D@2@@std@@V?$weak_ptr@VRawImageData@@@2@@std@@PAX@1@PBV?$_Tree_val@U?$_Tree_simple_types@U?$pair@$$CBV?$basic_string@DU?$char_traits@D@std@@V?$allocator@D@2@@std@@V?$weak_ptr@VRawImageData@@@2@@std@@@std@@@1@@Z 004077a0 f i DraggingDemo.obj
 0001:000067d0       ??0?$_Tree_val@U?$_Tree_simple_types@U?$pair@$$CBV?$basic_string@DU?$char_traits@D@std@@V?$allocator@D@2@@std@@V?$shared_ptr@VRawImageData@@@2@@std@@@std@@@std@@QAE@XZ 004077d0 f i DraggingDemo.obj
 0001:00006810       ??0?$_Tree_val@U?$_Tree_simple_types@U?$pair@$$CBV?$basic_string@DU?$char_traits@D@std@@V?$allocator@D@2@@std@@V?$weak_ptr@VRawImageData@@@2@@std@@@std@@@std@@QAE@XZ 00407810 f i DraggingDemo.obj
 0001:00006850       ??0?$_Uninitialized_backout_al@V?$allocator@PAVDisplayableObject@@@std@@@std@@QAE@PAPAVDisplayableObject@@AAV?$allocator@PAVDisplayableObject@@@1@@Z 00407850 f i DraggingDemo.obj
 0001:00006890       ??0?$allocator@D@std@@QAE@XZ 00407890 f i DraggingDemo.obj
 0001:000068b0       ??0?$allocator@U?$_Tree_node@U?$pair@$$CBV?$basic_string@DU?$char_traits@D@std@@V?$allocator@D@2@@std@@V?$shared_ptr@VRawImageData@@@2@@std@@PAX@std@@@std@@QAE@XZ 004078b0 f i DraggingDemo.obj
 0001:000068d0       ??0?$allocator@U?$_Tree_node@U?$pair@$$CBV?$basic_string@DU?$char_traits@D@std@@V?$allocator@D@2@@std@@V?$weak_ptr@VRawImageData@@@2@@std@@PAX@std@@@std@@QAE@XZ 004078d0 f i DraggingDemo.obj
 0001:000068f0       ??0?$basic_string@DU?$char_traits@D@std@@V?$allocator@D@2@@std@@QAE@$$QAV01@@Z 004078f0 f i DraggingDemo.obj
 0001:000069a0       ??0?$basic_string@DU?$char_traits@D@std@@V?$allocator@D@2@@std@@QAE@ABV01@@Z 004079a0 f i DraggingDemo.obj
 0001:00006a90       ??0?$basic_string@DU?$char_traits@D@std@@V?$allocator@D@2@@std@@QAE@QBD@Z 00407a90 f i DraggingDemo.obj
 0001:00006b70       ??0?$map@V?$basic_string@DU?$char_traits@D@std@@V?$allocator@D@2@@std@@V?$shared_ptr@VRawImageData@@@2@U?$less@V?$basic_string@DU?$char_traits@D@std@@V?$allocator@D@2@@std@@@2@V?$allocator@U?$pair@$$CBV?$basic_string@DU?$char_traits@D@std@@V?$allocator@D@2@@std@@V?$shared_ptr@VRawImageData@@@2@@std@@@2@@std@@QAE@XZ 00407b70 f i DraggingDemo.obj
 0001:00006ba0       ??0?$map@V?$basic_string@DU?$char_traits@D@std@@V?$allocator@D@2@@std@@V?$weak_ptr@VRawImageData@@@2@U?$less@V?$basic_string@DU?$char_traits@D@std@@V?$allocator@D@2@@std@@@2@V?$allocator@U?$pair@$$CBV?$basic_string@DU?$char_traits@D@std@@V?$allocator@D@2@@std@@V?$weak_ptr@VRawImageData@@@2@@std@@@2@@std@@QAE@XZ 00407ba0 f i DraggingDemo.obj
 0001:00006bd0       ??0?$shared_ptr@VRawImageData@@@std@@QAE@$$QAV01@@Z 00407bd0 f i DraggingDemo.obj
 0001:00006c10       ??0?$shared_ptr@VRawImageData@@@std@@QAE@$$T@Z 00407c10 f i DraggingDemo.obj
 0001:00006c30       ??0?$shared_ptr@VRawImageData@@@std@@QAE@ABV01@@Z 00407c30 f i DraggingDemo.obj
 0001:00006c60       ??0?$shared_ptr@VRawImageData@@@std@@QAE@XZ 00407c60 f i DraggingDemo.obj
 0001:00006c80       ??0?$weak_ptr@VRawImageData@@@std@@QAE@$$QAV01@@Z 00407c80 f i DraggingDemo.obj
 0001:00006cc0       ??0?$weak_ptr@VRawImageData@@@std@@QAE@ABV01@@Z 00407cc0 f i DraggingDemo.obj
 0001:00006cf0       ??0DragableBaseClassObject@@QAE@HHPAVBaseEngine@@HH_N@Z 00407cf0 f i DraggingDemo.obj
 0001:00006d80       ??0DragableBaseClassObject@@QAE@PAVBaseEngine@@HH_N@Z 00407d80 f i DraggingDemo.obj
 0001:00006e00       ??0DragableImageObject@@QAE@HHPAVBaseEngine@@V?$basic_string@DU?$char_traits@D@std@@V?$allocator@D@2@@std@@_N2@Z 00407e00 f i DraggingDemo.obj
 0001:00006fa0       ??0DragableObject@@QAE@HHPAVBaseEngine@@HH_N1@Z 00407fa0 f i DraggingDemo.obj
 0001:00007050       ??0DragableObject@@QAE@PAVBaseEngine@@HH_N1@Z 00408050 f i DraggingDemo.obj
 0001:00007100       ??0ImageManager@@QAE@XZ    00408100 f i DraggingDemo.obj
 0001:00007170       ??0ImageObject@@QAE@HHPAVBaseEngine@@V?$basic_string@DU?$char_traits@D@std@@V?$allocator@D@2@@std@@_N2@Z 00408170 f i DraggingDemo.obj
 0001:00007300       ??0RawImageData@@QAE@V?$basic_string@DU?$char_traits@D@std@@V?$allocator@D@2@@std@@@Z 00408300 f i DraggingDemo.obj
 0001:000073b0       ??0_Basic_container_proxy_ptr12@std@@IAE@XZ 004083b0 f i DraggingDemo.obj
 0001:000073d0       ??0_Bxty@?$_String_val@U?$_Simple_types@D@std@@@std@@QAE@XZ 004083d0 f i DraggingDemo.obj
 0001:000073f0       ??0_Container_base12@std@@QAE@XZ 004083f0 f i DraggingDemo.obj
 0001:00007410       ??0_Container_proxy@std@@QAE@PAU_Container_base12@1@@Z 00408410 f i DraggingDemo.obj
 0001:00007440       ??0_Iterator_base12@std@@QAE@ABU01@@Z 00408440 f i DraggingDemo.obj
 0001:00007480       ??0_Iterator_base12@std@@QAE@XZ 00408480 f i DraggingDemo.obj
 0001:000074b0       ??0_Ref_count_base@std@@IAE@XZ 004084b0 f i DraggingDemo.obj
 0001:000074e0       ??0_Sentry_base@?$basic_ostream@DU?$char_traits@D@std@@@std@@QAE@AAV12@@Z 004084e0 f i DraggingDemo.obj
 0001:00007540       ??0bad_alloc@std@@AAE@QBD@Z 00408540 f i DraggingDemo.obj
 0001:00007570       ??0bad_alloc@std@@QAE@ABV01@@Z 00408570 f i DraggingDemo.obj
 0001:000075a0       ??0bad_array_new_length@std@@QAE@ABV01@@Z 004085a0 f i DraggingDemo.obj
 0001:000075d0       ??0bad_array_new_length@std@@QAE@XZ 004085d0 f i DraggingDemo.obj
 0001:00007600       ??0exception@std@@QAE@ABV01@@Z 00408600 f i DraggingDemo.obj
 0001:00007650       ??0exception@std@@QAE@QBDH@Z 00408650 f i DraggingDemo.obj
 0001:00007690       ??0sentry@?$basic_ostream@DU?$char_traits@D@std@@@std@@QAE@AAV12@@Z 00408690 f i DraggingDemo.obj
 0001:00007790       ??1?$_Alloc_construct_ptr@V?$allocator@U?$_Tree_node@U?$pair@$$CBV?$basic_string@DU?$char_traits@D@std@@V?$allocator@D@2@@std@@V?$shared_ptr@VRawImageData@@@2@@std@@PAX@std@@@std@@@std@@QAE@XZ 00408790 f i DraggingDemo.obj
 0001:00007800       ??1?$_Alloc_construct_ptr@V?$allocator@U?$_Tree_node@U?$pair@$$CBV?$basic_string@DU?$char_traits@D@std@@V?$allocator@D@2@@std@@V?$weak_ptr@VRawImageData@@@2@@std@@PAX@std@@@std@@@std@@QAE@XZ 00408800 f i DraggingDemo.obj
 0001:00007870       ??1?$_Compressed_pair@V?$allocator@D@std@@V?$_String_val@U?$_Simple_types@D@std@@@2@$00@std@@QAE@XZ 00408870 f i DraggingDemo.obj
 0001:00007890       ??1?$_Container_proxy_ptr12@V?$allocator@U_Container_proxy@std@@@std@@@std@@QAE@XZ 00408890 f i DraggingDemo.obj
 0001:000078d0       ??1?$_Ref_count@VRawImageData@@@std@@UAE@XZ 004088d0 f i DraggingDemo.obj
 0001:000078f0       ??1?$_String_val@U?$_Simple_types@D@std@@@std@@QAE@XZ 004088f0 f i DraggingDemo.obj
 0001:00007910       ??1?$_Temporary_owner@VRawImageData@@@std@@QAE@XZ 00408910 f i DraggingDemo.obj
 0001:00007950       ??1?$_Tree@V?$_Tmap_traits@V?$basic_string@DU?$char_traits@D@std@@V?$allocator@D@2@@std@@V?$weak_ptr@VRawImageData@@@2@U?$less@V?$basic_string@DU?$char_traits@D@std@@V?$allocator@D@2@@std@@@2@V?$allocator@U?$pair@$$CBV?$basic_string@DU?$char_traits@D@std@@V?$allocator@D@2@@std@@V?$weak_ptr@VRawImageData@@@2@@std@@@2@$0A@@std@@@std@@QAE@XZ 00408950 f i DraggingDemo.obj
 0001:000079c0       ??1?$_Tree_const_iterator@V?$_Tree_val@U?$_Tree_simple_types@U?$pair@$$CBV?$basic_string@DU?$char_traits@D@std@@V?$allocator@D@2@@std@@V?$shared_ptr@VRawImageData@@@2@@std@@@std@@@std@@@std@@QAE@XZ 004089c0 f i DraggingDemo.obj
 0001:000079e0       ??1?$_Tree_const_iterator@V?$_Tree_val@U?$_Tree_simple_types@U?$pair@$$CBV?$basic_string@DU?$char_traits@D@std@@V?$allocator@D@2@@std@@V?$weak_ptr@VRawImageData@@@2@@std@@@std@@@std@@@std@@QAE@XZ 004089e0 f i DraggingDemo.obj
 0001:00007a00       ??1?$_Tree_iterator@V?$_Tree_val@U?$_Tree_simple_types@U?$pair@$$CBV?$basic_string@DU?$char_traits@D@std@@V?$allocator@D@2@@std@@V?$shared_ptr@VRawImageData@@@2@@std@@@std@@@std@@@std@@QAE@XZ 00408a00 f i DraggingDemo.obj
 0001:00007a20       ??1?$_Tree_iterator@V?$_Tree_val@U?$_Tree_simple_types@U?$pair@$$CBV?$basic_string@DU?$char_traits@D@std@@V?$allocator@D@2@@std@@V?$weak_ptr@VRawImageData@@@2@@std@@@std@@@std@@@std@@QAE@XZ 00408a20 f i DraggingDemo.obj
 0001:00007a40       ??1?$_Tree_temp_node@V?$allocator@U?$_Tree_node@U?$pair@$$CBV?$basic_string@DU?$char_traits@D@std@@V?$allocator@D@2@@std@@V?$shared_ptr@VRawImageData@@@2@@std@@PAX@std@@@std@@@std@@QAE@XZ 00408a40 f i DraggingDemo.obj
 0001:00007b10       ??1?$_Tree_temp_node@V?$allocator@U?$_Tree_node@U?$pair@$$CBV?$basic_string@DU?$char_traits@D@std@@V?$allocator@D@2@@std@@V?$weak_ptr@VRawImageData@@@2@@std@@PAX@std@@@std@@@std@@QAE@XZ 00408b10 f i DraggingDemo.obj
 0001:00007be0       ??1?$_Tree_temp_node_alloc@V?$allocator@U?$_Tree_node@U?$pair@$$CBV?$basic_string@DU?$char_traits@D@std@@V?$allocator@D@2@@std@@V?$shared_ptr@VRawImageData@@@2@@std@@PAX@std@@@std@@@std@@QAE@XZ 00408be0 f i DraggingDemo.obj
 0001:00007c00       ??1?$_Tree_temp_node_alloc@V?$allocator@U?$_Tree_node@U?$pair@$$CBV?$basic_string@DU?$char_traits@D@std@@V?$allocator@D@2@@std@@V?$weak_ptr@VRawImageData@@@2@@std@@PAX@std@@@std@@@std@@QAE@XZ 00408c00 f i DraggingDemo.obj
 0001:00007c20       ??1?$_Tree_unchecked_const_iterator@V?$_Tree_val@U?$_Tree_simple_types@U?$pair@$$CBV?$basic_string@DU?$char_traits@D@std@@V?$allocator@D@2@@std@@V?$shared_ptr@VRawImageData@@@2@@std@@@std@@@std@@U_Iterator_base12@2@@std@@QAE@XZ 00408c20 f i DraggingDemo.obj
 0001:00007c40       ??1?$_Tree_unchecked_const_iterator@V?$_Tree_val@U?$_Tree_simple_types@U?$pair@$$CBV?$basic_string@DU?$char_traits@D@std@@V?$allocator@D@2@@std@@V?$weak_ptr@VRawImageData@@@2@@std@@@std@@@std@@U_Iterator_base12@2@@std@@QAE@XZ 00408c40 f i DraggingDemo.obj
 0001:00007c60       ??1?$_Uninitialized_backout_al@V?$allocator@PAVDisplayableObject@@@std@@@std@@QAE@XZ 00408c60 f i DraggingDemo.obj
 0001:00007c90       ??1?$basic_string@DU?$char_traits@D@std@@V?$allocator@D@2@@std@@QAE@XZ 00408c90 f i DraggingDemo.obj
 0001:00007d00       ??1?$map@V?$basic_string@DU?$char_traits@D@std@@V?$allocator@D@2@@std@@V?$weak_ptr@VRawImageData@@@2@U?$less@V?$basic_string@DU?$char_traits@D@std@@V?$allocator@D@2@@std@@@2@V?$allocator@U?$pair@$$CBV?$basic_string@DU?$char_traits@D@std@@V?$allocator@D@2@@std@@V?$weak_ptr@VRawImageData@@@2@@std@@@2@@std@@QAE@XZ 00408d00 f i DraggingDemo.obj
 0001:00007d20       ??1?$pair@$$CBV?$basic_string@DU?$char_traits@D@std@@V?$allocator@D@2@@std@@V?$shared_ptr@VRawImageData@@@2@@std@@QAE@XZ 00408d20 f i DraggingDemo.obj
 0001:00007d50       ??1?$pair@$$CBV?$basic_string@DU?$char_traits@D@std@@V?$allocator@D@2@@std@@V?$weak_ptr@VRawImageData@@@2@@std@@QAE@XZ 00408d50 f i DraggingDemo.obj
 0001:00007d80       ??1?$pair@V?$_Tree_iterator@V?$_Tree_val@U?$_Tree_simple_types@U?$pair@$$CBV?$basic_string@DU?$char_traits@D@std@@V?$allocator@D@2@@std@@V?$shared_ptr@VRawImageData@@@2@@std@@@std@@@std@@@std@@_N@std@@QAE@XZ 00408d80 f i DraggingDemo.obj
 0001:00007da0       ??1?$pair@V?$_Tree_iterator@V?$_Tree_val@U?$_Tree_simple_types@U?$pair@$$CBV?$basic_string@DU?$char_traits@D@std@@V?$allocator@D@2@@std@@V?$weak_ptr@VRawImageData@@@2@@std@@@std@@@std@@@std@@_N@std@@QAE@XZ 00408da0 f i DraggingDemo.obj
 0001:00007dc0       ??1?$pair@V?$basic_string@DU?$char_traits@D@std@@V?$allocator@D@2@@std@@V?$shared_ptr@VRawImageData@@@2@@std@@QAE@XZ 00408dc0 f i DraggingDemo.obj
 0001:00007df0       ??1?$pair@V?$basic_string@DU?$char_traits@D@std@@V?$allocator@D@2@@std@@V?$weak_ptr@VRawImageData@@@2@@std@@QAE@XZ 00408df0 f i DraggingDemo.obj
 0001:00007e20       ??1?$shared_ptr@VRawImageData@@@std@@QAE@XZ 00408e20 f i DraggingDemo.obj
 0001:00007e40       ??1?$weak_ptr@VRawImageData@@@std@@QAE@XZ 00408e40 f i DraggingDemo.obj
 0001:00007e60       ??1DragableBaseClassObject@@UAE@XZ 00408e60 f i DraggingDemo.obj
 0001:00007e80       ??1DragableImageObject@@UAE@XZ 00408e80 f i DraggingDemo.obj
 0001:00007eb0       ??1DragableObject@@UAE@XZ  00408eb0 f i DraggingDemo.obj
 0001:00007ed0       ??1ImageObject@@UAE@XZ     00408ed0 f i DraggingDemo.obj
 0001:00007f00       ??1RawImageData@@QAE@XZ    00408f00 f i DraggingDemo.obj
 0001:00007f60       ??1SimpleImage@@QAE@XZ     00408f60 f i DraggingDemo.obj
 0001:00007fb0       ??1_Bxty@?$_String_val@U?$_Simple_types@D@std@@@std@@QAE@XZ 00408fb0 f i DraggingDemo.obj
 0001:00007fc0       ??1_Iterator_base12@std@@QAE@XZ 00408fc0 f i DraggingDemo.obj
 0001:00007fe0       ??1_Ref_count_base@std@@UAE@XZ 00408fe0 f i DraggingDemo.obj
 0001:00007ff0       ??1_Sentry_base@?$basic_ostream@DU?$char_traits@D@std@@@std@@QAE@XZ 00408ff0 f i DraggingDemo.obj
 0001:00008080       ??1bad_alloc@std@@UAE@XZ   00409080 f i DraggingDemo.obj
 0001:000080a0       ??1bad_array_new_length@std@@UAE@XZ 004090a0 f i DraggingDemo.obj
 0001:000080c0       ??1exception@std@@UAE@XZ   004090c0 f i DraggingDemo.obj
 0001:000080f0       ??1sentry@?$basic_ostream@DU?$char_traits@D@std@@@std@@QAE@XZ 004090f0 f i DraggingDemo.obj
 0001:00008180       ??2@YAPAXIPAX@Z            00409180 f i DraggingDemo.obj
 0001:00008190       ??4_Iterator_base12@std@@QAEAAU01@ABU01@@Z 00409190 f i DraggingDemo.obj
 0001:000081c0       ??8?$_Tree_const_iterator@V?$_Tree_val@U?$_Tree_simple_types@U?$pair@$$CBV?$basic_string@DU?$char_traits@D@std@@V?$allocator@D@2@@std@@V?$weak_ptr@VRawImageData@@@2@@std@@@std@@@std@@@std@@QBE_NABV01@@Z 004091c0 f i DraggingDemo.obj
 0001:00008280       ??9?$_Tree_const_iterator@V?$_Tree_val@U?$_Tree_simple_types@U?$pair@$$CBV?$basic_string@DU?$char_traits@D@std@@V?$allocator@D@2@@std@@V?$weak_ptr@VRawImageData@@@2@@std@@@std@@@std@@@std@@QBE_NABV01@@Z 00409280 f i DraggingDemo.obj
 0001:000082d0       ??A?$vector@PAVDisplayableObject@@V?$allocator@PAVDisplayableObject@@@std@@@std@@QAEAAPAVDisplayableObject@@I@Z 004092d0 f i DraggingDemo.obj
 0001:00008380       ??Bsentry@?$basic_ostream@DU?$char_traits@D@std@@@std@@QBE_NXZ 00409380 f i DraggingDemo.obj
 0001:000083a0       ??C?$_Tree_iterator@V?$_Tree_val@U?$_Tree_simple_types@U?$pair@$$CBV?$basic_string@DU?$char_traits@D@std@@V?$allocator@D@2@@std@@V?$weak_ptr@VRawImageData@@@2@@std@@@std@@@std@@@std@@QBEPAU?$pair@$$CBV?$basic_string@DU?$char_traits@D@std@@V?$allocator@D@2@@std@@V?$weak_ptr@VRawImageData@@@2@@1@XZ 004093a0 f i DraggingDemo.obj
 0001:000083d0       ??D?$_Tree_const_iterator@V?$_Tree_val@U?$_Tree_simple_types@U?$pair@$$CBV?$basic_string@DU?$char_traits@D@std@@V?$allocator@D@2@@std@@V?$weak_ptr@VRawImageData@@@2@@std@@@std@@@std@@@std@@QBEABU?$pair@$$CBV?$basic_string@DU?$char_traits@D@std@@V?$allocator@D@2@@std@@V?$weak_ptr@VRawImageData@@@2@@1@XZ 004093d0 f i DraggingDemo.obj
 0001:000084e0       ??D?$_Tree_iterator@V?$_Tree_val@U?$_Tree_simple_types@U?$pair@$$CBV?$basic_string@DU?$char_traits@D@std@@V?$allocator@D@2@@std@@V?$weak_ptr@VRawImageData@@@2@@std@@@std@@@std@@@std@@QBEAAU?$pair@$$CBV?$basic_string@DU?$char_traits@D@std@@V?$allocator@D@2@@std@@V?$weak_ptr@VRawImageData@@@2@@1@XZ 004094e0 f i DraggingDemo.obj
 0001:00008500       ??E?$_Tree_unchecked_const_iterator@V?$_Tree_val@U?$_Tree_simple_types@U?$pair@$$CBV?$basic_string@DU?$char_traits@D@std@@V?$allocator@D@2@@std@@V?$weak_ptr@VRawImageData@@@2@@std@@@std@@@std@@U_Iterator_base0@2@@std@@QAEAAV01@XZ 00409500 f i DraggingDemo.obj
 0001:00008590       ??R<lambda_9366063389c5f42a00a5088cf24e69de>@@QBE@QADIQBD@Z 00409590 f i DraggingDemo.obj
 0001:000085e0       ??R?$less@V?$basic_string@DU?$char_traits@D@std@@V?$allocator@D@2@@std@@@std@@QBE_NABV?$basic_string@DU?$char_traits@D@std@@V?$allocator@D@2@@1@0@Z 004095e0 f i DraggingDemo.obj
 0001:00008610       ??_E?$_Ref_count@VRawImageData@@@std@@UAEPAXI@Z 00409610 f i DraggingDemo.obj
 0001:00008610       ??_G?$_Ref_count@VRawImageData@@@std@@UAEPAXI@Z 00409610 f i DraggingDemo.obj
 0001:00008650       ??_G?$pair@$$CBV?$basic_string@DU?$char_traits@D@std@@V?$allocator@D@2@@std@@V?$shared_ptr@VRawImageData@@@2@@std@@QAEPAXI@Z 00409650 f i DraggingDemo.obj
 0001:00008690       ??_G?$pair@$$CBV?$basic_string@DU?$char_traits@D@std@@V?$allocator@D@2@@std@@V?$weak_ptr@VRawImageData@@@2@@std@@QAEPAXI@Z 00409690 f i DraggingDemo.obj
 0001:000086d0       ??_EDragableBaseClassObject@@UAEPAXI@Z 004096d0 f i DraggingDemo.obj
 0001:000086d0       ??_GDragableBaseClassObject@@UAEPAXI@Z 004096d0 f i DraggingDemo.obj
 0001:00008710       ??_EDragableImageObject@@UAEPAXI@Z 00409710 f i DraggingDemo.obj
 0001:00008710       ??_GDragableImageObject@@UAEPAXI@Z 00409710 f i DraggingDemo.obj
 0001:00008750       ??_EDragableObject@@UAEPAXI@Z 00409750 f i DraggingDemo.obj
 0001:00008750       ??_GDragableObject@@UAEPAXI@Z 00409750 f i DraggingDemo.obj
 0001:00008790       ??_EImageObject@@UAEPAXI@Z 00409790 f i DraggingDemo.obj
 0001:00008790       ??_GImageObject@@UAEPAXI@Z 00409790 f i DraggingDemo.obj
 0001:000087d0       ??_GRawImageData@@QAEPAXI@Z 004097d0 f i DraggingDemo.obj
 0001:00008810       ??_Ebad_alloc@std@@UAEPAXI@Z 00409810 f i DraggingDemo.obj
 0001:00008810       ??_Gbad_alloc@std@@UAEPAXI@Z 00409810 f i DraggingDemo.obj
 0001:00008850       ??_Ebad_array_new_length@std@@UAEPAXI@Z 00409850 f i DraggingDemo.obj
 0001:00008850       ??_Gbad_array_new_length@std@@UAEPAXI@Z 00409850 f i DraggingDemo.obj
 0001:00008890       ??_Gexception@std@@UAEPAXI@Z 00409890 f i DraggingDemo.obj
 0001:00008890       ??_Eexception@std@@UAEPAXI@Z 00409890 f i DraggingDemo.obj
 0001:000088d0       ?_Adjust_manually_vector_aligned@std@@YAXAAPAXAAI@Z 004098d0 f i DraggingDemo.obj
 0001:00008a20       ?_Adopt@_Iterator_base0@std@@QAEXPBX@Z 00409a20 f i DraggingDemo.obj
 0001:00008a30       ?_Adopt@_Iterator_base12@std@@QAEXPBU_Container_base12@2@@Z 00409a30 f i DraggingDemo.obj
 0001:00008a50       ?_Adopt_locked@_Iterator_base12@std@@AAEXPBU_Container_base12@2@@Z 00409a50 f i DraggingDemo.obj
 0001:00008a90       ?_Adopt_unlocked@_Iterator_base12@std@@AAEXPBU_Container_base12@2@@Z 00409a90 f i DraggingDemo.obj
 0001:00008b10       ?_Alloc_sentinel_and_proxy@?$_Tree@V?$_Tmap_traits@V?$basic_string@DU?$char_traits@D@std@@V?$allocator@D@2@@std@@V?$shared_ptr@VRawImageData@@@2@U?$less@V?$basic_string@DU?$char_traits@D@std@@V?$allocator@D@2@@std@@@2@V?$allocator@U?$pair@$$CBV?$basic_string@DU?$char_traits@D@std@@V?$allocator@D@2@@std@@V?$shared_ptr@VRawImageData@@@2@@std@@@2@$0A@@std@@@std@@IAEXXZ 00409b10 f i DraggingDemo.obj
 0001:00008be0       ?_Alloc_sentinel_and_proxy@?$_Tree@V?$_Tmap_traits@V?$basic_string@DU?$char_traits@D@std@@V?$allocator@D@2@@std@@V?$weak_ptr@VRawImageData@@@2@U?$less@V?$basic_string@DU?$char_traits@D@std@@V?$allocator@D@2@@std@@@2@V?$allocator@U?$pair@$$CBV?$basic_string@DU?$char_traits@D@std@@V?$allocator@D@2@@std@@V?$weak_ptr@VRawImageData@@@2@@std@@@2@$0A@@std@@@std@@IAEXXZ 00409be0 f i DraggingDemo.obj
 0001:00008cb0       ?_Allocate@?$_Alloc_construct_ptr@V?$allocator@U?$_Tree_node@U?$pair@$$CBV?$basic_string@DU?$char_traits@D@std@@V?$allocator@D@2@@std@@V?$shared_ptr@VRawImageData@@@2@@std@@PAX@std@@@std@@@std@@QAEXXZ 00409cb0 f i DraggingDemo.obj
 0001:00008ce0       ?_Allocate@?$_Alloc_construct_ptr@V?$allocator@U?$_Tree_node@U?$pair@$$CBV?$basic_string@DU?$char_traits@D@std@@V?$allocator@D@2@@std@@V?$weak_ptr@VRawImageData@@@2@@std@@PAX@std@@@std@@@std@@QAEXXZ 00409ce0 f i DraggingDemo.obj
 0001:00008d10       ?_Allocate@_Default_allocate_traits@std@@SAPAXI@Z 00409d10 f i DraggingDemo.obj
 0001:00008d30       ?_Assign_locked@_Iterator_base12@std@@AAEXABU12@@Z 00409d30 f i DraggingDemo.obj
 0001:00008d70       ?_Assign_unlocked@_Iterator_base12@std@@AAEXABU12@@Z 00409d70 f i DraggingDemo.obj
 0001:00008dc0       ?_Calculate_growth@?$basic_string@DU?$char_traits@D@std@@V?$allocator@D@2@@std@@ABEII@Z 00409dc0 f i DraggingDemo.obj
 0001:00008e00       ?_Calculate_growth@?$basic_string@DU?$char_traits@D@std@@V?$allocator@D@2@@std@@CAIIII@Z 00409e00 f i DraggingDemo.obj
 0001:00008e70       ?_Calculate_growth@?$vector@PAVDisplayableObject@@V?$allocator@PAVDisplayableObject@@@std@@@std@@ABEII@Z 00409e70 f i DraggingDemo.obj
 0001:00008ee0       ?_Change_array@?$vector@PAVDisplayableObject@@V?$allocator@PAVDisplayableObject@@@std@@@std@@AAEXQAPAVDisplayableObject@@II@Z 00409ee0 f i DraggingDemo.obj
 0001:00008fb0       ?_Check_grow_by_1@?$_Tree@V?$_Tmap_traits@V?$basic_string@DU?$char_traits@D@std@@V?$allocator@D@2@@std@@V?$shared_ptr@VRawImageData@@@2@U?$less@V?$basic_string@DU?$char_traits@D@std@@V?$allocator@D@2@@std@@@2@V?$allocator@U?$pair@$$CBV?$basic_string@DU?$char_traits@D@std@@V?$allocator@D@2@@std@@V?$shared_ptr@VRawImageData@@@2@@std@@@2@$0A@@std@@@std@@IAEXXZ 00409fb0 f i DraggingDemo.obj
 0001:00008ff0       ?_Check_grow_by_1@?$_Tree@V?$_Tmap_traits@V?$basic_string@DU?$char_traits@D@std@@V?$allocator@D@2@@std@@V?$weak_ptr@VRawImageData@@@2@U?$less@V?$basic_string@DU?$char_traits@D@std@@V?$allocator@D@2@@std@@@2@V?$allocator@U?$pair@$$CBV?$basic_string@DU?$char_traits@D@std@@V?$allocator@D@2@@std@@V?$weak_ptr@VRawImageData@@@2@@std@@@2@$0A@@std@@@std@@IAEXXZ 00409ff0 f i DraggingDemo.obj
 0001:00009030       ?_Construct_lv_contents@?$basic_string@DU?$char_traits@D@std@@V?$allocator@D@2@@std@@AAEXABV12@@Z 0040a030 f i DraggingDemo.obj
 0001:00009180       ?_Decref@?$_Ptr_base@VRawImageData@@@std@@IAEXXZ 0040a180 f i DraggingDemo.obj
 0001:000091b0       ?_Decref@_Ref_count_base@std@@QAEXXZ 0040a1b0 f i DraggingDemo.obj
 0001:000091f0       ?_Decwref@?$_Ptr_base@VRawImageData@@@std@@IAEXXZ 0040a1f0 f i DraggingDemo.obj
 0001:00009220       ?_Decwref@_Ref_count_base@std@@QAEXXZ 0040a220 f i DraggingDemo.obj
 0001:00009260       ?_Delete_this@?$_Ref_count@VRawImageData@@@std@@EAEXXZ 0040a260 f i DraggingDemo.obj
 0001:000092b0       ?_Destroy@?$_Ref_count@VRawImageData@@@std@@EAEXXZ 0040a2b0 f i DraggingDemo.obj
 0001:000092f0       ?_Destroy@?$vector@PAVDisplayableObject@@V?$allocator@PAVDisplayableObject@@@std@@@std@@AAEXPAPAVDisplayableObject@@0@Z 0040a2f0 f i DraggingDemo.obj
 0001:00009320       ?_Erase_unchecked@?$_Tree@V?$_Tmap_traits@V?$basic_string@DU?$char_traits@D@std@@V?$allocator@D@2@@std@@V?$weak_ptr@VRawImageData@@@2@U?$less@V?$basic_string@DU?$char_traits@D@std@@V?$allocator@D@2@@std@@@2@V?$allocator@U?$pair@$$CBV?$basic_string@DU?$char_traits@D@std@@V?$allocator@D@2@@std@@V?$weak_ptr@VRawImageData@@@2@@std@@@2@$0A@@std@@@std@@AAEPAU?$_Tree_node@U?$pair@$$CBV?$basic_string@DU?$char_traits@D@std@@V?$allocator@D@2@@std@@V?$weak_ptr@VRawImageData@@@2@@std@@PAX@2@V?$_Tree_unchecked_const_iterator@V?$_Tree_val@U?$_Tree_simple_types@U?$pair@$$CBV?$basic_string@DU?$char_traits@D@std@@V?$allocator@D@2@@std@@V?$weak_ptr@VRawImageData@@@2@@std@@@std@@@std@@U_Iterator_base0@2@@2@@Z 0040a320 f i DraggingDemo.obj
 0001:000093a0       ?_Extract@?$_In_place_key_extract_map@V?$basic_string@DU?$char_traits@D@std@@V?$allocator@D@2@@std@@U?$pair@V?$basic_string@DU?$char_traits@D@std@@V?$allocator@D@2@@std@@V?$shared_ptr@VRawImageData@@@2@@2@@std@@SAABV?$basic_string@DU?$char_traits@D@std@@V?$allocator@D@2@@2@ABU?$pair@V?$basic_string@DU?$char_traits@D@std@@V?$allocator@D@2@@std@@V?$shared_ptr@VRawImageData@@@2@@2@@Z 0040a3a0 f i DraggingDemo.obj
 0001:000093b0       ?_Extract@?$_In_place_key_extract_map@V?$basic_string@DU?$char_traits@D@std@@V?$allocator@D@2@@std@@U?$pair@V?$basic_string@DU?$char_traits@D@std@@V?$allocator@D@2@@std@@V?$weak_ptr@VRawImageData@@@2@@2@@std@@SAABV?$basic_string@DU?$char_traits@D@std@@V?$allocator@D@2@@2@ABU?$pair@V?$basic_string@DU?$char_traits@D@std@@V?$allocator@D@2@@std@@V?$weak_ptr@VRawImageData@@@2@@2@@Z 0040a3b0 f i DraggingDemo.obj
 0001:000093c0       ?_Extract@?$_Tree_val@U?$_Tree_simple_types@U?$pair@$$CBV?$basic_string@DU?$char_traits@D@std@@V?$allocator@D@2@@std@@V?$weak_ptr@VRawImageData@@@2@@std@@@std@@@std@@QAEPAU?$_Tree_node@U?$pair@$$CBV?$basic_string@DU?$char_traits@D@std@@V?$allocator@D@2@@std@@V?$weak_ptr@VRawImageData@@@2@@std@@PAX@2@V?$_Tree_unchecked_const_iterator@V?$_Tree_val@U?$_Tree_simple_types@U?$pair@$$CBV?$basic_string@DU?$char_traits@D@std@@V?$allocator@D@2@@std@@V?$weak_ptr@VRawImageData@@@2@@std@@@std@@@std@@U_Iterator_base0@2@@2@@Z 0040a3c0 f i DraggingDemo.obj
 0001:000097f0       ?setAllObjectsVisible@DisplayableObjectContainer@@QBEX_N@Z 0040a7f0 f i Psyjl16Engine.obj
 0001:00009900       ?_Get_deleter@_Ref_count_base@std@@UBEPAXABVtype_info@@@Z 0040a900 f i DraggingDemo.obj
 0001:00009920       ?_Get_first@?$_Compressed_pair@U?$less@V?$basic_string@DU?$char_traits@D@std@@V?$allocator@D@2@@std@@@std@@V?$_Compressed_pair@V?$allocator@U?$_Tree_node@U?$pair@$$CBV?$basic_string@DU?$char_traits@D@std@@V?$allocator@D@2@@std@@V?$shared_ptr@VRawImageData@@@2@@std@@PAX@std@@@std@@V?$_Tree_val@U?$_Tree_simple_types@U?$pair@$$CBV?$basic_string@DU?$char_traits@D@std@@V?$allocator@D@2@@std@@V?$shared_ptr@VRawImageData@@@2@@std@@@std@@@2@$00@2@$00@std@@QBEABU?$less@V?$basic_string@DU?$char_traits@D@std@@V?$allocator@D@2@@std@@@2@XZ 0040a920 f i DraggingDemo.obj
 0001:00009940       ?_Get_first@?$_Compressed_pair@U?$less@V?$basic_string@DU?$char_traits@D@std@@V?$allocator@D@2@@std@@@std@@V?$_Compressed_pair@V?$allocator@U?$_Tree_node@U?$pair@$$CBV?$basic_string@DU?$char_traits@D@std@@V?$allocator@D@2@@std@@V?$weak_ptr@VRawImageData@@@2@@std@@PAX@std@@@std@@V?$_Tree_val@U?$_Tree_simple_types@U?$pair@$$CBV?$basic_string@DU?$char_traits@D@std@@V?$allocator@D@2@@std@@V?$weak_ptr@VRawImageData@@@2@@std@@@std@@@2@$00@2@$00@std@@QBEABU?$less@V?$basic_string@DU?$char_traits@D@std@@V?$allocator@D@2@@std@@@2@XZ 0040a940 f i DraggingDemo.obj
 0001:00009960       ?_Get_first@?$_Compressed_pair@V?$allocator@D@std@@V?$_String_val@U?$_Simple_types@D@std@@@2@$00@std@@QAEAAV?$allocator@D@2@XZ 0040a960 f i DraggingDemo.obj
 0001:00009980       ?_Get_first@?$_Compressed_pair@V?$allocator@D@std@@V?$_String_val@U?$_Simple_types@D@std@@@2@$00@std@@QBEABV?$allocator@D@2@XZ 0040a980 f i DraggingDemo.obj
 0001:000099a0       ?_Get_first@?$_Compressed_pair@V?$allocator@PAVDisplayableObject@@@std@@V?$_Vector_val@U?$_Simple_types@PAVDisplayableObject@@@std@@@2@$00@std@@QAEAAV?$allocator@PAVDisplayableObject@@@2@XZ 0040a9a0 f i DraggingDemo.obj
 0001:000099c0       ?_Get_first@?$_Compressed_pair@V?$allocator@PAVDisplayableObject@@@std@@V?$_Vector_val@U?$_Simple_types@PAVDisplayableObject@@@std@@@2@$00@std@@QBEABV?$allocator@PAVDisplayableObject@@@2@XZ 0040a9c0 f i DraggingDemo.obj
 0001:000099e0       ?_Get_first@?$_Compressed_pair@V?$allocator@U?$_Tree_node@U?$pair@$$CBV?$basic_string@DU?$char_traits@D@std@@V?$allocator@D@2@@std@@V?$shared_ptr@VRawImageData@@@2@@std@@PAX@std@@@std@@V?$_Tree_val@U?$_Tree_simple_types@U?$pair@$$CBV?$basic_string@DU?$char_traits@D@std@@V?$allocator@D@2@@std@@V?$shared_ptr@VRawImageData@@@2@@std@@@std@@@2@$00@std@@QAEAAV?$allocator@U?$_Tree_node@U?$pair@$$CBV?$basic_string@DU?$char_traits@D@std@@V?$allocator@D@2@@std@@V?$shared_ptr@VRawImageData@@@2@@std@@PAX@std@@@2@XZ 0040a9e0 f i DraggingDemo.obj
 0001:00009a00       ?_Get_first@?$_Compressed_pair@V?$allocator@U?$_Tree_node@U?$pair@$$CBV?$basic_string@DU?$char_traits@D@std@@V?$allocator@D@2@@std@@V?$shared_ptr@VRawImageData@@@2@@std@@PAX@std@@@std@@V?$_Tree_val@U?$_Tree_simple_types@U?$pair@$$CBV?$basic_string@DU?$char_traits@D@std@@V?$allocator@D@2@@std@@V?$shared_ptr@VRawImageData@@@2@@std@@@std@@@2@$00@std@@QBEABV?$allocator@U?$_Tree_node@U?$pair@$$CBV?$basic_string@DU?$char_traits@D@std@@V?$allocator@D@2@@std@@V?$shared_ptr@VRawImageData@@@2@@std@@PAX@std@@@2@XZ 0040aa00 f i DraggingDemo.obj
 0001:00009a20       ?_Get_first@?$_Compressed_pair@V?$allocator@U?$_Tree_node@U?$pair@$$CBV?$basic_string@DU?$char_traits@D@std@@V?$allocator@D@2@@std@@V?$weak_ptr@VRawImageData@@@2@@std@@PAX@std@@@std@@V?$_Tree_val@U?$_Tree_simple_types@U?$pair@$$CBV?$basic_string@DU?$char_traits@D@std@@V?$allocator@D@2@@std@@V?$weak_ptr@VRawImageData@@@2@@std@@@std@@@2@$00@std@@QAEAAV?$allocator@U?$_Tree_node@U?$pair@$$CBV?$basic_string@DU?$char_traits@D@std@@V?$allocator@D@2@@std@@V?$weak_ptr@VRawImageData@@@2@@std@@PAX@std@@@2@XZ 0040aa20 f i DraggingDemo.obj
 0001:00009a40       ?_Get_first@?$_Compressed_pair@V?$allocator@U?$_Tree_node@U?$pair@$$CBV?$basic_string@DU?$char_traits@D@std@@V?$allocator@D@2@@std@@V?$weak_ptr@VRawImageData@@@2@@std@@PAX@std@@@std@@V?$_Tree_val@U?$_Tree_simple_types@U?$pair@$$CBV?$basic_string@DU?$char_traits@D@std@@V?$allocator@D@2@@std@@V?$weak_ptr@VRawImageData@@@2@@std@@@std@@@2@$00@std@@QBEABV?$allocator@U?$_Tree_node@U?$pair@$$CBV?$basic_string@DU?$char_traits@D@std@@V?$allocator@D@2@@std@@V?$weak_ptr@VRawImageData@@@2@@std@@PAX@std@@@2@XZ 0040aa40 f i DraggingDemo.obj
 0001:00009a60       ?_Get_scary@?$_Tree@V?$_Tmap_traits@V?$basic_string@DU?$char_traits@D@std@@V?$allocator@D@2@@std@@V?$shared_ptr@VRawImageData@@@2@U?$less@V?$basic_string@DU?$char_traits@D@std@@V?$allocator@D@2@@std@@@2@V?$allocator@U?$pair@$$CBV?$basic_string@DU?$char_traits@D@std@@V?$allocator@D@2@@std@@V?$shared_ptr@VRawImageData@@@2@@std@@@2@$0A@@std@@@std@@IAEPAV?$_Tree_val@U?$_Tree_simple_types@U?$pair@$$CBV?$basic_string@DU?$char_traits@D@std@@V?$allocator@D@2@@std@@V?$shared_ptr@VRawImageData@@@2@@std@@@std@@@2@XZ 0040aa60 f i DraggingDemo.obj
 0001:00009a80       ?_Get_scary@?$_Tree@V?$_Tmap_traits@V?$basic_string@DU?$char_traits@D@std@@V?$allocator@D@2@@std@@V?$shared_ptr@VRawImageData@@@2@U?$less@V?$basic_string@DU?$char_traits@D@std@@V?$allocator@D@2@@std@@@2@V?$allocator@U?$pair@$$CBV?$basic_string@DU?$char_traits@D@std@@V?$allocator@D@2@@std@@V?$shared_ptr@VRawImageData@@@2@@std@@@2@$0A@@std@@@std@@IBEPBV?$_Tree_val@U?$_Tree_simple_types@U?$pair@$$CBV?$basic_string@DU?$char_traits@D@std@@V?$allocator@D@2@@std@@V?$shared_ptr@VRawImageData@@@2@@std@@@std@@@2@XZ 0040aa80 f i DraggingDemo.obj
 0001:00009aa0       ?_Get_scary@?$_Tree@V?$_Tmap_traits@V?$basic_string@DU?$char_traits@D@std@@V?$allocator@D@2@@std@@V?$weak_ptr@VRawImageData@@@2@U?$less@V?$basic_string@DU?$char_traits@D@std@@V?$allocator@D@2@@std@@@2@V?$allocator@U?$pair@$$CBV?$basic_string@DU?$char_traits@D@std@@V?$allocator@D@2@@std@@V?$weak_ptr@VRawImageData@@@2@@std@@@2@$0A@@std@@@std@@IAEPAV?$_Tree_val@U?$_Tree_simple_types@U?$pair@$$CBV?$basic_string@DU?$char_traits@D@std@@V?$allocator@D@2@@std@@V?$weak_ptr@VRawImageData@@@2@@std@@@std@@@2@XZ 0040aaa0 f i DraggingDemo.obj
 0001:00009ac0       ?_Get_scary@?$_Tree@V?$_Tmap_traits@V?$basic_string@DU?$char_traits@D@std@@V?$allocator@D@2@@std@@V?$weak_ptr@VRawImageData@@@2@U?$less@V?$basic_string@DU?$char_traits@D@std@@V?$allocator@D@2@@std@@@2@V?$allocator@U?$pair@$$CBV?$basic_string@DU?$char_traits@D@std@@V?$allocator@D@2@@std@@V?$weak_ptr@VRawImageData@@@2@@std@@@2@$0A@@std@@@std@@IBEPBV?$_Tree_val@U?$_Tree_simple_types@U?$pair@$$CBV?$basic_string@DU?$char_traits@D@std@@V?$allocator@D@2@@std@@V?$weak_ptr@VRawImageData@@@2@@std@@@std@@@2@XZ 0040aac0 f i DraggingDemo.obj
 0001:00009ae0       ?_Getal@?$_Tree@V?$_Tmap_traits@V?$basic_string@DU?$char_traits@D@std@@V?$allocator@D@2@@std@@V?$shared_ptr@VRawImageData@@@2@U?$less@V?$basic_string@DU?$char_traits@D@std@@V?$allocator@D@2@@std@@@2@V?$allocator@U?$pair@$$CBV?$basic_string@DU?$char_traits@D@std@@V?$allocator@D@2@@std@@V?$shared_ptr@VRawImageData@@@2@@std@@@2@$0A@@std@@@std@@IAEAAV?$allocator@U?$_Tree_node@U?$pair@$$CBV?$basic_string@DU?$char_traits@D@std@@V?$allocator@D@2@@std@@V?$shared_ptr@VRawImageData@@@2@@std@@PAX@std@@@2@XZ 0040aae0 f i DraggingDemo.obj
 0001:00009b00       ?_Getal@?$_Tree@V?$_Tmap_traits@V?$basic_string@DU?$char_traits@D@std@@V?$allocator@D@2@@std@@V?$shared_ptr@VRawImageData@@@2@U?$less@V?$basic_string@DU?$char_traits@D@std@@V?$allocator@D@2@@std@@@2@V?$allocator@U?$pair@$$CBV?$basic_string@DU?$char_traits@D@std@@V?$allocator@D@2@@std@@V?$shared_ptr@VRawImageData@@@2@@std@@@2@$0A@@std@@@std@@IBEABV?$allocator@U?$_Tree_node@U?$pair@$$CBV?$basic_string@DU?$char_traits@D@std@@V?$allocator@D@2@@std@@V?$shared_ptr@VRawImageData@@@2@@std@@PAX@std@@@2@XZ 0040ab00 f i DraggingDemo.obj
 0001:00009b20       ?_Getal@?$_Tree@V?$_Tmap_traits@V?$basic_string@DU?$char_traits@D@std@@V?$allocator@D@2@@std@@V?$weak_ptr@VRawImageData@@@2@U?$less@V?$basic_string@DU?$char_traits@D@std@@V?$allocator@D@2@@std@@@2@V?$allocator@U?$pair@$$CBV?$basic_string@DU?$char_traits@D@std@@V?$allocator@D@2@@std@@V?$weak_ptr@VRawImageData@@@2@@std@@@2@$0A@@std@@@std@@IAEAAV?$allocator@U?$_Tree_node@U?$pair@$$CBV?$basic_string@DU?$char_traits@D@std@@V?$allocator@D@2@@std@@V?$weak_ptr@VRawImageData@@@2@@std@@PAX@std@@@2@XZ 0040ab20 f i DraggingDemo.obj
 0001:00009b40       ?_Getal@?$_Tree@V?$_Tmap_traits@V?$basic_string@DU?$char_traits@D@std@@V?$allocator@D@2@@std@@V?$weak_ptr@VRawImageData@@@2@U?$less@V?$basic_string@DU?$char_traits@D@std@@V?$allocator@D@2@@std@@@2@V?$allocator@U?$pair@$$CBV?$basic_string@DU?$char_traits@D@std@@V?$allocator@D@2@@std@@V?$weak_ptr@VRawImageData@@@2@@std@@@2@$0A@@std@@@std@@IBEABV?$allocator@U?$_Tree_node@U?$pair@$$CBV?$basic_string@DU?$char_traits@D@std@@V?$allocator@D@2@@std@@V?$weak_ptr@VRawImageData@@@2@@std@@PAX@std@@@2@XZ 0040ab40 f i DraggingDemo.obj
 0001:00009b60       ?_Getal@?$basic_string@DU?$char_traits@D@std@@V?$allocator@D@2@@std@@AAEAAV?$allocator@D@2@XZ 0040ab60 f i DraggingDemo.obj
 0001:00009b80       ?_Getal@?$basic_string@DU?$char_traits@D@std@@V?$allocator@D@2@@std@@ABEABV?$allocator@D@2@XZ 0040ab80 f i DraggingDemo.obj
 0001:00009ba0       ?_Getal@?$vector@PAVDisplayableObject@@V?$allocator@PAVDisplayableObject@@@std@@@std@@AAEAAV?$allocator@PAVDisplayableObject@@@2@XZ 0040aba0 f i DraggingDemo.obj
 0001:00009bc0       ?_Getal@?$vector@PAVDisplayableObject@@V?$allocator@PAVDisplayableObject@@@std@@@std@@ABEABV?$allocator@PAVDisplayableObject@@@2@XZ 0040abc0 f i DraggingDemo.obj
 0001:00009be0       ?_Getcomp@?$_Tree@V?$_Tmap_traits@V?$basic_string@DU?$char_traits@D@std@@V?$allocator@D@2@@std@@V?$shared_ptr@VRawImageData@@@2@U?$less@V?$basic_string@DU?$char_traits@D@std@@V?$allocator@D@2@@std@@@2@V?$allocator@U?$pair@$$CBV?$basic_string@DU?$char_traits@D@std@@V?$allocator@D@2@@std@@V?$shared_ptr@VRawImageData@@@2@@std@@@2@$0A@@std@@@std@@IBEABU?$less@V?$basic_string@DU?$char_traits@D@std@@V?$allocator@D@2@@std@@@2@XZ 0040abe0 f i DraggingDemo.obj
 0001:00009c00       ?_Getcomp@?$_Tree@V?$_Tmap_traits@V?$basic_string@DU?$char_traits@D@std@@V?$allocator@D@2@@std@@V?$weak_ptr@VRawImageData@@@2@U?$less@V?$basic_string@DU?$char_traits@D@std@@V?$allocator@D@2@@std@@@2@V?$allocator@U?$pair@$$CBV?$basic_string@DU?$char_traits@D@std@@V?$allocator@D@2@@std@@V?$weak_ptr@VRawImageData@@@2@@std@@@2@$0A@@std@@@std@@IBEABU?$less@V?$basic_string@DU?$char_traits@D@std@@V?$allocator@D@2@@std@@@2@XZ 0040ac00 f i DraggingDemo.obj
 0001:00009c20       ?_Getcont@_Iterator_base12@std@@QBEPBU_Container_base12@2@XZ 0040ac20 f i DraggingDemo.obj
 0001:00009c60       ?_Incref@?$_Ptr_base@VRawImageData@@@std@@IBEXXZ 0040ac60 f i DraggingDemo.obj
 0001:00009c90       ?_Incref@_Ref_count_base@std@@QAEXXZ 0040ac90 f i DraggingDemo.obj
 0001:00009cb0       ?_Incref_nz@_Ref_count_base@std@@QAE_NXZ 0040acb0 f i DraggingDemo.obj
 0001:00009d20       ?_Incwref@_Ref_count_base@std@@QAEXXZ 0040ad20 f i DraggingDemo.obj
 0001:00009d40       ?_Insert_node@?$_Tree_val@U?$_Tree_simple_types@U?$pair@$$CBV?$basic_string@DU?$char_traits@D@std@@V?$allocator@D@2@@std@@V?$shared_ptr@VRawImageData@@@2@@std@@@std@@@std@@QAEPAU?$_Tree_node@U?$pair@$$CBV?$basic_string@DU?$char_traits@D@std@@V?$allocator@D@2@@std@@V?$shared_ptr@VRawImageData@@@2@@std@@PAX@2@U?$_Tree_id@PAU?$_Tree_node@U?$pair@$$CBV?$basic_string@DU?$char_traits@D@std@@V?$allocator@D@2@@std@@V?$shared_ptr@VRawImageData@@@2@@std@@PAX@std@@@2@QAU32@@Z 0040ad40 f i DraggingDemo.obj
 0001:00009f50       ??R<lambda_15711c68e099a15a58f4d77303cb286d>@@QBE@QADQBDID@Z 0040af50 f i MyTextBar.obj
 0001:00009fd0       ?_Insert_node@?$_Tree_val@U?$_Tree_simple_types@U?$pair@$$CBV?$basic_string@DU?$char_traits@D@std@@V?$allocator@D@2@@std@@V?$weak_ptr@VRawImageData@@@2@@std@@@std@@@std@@QAEPAU?$_Tree_node@U?$pair@$$CBV?$basic_string@DU?$char_traits@D@std@@V?$allocator@D@2@@std@@V?$weak_ptr@VRawImageData@@@2@@std@@PAX@2@U?$_Tree_id@PAU?$_Tree_node@U?$pair@$$CBV?$basic_string@DU?$char_traits@D@std@@V?$allocator@D@2@@std@@V?$weak_ptr@VRawImageData@@@2@@std@@PAX@std@@@2@QAU32@@Z 0040afd0 f i DraggingDemo.obj
 0001:0000a1e0       ?keyPressed@MyTextBar@@QAEXH@Z 0040b1e0 f   MyTextBar.obj
 0001:0000a260       ?_Large_string_engaged@?$_String_val@U?$_Simple_types@D@std@@@std@@QBE_NXZ 0040b260 f i DraggingDemo.obj
 0001:0000a2a0       ?_Lrotate@?$_Tree_val@U?$_Tree_simple_types@U?$pair@$$CBV?$basic_string@DU?$char_traits@D@std@@V?$allocator@D@2@@std@@V?$shared_ptr@VRawImageData@@@2@@std@@@std@@@std@@QAEXPAU?$_Tree_node@U?$pair@$$CBV?$basic_string@DU?$char_traits@D@std@@V?$allocator@D@2@@std@@V?$shared_ptr@VRawImageData@@@2@@std@@PAX@2@@Z 0040b2a0 f i DraggingDemo.obj
 0001:0000a360       ?_Lrotate@?$_Tree_val@U?$_Tree_simple_types@U?$pair@$$CBV?$basic_string@DU?$char_traits@D@std@@V?$allocator@D@2@@std@@V?$weak_ptr@VRawImageData@@@2@@std@@@std@@@std@@QAEXPAU?$_Tree_node@U?$pair@$$CBV?$basic_string@DU?$char_traits@D@std@@V?$allocator@D@2@@std@@V?$weak_ptr@VRawImageData@@@2@@std@@PAX@2@@Z 0040b360 f i DraggingDemo.obj
 0001:0000a420       ?_Max@?$_Tree_val@U?$_Tree_simple_types@U?$pair@$$CBV?$basic_string@DU?$char_traits@D@std@@V?$allocator@D@2@@std@@V?$weak_ptr@VRawImageData@@@2@@std@@@std@@@std@@SAPAU?$_Tree_node@U?$pair@$$CBV?$basic_string@DU?$char_traits@D@std@@V?$allocator@D@2@@std@@V?$weak_ptr@VRawImageData@@@2@@std@@PAX@2@PAU32@@Z 0040b420 f i DraggingDemo.obj
 0001:0000a450       ?_Memcpy_val_from@?$basic_string@DU?$char_traits@D@std@@V?$allocator@D@2@@std@@AAEXABV12@@Z 0040b450 f i DraggingDemo.obj
 0001:0000a4b0       ?_Min@?$_Tree_val@U?$_Tree_simple_types@U?$pair@$$CBV?$basic_string@DU?$char_traits@D@std@@V?$allocator@D@2@@std@@V?$weak_ptr@VRawImageData@@@2@@std@@@std@@@std@@SAPAU?$_Tree_node@U?$pair@$$CBV?$basic_string@DU?$char_traits@D@std@@V?$allocator@D@2@@std@@V?$weak_ptr@VRawImageData@@@2@@std@@PAX@2@PAU32@@Z 0040b4b0 f i DraggingDemo.obj
 0001:0000a4e0       ?_Myptr@?$_String_val@U?$_Simple_types@D@std@@@std@@QAEPADXZ 0040b4e0 f i DraggingDemo.obj
 0001:0000a530       ?_Myptr@?$_String_val@U?$_Simple_types@D@std@@@std@@QBEPBDXZ 0040b530 f i DraggingDemo.obj
 0001:0000a580       ?_Orphan_all@_Container_base12@std@@QAEXXZ 0040b580 f i DraggingDemo.obj
 0001:0000a5a0       ?_Orphan_all_locked_v3@_Container_base12@std@@AAEXXZ 0040b5a0 f i DraggingDemo.obj
 0001:0000a5e0       ?_Orphan_all_unlocked_v3@_Container_base12@std@@AAEXXZ 0040b5e0 f i DraggingDemo.obj
 0001:0000a650       ?_Orphan_me_locked_v3@_Iterator_base12@std@@AAEXXZ 0040b650 f i DraggingDemo.obj
 0001:0000a690       ?_Orphan_me_unlocked_v3@_Iterator_base12@std@@AAEXXZ 0040b690 f i DraggingDemo.obj
 0001:0000a780       ?_Orphan_ptr@?$_Tree_val@U?$_Tree_simple_types@U?$pair@$$CBV?$basic_string@DU?$char_traits@D@std@@V?$allocator@D@2@@std@@V?$weak_ptr@VRawImageData@@@2@@std@@@std@@@std@@QAEXQAU?$_Tree_node@U?$pair@$$CBV?$basic_string@DU?$char_traits@D@std@@V?$allocator@D@2@@std@@V?$weak_ptr@VRawImageData@@@2@@std@@PAX@2@@Z 0040b780 f i DraggingDemo.obj
 0001:0000a830       ?_Orphan_range@?$vector@PAVDisplayableObject@@V?$allocator@PAVDisplayableObject@@@std@@@std@@ABEXPAPAVDisplayableObject@@0@Z 0040b830 f i DraggingDemo.obj
 0001:0000a860       ?_Orphan_range_locked@?$vector@PAVDisplayableObject@@V?$allocator@PAVDisplayableObject@@@std@@@std@@ABEXPAPAVDisplayableObject@@0@Z 0040b860 f i DraggingDemo.obj
 0001:0000a8f0       ?_Orphan_range_unlocked@?$vector@PAVDisplayableObject@@V?$allocator@PAVDisplayableObject@@@std@@@std@@ABEXPAPAVDisplayableObject@@0@Z 0040b8f0 f i DraggingDemo.obj
 0001:0000a980       ?_Release@?$_Alloc_construct_ptr@V?$allocator@U?$_Tree_node@U?$pair@$$CBV?$basic_string@DU?$char_traits@D@std@@V?$allocator@D@2@@std@@V?$shared_ptr@VRawImageData@@@2@@std@@PAX@std@@@std@@@std@@QAEPAU?$_Tree_node@U?$pair@$$CBV?$basic_string@DU?$char_traits@D@std@@V?$allocator@D@2@@std@@V?$shared_ptr@VRawImageData@@@2@@std@@PAX@2@XZ 0040b980 f i DraggingDemo.obj
 0001:0000a9b0       ?_Release@?$_Alloc_construct_ptr@V?$allocator@U?$_Tree_node@U?$pair@$$CBV?$basic_string@DU?$char_traits@D@std@@V?$allocator@D@2@@std@@V?$weak_ptr@VRawImageData@@@2@@std@@PAX@std@@@std@@@std@@QAEPAU?$_Tree_node@U?$pair@$$CBV?$basic_string@DU?$char_traits@D@std@@V?$allocator@D@2@@std@@V?$weak_ptr@VRawImageData@@@2@@std@@PAX@2@XZ 0040b9b0 f i DraggingDemo.obj
 0001:0000a9e0       ?_Release@?$_Uninitialized_backout_al@V?$allocator@PAVDisplayableObject@@@std@@@std@@QAEPAPAVDisplayableObject@@XZ 0040b9e0 f i DraggingDemo.obj
 0001:0000aa10       ?_Release@_Basic_container_proxy_ptr12@std@@QAEXXZ 0040ba10 f i DraggingDemo.obj
 0001:0000aa30       ?_Rrotate@?$_Tree_val@U?$_Tree_simple_types@U?$pair@$$CBV?$basic_string@DU?$char_traits@D@std@@V?$allocator@D@2@@std@@V?$shared_ptr@VRawImageData@@@2@@std@@@std@@@std@@QAEXPAU?$_Tree_node@U?$pair@$$CBV?$basic_string@DU?$char_traits@D@std@@V?$allocator@D@2@@std@@V?$shared_ptr@VRawImageData@@@2@@std@@PAX@2@@Z 0040ba30 f i DraggingDemo.obj
 0001:0000ab00       ?_Rrotate@?$_Tree_val@U?$_Tree_simple_types@U?$pair@$$CBV?$basic_string@DU?$char_traits@D@std@@V?$allocator@D@2@@std@@V?$weak_ptr@VRawImageData@@@2@@std@@@std@@@std@@QAEXPAU?$_Tree_node@U?$pair@$$CBV?$basic_string@DU?$char_traits@D@std@@V?$allocator@D@2@@std@@V?$weak_ptr@VRawImageData@@@2@@std@@PAX@2@@Z 0040bb00 f i DraggingDemo.obj
 0001:0000abd0       ?_Swap_proxy_and_iterators@?$basic_string@DU?$char_traits@D@std@@V?$allocator@D@2@@std@@AAEXAAV12@@Z 0040bbd0 f i DraggingDemo.obj
 0001:0000abf0       ?_Swap_proxy_and_iterators@_Container_base12@std@@QAEXAAU12@@Z 0040bbf0 f i DraggingDemo.obj
 0001:0000ac10       ?_Swap_proxy_and_iterators_locked@_Container_base12@std@@AAEXAAU12@@Z 0040bc10 f i DraggingDemo.obj
 0001:0000ac50       ?_Swap_proxy_and_iterators_unlocked@_Container_base12@std@@AAEXAAU12@@Z 0040bc50 f i DraggingDemo.obj
 0001:0000acb0       ?_Take_contents@?$basic_string@DU?$char_traits@D@std@@V?$allocator@D@2@@std@@AAEXAAV12@@Z 0040bcb0 f i DraggingDemo.obj
 0001:0000ae00       ?_Throw_bad_array_new_length@std@@YAXXZ 0040be00 f i DraggingDemo.obj
 0001:0000ae30       ?_Throw_tree_length_error@std@@YAXXZ 0040be30 f i DraggingDemo.obj
 0001:0000ae50       ?_Tidy_deallocate@?$basic_string@DU?$char_traits@D@std@@V?$allocator@D@2@@std@@AAEXXZ 0040be50 f i DraggingDemo.obj
 0001:0000af40       ?_Tidy_init@?$basic_string@DU?$char_traits@D@std@@V?$allocator@D@2@@std@@AAEXXZ 0040bf40 f i DraggingDemo.obj
 0001:0000afa0       ?_Ufill@?$vector@PAVDisplayableObject@@V?$allocator@PAVDisplayableObject@@@std@@@std@@AAEPAPAVDisplayableObject@@PAPAV3@IU_Value_init_tag@2@@Z 0040bfa0 f i DraggingDemo.obj
 0001:0000afd0       ?_Umove_if_noexcept1@?$vector@PAVDisplayableObject@@V?$allocator@PAVDisplayableObject@@@std@@@std@@AAEXPAPAVDisplayableObject@@00U?$integral_constant@_N$00@2@@Z 0040bfd0 f i DraggingDemo.obj
 0001:0000b010       ?_Umove_if_noexcept@?$vector@PAVDisplayableObject@@V?$allocator@PAVDisplayableObject@@@std@@@std@@AAEXPAPAVDisplayableObject@@00@Z 0040c010 f i DraggingDemo.obj
 0001:0000b050       ?_Unwrapped@?$_Tree_iterator@V?$_Tree_val@U?$_Tree_simple_types@U?$pair@$$CBV?$basic_string@DU?$char_traits@D@std@@V?$allocator@D@2@@std@@V?$weak_ptr@VRawImageData@@@2@@std@@@std@@@std@@@std@@QBE?AV?$_Tree_unchecked_iterator@V?$_Tree_val@U?$_Tree_simple_types@U?$pair@$$CBV?$basic_string@DU?$char_traits@D@std@@V?$allocator@D@2@@std@@V?$weak_ptr@VRawImageData@@@2@@std@@@std@@@std@@@2@XZ 0040c050 f i DraggingDemo.obj
 0001:0000b090       ?_Use_count@_Ref_count_base@std@@QBEJXZ 0040c090 f i DraggingDemo.obj
 0001:0000b0b0       ?_Xlen_string@std@@YAXXZ   0040c0b0 f i DraggingDemo.obj
 0001:0000b0d0       ?_Xlength@?$vector@PAVDisplayableObject@@V?$allocator@PAVDisplayableObject@@@std@@@std@@CAXXZ 0040c0d0 f i DraggingDemo.obj
 0001:0000b0f0       ?__empty_global_delete@@YAXPAX@Z 0040c0f0 f i DraggingDemo.obj
 0001:0000b100       ?__empty_global_delete@@YAXPAXI@Z 0040c100 f i DraggingDemo.obj
 0001:0000b110       ?allocate@?$allocator@D@std@@QAEPADI@Z 0040c110 f i DraggingDemo.obj
 0001:0000b140       ?allocate@?$allocator@PAVDisplayableObject@@@std@@QAEPAPAVDisplayableObject@@I@Z 0040c140 f i DraggingDemo.obj
 0001:0000b170       ?allocate@?$allocator@U?$_Tree_node@U?$pair@$$CBV?$basic_string@DU?$char_traits@D@std@@V?$allocator@D@2@@std@@V?$shared_ptr@VRawImageData@@@2@@std@@PAX@std@@@std@@QAEPAU?$_Tree_node@U?$pair@$$CBV?$basic_string@DU?$char_traits@D@std@@V?$allocator@D@2@@std@@V?$shared_ptr@VRawImageData@@@2@@std@@PAX@2@I@Z 0040c170 f i DraggingDemo.obj
 0001:0000b1a0       ?allocate@?$allocator@U?$_Tree_node@U?$pair@$$CBV?$basic_string@DU?$char_traits@D@std@@V?$allocator@D@2@@std@@V?$weak_ptr@VRawImageData@@@2@@std@@PAX@std@@@std@@QAEPAU?$_Tree_node@U?$pair@$$CBV?$basic_string@DU?$char_traits@D@std@@V?$allocator@D@2@@std@@V?$weak_ptr@VRawImageData@@@2@@std@@PAX@2@I@Z 0040c1a0 f i DraggingDemo.obj
 0001:0000b1d0       ?allocate@?$allocator@U_Container_proxy@std@@@std@@QAEPAU_Container_proxy@2@I@Z 0040c1d0 f i DraggingDemo.obj
 0001:0000b200       ?assign@?$_Narrow_char_traits@DH@std@@SAXAADABD@Z 0040c200 f i DraggingDemo.obj
 0001:0000b220       ?assign@?$basic_string@DU?$char_traits@D@std@@V?$allocator@D@2@@std@@QAEAAV12@QBD@Z 0040c220 f i DraggingDemo.obj
 0001:0000b260       ?assign@?$basic_string@DU?$char_traits@D@std@@V?$allocator@D@2@@std@@QAEAAV12@QBDI@Z 0040c260 f i DraggingDemo.obj
 0001:0000b300       ?c_str@?$basic_string@DU?$char_traits@D@std@@V?$allocator@D@2@@std@@QBEPBDXZ 0040c300 f i DraggingDemo.obj
 0001:0000b320       ?capacity@?$vector@PAVDisplayableObject@@V?$allocator@PAVDisplayableObject@@@std@@@std@@QBEIXZ 0040c320 f i DraggingDemo.obj
 0001:0000b350       ?checkDoDrag@DragableBaseClassObject@@UAEXHH@Z 0040c350 f i DraggingDemo.obj
 0001:0000b3d0       ?checkFinishDrag@DragableBaseClassObject@@UAEXHH@Z 0040c3d0 f i DraggingDemo.obj
 0001:0000b410       ?checkStartDrag@DragableBaseClassObject@@UAEXHH@Z 0040c410 f i DraggingDemo.obj
 0001:0000b490       ?checkWritable@DrawingSurface@@QAEXXZ 0040c490 f i DraggingDemo.obj
 0001:0000b4e0       ?compare@?$_Narrow_char_traits@DH@std@@SAHQBD0I@Z 0040c4e0 f i DraggingDemo.obj
 0001:0000b500       ?compare@?$basic_string@DU?$char_traits@D@std@@V?$allocator@D@2@@std@@QBEHABV12@@Z 0040c500 f i DraggingDemo.obj
 0001:0000b550       ?copy@?$_Char_traits@DH@std@@SAPADQADQBDI@Z 0040c550 f i DraggingDemo.obj
 0001:0000b580       ?createObjectArray@DisplayableObjectContainer@@QAEXH@Z 0040c580 f i DraggingDemo.obj
 0001:0000b5d0       ?data@?$basic_string@DU?$char_traits@D@std@@V?$allocator@D@2@@std@@QBEPBDXZ 0040c5d0 f i DraggingDemo.obj
 0001:0000b5f0       ?deallocate@?$_Default_allocator_traits@V?$allocator@U?$_Tree_node@U?$pair@$$CBV?$basic_string@DU?$char_traits@D@std@@V?$allocator@D@2@@std@@V?$weak_ptr@VRawImageData@@@2@@std@@PAX@std@@@std@@@std@@SAXAAV?$allocator@U?$_Tree_node@U?$pair@$$CBV?$basic_string@DU?$char_traits@D@std@@V?$allocator@D@2@@std@@V?$weak_ptr@VRawImageData@@@2@@std@@PAX@std@@@2@QAU?$_Tree_node@U?$pair@$$CBV?$basic_string@DU?$char_traits@D@std@@V?$allocator@D@2@@std@@V?$weak_ptr@VRawImageData@@@2@@std@@PAX@2@I@Z 0040c5f0 f i DraggingDemo.obj
 0001:0000b610       ?deallocate@?$_Default_allocator_traits@V?$allocator@U_Container_proxy@std@@@std@@@std@@SAXAAV?$allocator@U_Container_proxy@std@@@2@QAU_Container_proxy@2@I@Z 0040c610 f i DraggingDemo.obj
 0001:0000b630       ?deallocate@?$allocator@D@std@@QAEXQADI@Z 0040c630 f i DraggingDemo.obj
 0001:0000b660       ?deallocate@?$allocator@PAVDisplayableObject@@@std@@QAEXQAPAVDisplayableObject@@I@Z 0040c660 f i DraggingDemo.obj
 0001:0000b690       ?deallocate@?$allocator@U?$_Tree_node@U?$pair@$$CBV?$basic_string@DU?$char_traits@D@std@@V?$allocator@D@2@@std@@V?$shared_ptr@VRawImageData@@@2@@std@@PAX@std@@@std@@QAEXQAU?$_Tree_node@U?$pair@$$CBV?$basic_string@DU?$char_traits@D@std@@V?$allocator@D@2@@std@@V?$shared_ptr@VRawImageData@@@2@@std@@PAX@2@I@Z 0040c690 f i DraggingDemo.obj
 0001:0000b6c0       ?deallocate@?$allocator@U?$_Tree_node@U?$pair@$$CBV?$basic_string@DU?$char_traits@D@std@@V?$allocator@D@2@@std@@V?$weak_ptr@VRawImageData@@@2@@std@@PAX@std@@@std@@QAEXQAU?$_Tree_node@U?$pair@$$CBV?$basic_string@DU?$char_traits@D@std@@V?$allocator@D@2@@std@@V?$weak_ptr@VRawImageData@@@2@@std@@PAX@2@I@Z 0040c6c0 f i DraggingDemo.obj
 0001:0000b6f0       ?deleteOnRemoval@DisplayableObject@@UBE_NXZ 0040c6f0 f i DraggingDemo.obj
 0001:0000b710       ?doDragRedraw@DragableBaseClassObject@@UAEXXZ 0040c710 f i DraggingDemo.obj
 0001:0000b730       ?drawableObjectsChanged@DisplayableObjectContainer@@QAEXXZ 0040c730 f i DraggingDemo.obj
 0001:0000b750       ?end@?$_Tree@V?$_Tmap_traits@V?$basic_string@DU?$char_traits@D@std@@V?$allocator@D@2@@std@@V?$weak_ptr@VRawImageData@@@2@U?$less@V?$basic_string@DU?$char_traits@D@std@@V?$allocator@D@2@@std@@@2@V?$allocator@U?$pair@$$CBV?$basic_string@DU?$char_traits@D@std@@V?$allocator@D@2@@std@@V?$weak_ptr@VRawImageData@@@2@@std@@@2@$0A@@std@@@std@@QAE?AV?$_Tree_iterator@V?$_Tree_val@U?$_Tree_simple_types@U?$pair@$$CBV?$basic_string@DU?$char_traits@D@std@@V?$allocator@D@2@@std@@V?$weak_ptr@VRawImageData@@@2@@std@@@std@@@std@@@2@XZ 0040c750 f i DraggingDemo.obj
 0001:0000b790       ?eof@?$_Narrow_char_traits@DH@std@@SAHXZ 0040c790 f i DraggingDemo.obj
 0001:0000b7a0       ?eq_int_type@?$_Narrow_char_traits@DH@std@@SA_NABH0@Z 0040c7a0 f i DraggingDemo.obj
 0001:0000b7d0       ?expired@?$weak_ptr@VRawImageData@@@std@@QBE_NXZ 0040c7d0 f i DraggingDemo.obj
 0001:0000b810       ?find@?$_Tree@V?$_Tmap_traits@V?$basic_string@DU?$char_traits@D@std@@V?$allocator@D@2@@std@@V?$weak_ptr@VRawImageData@@@2@U?$less@V?$basic_string@DU?$char_traits@D@std@@V?$allocator@D@2@@std@@@2@V?$allocator@U?$pair@$$CBV?$basic_string@DU?$char_traits@D@std@@V?$allocator@D@2@@std@@V?$weak_ptr@VRawImageData@@@2@@std@@@2@$0A@@std@@@std@@QAE?AV?$_Tree_iterator@V?$_Tree_val@U?$_Tree_simple_types@U?$pair@$$CBV?$basic_string@DU?$char_traits@D@std@@V?$allocator@D@2@@std@@V?$weak_ptr@VRawImageData@@@2@@std@@@std@@@std@@@2@ABV?$basic_string@DU?$char_traits@D@std@@V?$allocator@D@2@@2@@Z 0040c810 f i DraggingDemo.obj
 0001:0000b860       ?freeSurface@RawImageData@@QAEXXZ 0040c860 f i DraggingDemo.obj
 0001:0000b8e0       ?get@?$_Ptr_base@VRawImageData@@@std@@IBEPAVRawImageData@@XZ 0040c8e0 f i DraggingDemo.obj
 0001:0000b900       ?get@ImageManager@@SAPAV1@XZ 0040c900 f i DraggingDemo.obj
 0001:0000b9b0       ?getEngine@DisplayableObject@@QBEPAVBaseEngine@@XZ 0040c9b0 f i DraggingDemo.obj
 0001:0000b9d0       ?getForegroundSurface@BaseEngine@@QAEPAVDrawingSurface@@XZ 0040c9d0 f i DraggingDemo.obj
 0001:0000b9f0       ?getHeight@RawImageData@@QBEHXZ 0040c9f0 f i DraggingDemo.obj
 0001:0000ba10       ?getHeight@SimpleImage@@QBEHXZ 0040ca10 f i DraggingDemo.obj
 0001:0000ba40       ?getImagePtrbyURL@ImageManager@@QAE?AV?$shared_ptr@VRawImageData@@@std@@V?$basic_string@DU?$char_traits@D@std@@V?$allocator@D@2@@3@_N1@Z 0040ca40 f i DraggingDemo.obj
 0001:0000bda0       ?pop_back@?$basic_string@DU?$char_traits@D@std@@V?$allocator@D@2@@std@@QAEXXZ 0040cda0 f i MyTextBar.obj
 0001:0000be80       ?getImagebyURL@ImageManager@@QAE?AVSimpleImage@@V?$basic_string@DU?$char_traits@D@std@@V?$allocator@D@2@@std@@_N1@Z 0040ce80 f i DraggingDemo.obj
 0001:0000bf50       ?getIntsPerWindowRow@DrawingSurface@@QBEIXZ 0040cf50 f i DraggingDemo.obj
 0001:0000bf70       ?getSurfaceHeight@DrawingSurface@@QBEHXZ 0040cf70 f i DraggingDemo.obj
 0001:0000bf90       ?getSurfaceWidth@DrawingSurface@@QBEHXZ 0040cf90 f i DraggingDemo.obj
 0001:0000bfb0       ?getWidth@RawImageData@@QBEHXZ 0040cfb0 f i DraggingDemo.obj
 0001:0000bfd0       ?getWidth@SimpleImage@@QBEHXZ 0040cfd0 f i DraggingDemo.obj
 0001:0000c000       ?getWindowHeight@BaseEngine@@QBEHXZ 0040d000 f i DraggingDemo.obj
 0001:0000c020       ?getWindowWidth@BaseEngine@@QBEHXZ 0040d020 f i DraggingDemo.obj
 0001:0000c040       ?getXForRotationAndCrop@RawImageData@@SAHHHHHHH@Z 0040d040 f i DraggingDemo.obj
 0001:0000c0b0       ?getYForRotationAndCrop@RawImageData@@SAHHHHHHH@Z 0040d0b0 f i DraggingDemo.obj
 0001:0000c120       ?isVisible@DisplayableObject@@QBE_NXZ 0040d120 f i DraggingDemo.obj
 0001:0000c140       ?length@?$_Narrow_char_traits@DH@std@@SAIQBD@Z 0040d140 f i DraggingDemo.obj
 0001:0000c160       ?loadAsNew@ImageManager@@QAE?AV?$shared_ptr@VRawImageData@@@std@@V?$basic_string@DU?$char_traits@D@std@@V?$allocator@D@2@@3@@Z 0040d160 f i DraggingDemo.obj
 0001:0000c330       ?loadImage@RawImageData@@QAE_NV?$basic_string@DU?$char_traits@D@std@@V?$allocator@D@2@@std@@HHHHH_N@Z 0040d330 f i DraggingDemo.obj
 0001:0000c5a0       ?push_back@?$basic_string@DU?$char_traits@D@std@@V?$allocator@D@2@@std@@QAEXD@Z 0040d5a0 f i MyTextBar.obj
 0001:0000c640       ?lock@?$weak_ptr@VRawImageData@@@std@@QBE?AV?$shared_ptr@VRawImageData@@@2@XZ 0040d640 f i DraggingDemo.obj
 0001:0000c690       ?max@?$numeric_limits@H@std@@SAHXZ 0040d690 f i DraggingDemo.obj
 0001:0000c6a0       ?max_size@?$_Default_allocator_traits@V?$allocator@D@std@@@std@@SAIABV?$allocator@D@2@@Z 0040d6a0 f i DraggingDemo.obj
 0001:0000c6b0       ?max_size@?$_Default_allocator_traits@V?$allocator@PAVDisplayableObject@@@std@@@std@@SAIABV?$allocator@PAVDisplayableObject@@@2@@Z 0040d6b0 f i DraggingDemo.obj
 0001:0000c6c0       ?max_size@?$_Default_allocator_traits@V?$allocator@U?$_Tree_node@U?$pair@$$CBV?$basic_string@DU?$char_traits@D@std@@V?$allocator@D@2@@std@@V?$shared_ptr@VRawImageData@@@2@@std@@PAX@std@@@std@@@std@@SAIABV?$allocator@U?$_Tree_node@U?$pair@$$CBV?$basic_string@DU?$char_traits@D@std@@V?$allocator@D@2@@std@@V?$shared_ptr@VRawImageData@@@2@@std@@PAX@std@@@2@@Z 0040d6c0 f i DraggingDemo.obj
 0001:0000c6d0       ?max_size@?$_Default_allocator_traits@V?$allocator@U?$_Tree_node@U?$pair@$$CBV?$basic_string@DU?$char_traits@D@std@@V?$allocator@D@2@@std@@V?$weak_ptr@VRawImageData@@@2@@std@@PAX@std@@@std@@@std@@SAIABV?$allocator@U?$_Tree_node@U?$pair@$$CBV?$basic_string@DU?$char_traits@D@std@@V?$allocator@D@2@@std@@V?$weak_ptr@VRawImageData@@@2@@std@@PAX@std@@@2@@Z 0040d6d0 f i DraggingDemo.obj
 0001:0000c6e0       ?max_size@?$_Tree@V?$_Tmap_traits@V?$basic_string@DU?$char_traits@D@std@@V?$allocator@D@2@@std@@V?$shared_ptr@VRawImageData@@@2@U?$less@V?$basic_string@DU?$char_traits@D@std@@V?$allocator@D@2@@std@@@2@V?$allocator@U?$pair@$$CBV?$basic_string@DU?$char_traits@D@std@@V?$allocator@D@2@@std@@V?$shared_ptr@VRawImageData@@@2@@std@@@2@$0A@@std@@@std@@QBEIXZ 0040d6e0 f i DraggingDemo.obj
 0001:0000c730       ?max_size@?$_Tree@V?$_Tmap_traits@V?$basic_string@DU?$char_traits@D@std@@V?$allocator@D@2@@std@@V?$weak_ptr@VRawImageData@@@2@U?$less@V?$basic_string@DU?$char_traits@D@std@@V?$allocator@D@2@@std@@@2@V?$allocator@U?$pair@$$CBV?$basic_string@DU?$char_traits@D@std@@V?$allocator@D@2@@std@@V?$weak_ptr@VRawImageData@@@2@@std@@@2@$0A@@std@@@std@@QBEIXZ 0040d730 f i DraggingDemo.obj
 0001:0000c780       ?max_size@?$basic_string@DU?$char_traits@D@std@@V?$allocator@D@2@@std@@QBEIXZ 0040d780 f i DraggingDemo.obj
 0001:0000c800       ?max_size@?$vector@PAVDisplayableObject@@V?$allocator@PAVDisplayableObject@@@std@@@std@@QBEIXZ 0040d800 f i DraggingDemo.obj
 0001:0000c850       ?move@?$_Char_traits@DH@std@@SAPADQADQBDI@Z 0040d850 f i DraggingDemo.obj
 0001:0000c880       ?notifyObjectsAboutMouse@BaseEngine@@QAEX_N@Z 0040d880 f i DraggingDemo.obj
 0001:0000c8a0       ?pointer_to@?$pointer_traits@PAU?$pair@$$CBV?$basic_string@DU?$char_traits@D@std@@V?$allocator@D@2@@std@@V?$weak_ptr@VRawImageData@@@2@@std@@@std@@SAPAU?$pair@$$CBV?$basic_string@DU?$char_traits@D@std@@V?$allocator@D@2@@std@@V?$weak_ptr@VRawImageData@@@2@@2@AAU32@@Z 0040d8a0 f i DraggingDemo.obj
 0001:0000c8c0       ?rawSetPixel@DrawingSurface@@QAEXHHI@Z 0040d8c0 f i DraggingDemo.obj
 0001:0000c970       ?resize@?$vector@PAVDisplayableObject@@V?$allocator@PAVDisplayableObject@@@std@@@std@@QAEXI@Z 0040d970 f i DraggingDemo.obj
 0001:0000c9a0       ?select_on_container_copy_construction@?$_Default_allocator_traits@V?$allocator@D@std@@@std@@SA?AV?$allocator@D@2@ABV32@@Z 0040d9a0 f i DraggingDemo.obj
 0001:0000c9b0       ?setBackgroundPixel@BaseEngine@@QAEXHHI@Z 0040d9b0 f i DraggingDemo.obj
 0001:0000c9e0       ?setExitWithCode@BaseEngine@@QAEXH@Z 0040d9e0 f i DraggingDemo.obj
 0001:0000ca00       ?setPixel@DrawingSurface@@QAEXHHI@Z 0040da00 f i DraggingDemo.obj
 0001:0000ca70       ?setPosition@DisplayableObject@@UAEXHH@Z 0040da70 f i DraggingDemo.obj
 0001:0000cab0       ?setVisible@DisplayableObject@@QAEX_N@Z 0040dab0 f i DraggingDemo.obj
 0001:0000cad0       ?size@?$basic_string@DU?$char_traits@D@std@@V?$allocator@D@2@@std@@QBEIXZ 0040dad0 f i DraggingDemo.obj
 0001:0000caf0       ?storeObjectInArray@DisplayableObjectContainer@@QAEXHPAVDisplayableObject@@@Z 0040daf0 f i DraggingDemo.obj
 0001:0000cb30       ?use_count@?$_Ptr_base@VRawImageData@@@std@@QBEJXZ 0040db30 f i DraggingDemo.obj
 0001:0000cb70       ?virtDraw@DragableImageObject@@UAEXXZ 0040db70 f i DraggingDemo.obj
 0001:0000cbf0       ?virtDraw@ImageObject@@UAEXXZ 0040dbf0 f i DraggingDemo.obj
 0001:0000cc70       ?virtIsPositionWithinObject@DisplayableObject@@UAE_NHH@Z 0040dc70 f i DraggingDemo.obj
 0001:0000cd00       ?virtKeyDown@DisplayableObject@@UAEXH@Z 0040dd00 f i DraggingDemo.obj
 0001:0000cd10       ?virtKeyUp@DisplayableObject@@UAEXH@Z 0040dd10 f i DraggingDemo.obj
 0001:0000cd20       ?virtMouseDown@DisplayableObject@@UAEXHHH@Z 0040dd20 f i DraggingDemo.obj
 0001:0000cd30       ?virtMouseDown@DragableImageObject@@UAEXHHH@Z 0040dd30 f i DraggingDemo.obj
 0001:0000cd60       ?virtMouseDown@DragableObject@@UAEXHHH@Z 0040dd60 f i DraggingDemo.obj
 0001:0000cd90       ?virtMouseMoved@DisplayableObject@@UAEXHH@Z 0040dd90 f i DraggingDemo.obj
 0001:0000cda0       ?virtMouseMoved@DragableImageObject@@UAEXHH@Z 0040dda0 f i DraggingDemo.obj
 0001:0000cdd0       ?virtMouseMoved@DragableObject@@UAEXHH@Z 0040ddd0 f i DraggingDemo.obj
 0001:0000ce00       ?virtMouseUp@DisplayableObject@@UAEXHHH@Z 0040de00 f i DraggingDemo.obj
 0001:0000ce10       ?virtMouseUp@DragableImageObject@@UAEXHHH@Z 0040de10 f i DraggingDemo.obj
 0001:0000ce40       ?virtMouseUp@DragableObject@@UAEXHHH@Z 0040de40 f i DraggingDemo.obj
 0001:0000ce80       ?virtNotify@DisplayableObject@@UAEJHHH@Z 0040de80 f i DraggingDemo.obj
 0001:0000cea0       ?virtSingleItemMouseDown@DisplayableObject@@UAE_NHHH@Z 0040dea0 f i DraggingDemo.obj
 0001:0000cec0       ?what@exception@std@@UBEPBDXZ 0040dec0 f i DraggingDemo.obj
 0001:0000cf00       ___local_stdio_printf_options 0040df00 f i DraggingDemo.obj
 0001:0000cf10       __vfprintf_l               0040df10 f i DraggingDemo.obj
 0001:0000cf50       _printf                    0040df50 f i DraggingDemo.obj
 0001:0000cfa0       ??0DrawingSurface@@QAE@PAVBaseEngine@@@Z 0040dfa0 f   DrawingSurface.obj
 0001:0000d040       ?drawLine@DrawingSurface@@QAEXNNNNI@Z 0040e040 f   DrawingSurface.obj
 0001:0000d220       ?drawThickLine@DrawingSurface@@QAEXNNNNIH@Z 0040e220 f   DrawingSurface.obj
 0001:0000d6c0       ?drawVerticalSidedRegion@DrawingSurface@@QAEXNNNNNNI@Z 0040e6c0 f   DrawingSurface.obj
 0001:0000da60       ?drawRectangle@DrawingSurface@@QAEXHHHHI@Z 0040ea60 f   DrawingSurface.obj
 0001:0000db70       ?drawOval@DrawingSurface@@QAEXHHHHI@Z 0040eb70 f   DrawingSurface.obj
 0001:0000dd40       ?rawDrawOval@DrawingSurface@@QAEXHHHHI@Z 0040ed40 f   DrawingSurface.obj
 0001:0000dea0       ?drawHollowOval@DrawingSurface@@QAEXHHHHHHHHI@Z 0040eea0 f   DrawingSurface.obj
 0001:0000e1c0       ?drawPolygon@DrawingSurface@@QAEXHPAN0I@Z 0040f1c0 f   DrawingSurface.obj
 0001:0000e940       ?drawFastString@DrawingSurface@@QAEXHHPBDIPAVFont@@@Z 0040f940 f   DrawingSurface.obj
 0001:0000ea30       ?drawScalableString@DrawingSurface@@QAEXHHPBDIPAVFont@@@Z 0040fa30 f   DrawingSurface.obj
 0001:0000ec00       ?drawShortenedArrow@DrawingSurface@@QAEXHHHHHHIHH@Z 0040fc00 f   DrawingSurface.obj
 0001:0000f180       ?drawShortenedLine@DrawingSurface@@QAEXHHHHHHIH@Z 00410180 f   DrawingSurface.obj
 0001:0000f580       ?drawTriangle@DrawingSurface@@QAEXNNNNNNI@Z 00410580 f   DrawingSurface.obj
 0001:0000f8d0       ?copyEntireSurface@DrawingSurface@@QAEXPAV1@@Z 004108d0 f   DrawingSurface.obj
 0001:0000f920       ?copyRectangleFrom@DrawingSurface@@QAEXPAV1@HHHHHH@Z 00410920 f   DrawingSurface.obj
 0001:0000fb20       ?getAngle@DrawingSurface@@SANNNNN@Z 00410b20 f   DrawingSurface.obj
 0001:0000fbc0       ?getVirtualRedrawMinX@DrawingSurface@@QAEHXZ 00410bc0 f   DrawingSurface.obj
 0001:0000fc10       ?getVirtualRedrawMinY@DrawingSurface@@QAEHXZ 00410c10 f   DrawingSurface.obj
 0001:0000fc60       ?getVirtualRedrawMaxX@DrawingSurface@@QAEHXZ 00410c60 f   DrawingSurface.obj
 0001:0000fcc0       ?getVirtualRedrawMaxY@DrawingSurface@@QAEHXZ 00410cc0 f   DrawingSurface.obj
 0001:0000fd20       ?getRealRedrawMinX@DrawingSurface@@QAEHXZ 00410d20 f   DrawingSurface.obj
 0001:0000fd70       ?getRealRedrawMinY@DrawingSurface@@QAEHXZ 00410d70 f   DrawingSurface.obj
 0001:0000fdc0       ?getRealRedrawMaxX@DrawingSurface@@QAEHXZ 00410dc0 f   DrawingSurface.obj
 0001:0000fe10       ?getRealRedrawMaxY@DrawingSurface@@QAEHXZ 00410e10 f   DrawingSurface.obj
 0001:0000fe60       ??$_Reallocate_grow_by@V<lambda_15711c68e099a15a58f4d77303cb286d>@@D@?$basic_string@DU?$char_traits@D@std@@V?$allocator@D@2@@std@@AAEAAV01@IV<lambda_15711c68e099a15a58f4d77303cb286d>@@D@Z 00410e60 f i MyTextBar.obj
 0001:00010a10       ??$move@AAH@std@@YA$$QAHAAH@Z 00411a10 f i DrawingSurface.obj
 0001:00010a20       ??$move@AAN@std@@YA$$QANAAN@Z 00411a20 f i DrawingSurface.obj
 0001:00010a30       ??$swap@H$0A@@std@@YAXAAH0@Z 00411a30 f i DrawingSurface.obj
 0001:00010a80       ??$swap@N$0A@@std@@YAXAAN0@Z 00411a80 f i DrawingSurface.obj
 0001:00010ae0       ?checkBlitable@DrawingSurface@@QAEXXZ 00411ae0 f i DrawingSurface.obj
 0001:00010b30       ?convertRealToVirtualXPosition@DrawingSurface@@QAEHH@Z 00411b30 f i DrawingSurface.obj
 0001:00010b70       ?convertRealToVirtualYPosition@DrawingSurface@@QAEHH@Z 00411b70 f i DrawingSurface.obj
 0001:00010bb0       ?getDefaultFont@BaseEngine@@QBEPAVFont@@XZ 00411bb0 f i DrawingSurface.obj
 0001:00010bd0       ?getRedrawAllScreen@BaseEngine@@QAEHXZ 00411bd0 f i DrawingSurface.obj
 0001:00010bf0       ?getRedrawRectRealBottom@BaseEngine@@QAEHXZ 00411bf0 f i DrawingSurface.obj
 0001:00010c10       ?getRedrawRectRealLeft@BaseEngine@@QAEHXZ 00411c10 f i DrawingSurface.obj
 0001:00010c30       ?getRedrawRectRealRight@BaseEngine@@QAEHXZ 00411c30 f i DrawingSurface.obj
 0001:00010c50       ?getRedrawRectRealTop@BaseEngine@@QAEHXZ 00411c50 f i DrawingSurface.obj
 0001:00010c70       ?getRedrawRectVirtualBottom@BaseEngine@@QAEHXZ 00411c70 f i DrawingSurface.obj
 0001:00010c90       ?getRedrawRectVirtualLeft@BaseEngine@@QAEHXZ 00411c90 f i DrawingSurface.obj
 0001:00010cb0       ?getRedrawRectVirtualRight@BaseEngine@@QAEHXZ 00411cb0 f i DrawingSurface.obj
 0001:00010cd0       ?getRedrawRectVirtualTop@BaseEngine@@QAEHXZ 00411cd0 f i DrawingSurface.obj
 0001:00010cf0       ?getTTFFont@Font@@QAEPAU_TTF_Font@@XZ 00411cf0 f i DrawingSurface.obj
 0001:00010d10       ?mySDLTempRelockSurface@DrawingSurface@@QAEXXZ 00411d10 f i DrawingSurface.obj
 0001:00010d60       ?mySDLTempUnlockSurface@DrawingSurface@@QAEXXZ 00411d60 f i DrawingSurface.obj
 0001:00010db0       ?setDrawPointsFilter@DrawingSurface@@QAEXPAVFilterPoints@@@Z 00411db0 f i DrawingSurface.obj
 0001:00010dd0       ??0FlashingDemo@@QAE@XZ    00411dd0 f   FlashingDemo.obj
 0001:00010e90       ??1FlashingDemo@@UAE@XZ    00411e90 f   FlashingDemo.obj
 0001:00010ee0       ?virtSetupBackgroundBuffer@FlashingDemo@@UAEXXZ 00411ee0 f   FlashingDemo.obj
 0001:00011360       ?virtMainLoopDoBeforeUpdate@FlashingDemo@@UAEXXZ 00412360 f   FlashingDemo.obj
 0001:00011420       ?virtCreateSurfaces@FlashingDemo@@UAEXXZ 00412420 f   FlashingDemo.obj
 0001:00011640       ??1DrawingSurface@@QAE@XZ  00412640 f i FlashingDemo.obj
 0001:00011650       ??_EFlashingDemo@@UAEPAXI@Z 00412650 f i FlashingDemo.obj
 0001:00011650       ??_GFlashingDemo@@UAEPAXI@Z 00412650 f i FlashingDemo.obj
 0001:00011690       ?copyAllBackgroundBuffer@BaseEngine@@UAEXXZ 00412690 f i FlashingDemo.obj
 0001:000116c0       ?copyBackgroundPixels@BaseEngine@@UAEXHHHH@Z 004126c0 f i FlashingDemo.obj
 0001:00011710       ?createSurface@DrawingSurface@@QAEXHH@Z 00412710 f i FlashingDemo.obj
 0001:00011760       ?destroyOldObjects@DisplayableObjectContainer@@UAEX_N@Z 00412760 f i FlashingDemo.obj
 0001:00011850       ?fillBackground@BaseEngine@@UAEXI@Z 00412850 f i FlashingDemo.obj
 0001:00011880       ?fillSurface@DrawingSurface@@QAEXI@Z 00412880 f i FlashingDemo.obj
 0001:00011910       ?filter@BaseEngine@@UAE_NPAVDrawingSurface@@AAH1AAI@Z 00412910 f i FlashingDemo.obj
 0001:000119d0       ?filterConvertRealToVirtualXPosition@FilterPoints@@UAEHH@Z 004129d0 f i FlashingDemo.obj
 0001:000119f0       ?filterConvertRealToVirtualYPosition@FilterPoints@@UAEHH@Z 004129f0 f i FlashingDemo.obj
 0001:00011a10       ?filterConvertVirtualToRealXPosition@FilterPoints@@UAEHH@Z 00412a10 f i FlashingDemo.obj
 0001:00011a30       ?filterConvertVirtualToRealYPosition@FilterPoints@@UAEHH@Z 00412a30 f i FlashingDemo.obj
 0001:00011a50       ?getModifiedTime@BaseEngine@@UBEHXZ 00412a50 f i FlashingDemo.obj
 0001:00011a90       ?mySDLLockSurface@DrawingSurface@@QAEXXZ 00412a90 f i FlashingDemo.obj
 0001:00011ae0       ?mySDLUnlockSurface@DrawingSurface@@QAEXXZ 00412ae0 f i FlashingDemo.obj
 0001:00011b30       ?redrawDisplay@BaseEngine@@QAEXXZ 00412b30 f i FlashingDemo.obj
 0001:00011b50       ?size@?$vector@PAVDisplayableObject@@V?$allocator@PAVDisplayableObject@@@std@@@std@@QBEIXZ 00412b50 f i FlashingDemo.obj
 0001:00011b80       ?virtBackgroundMouseDown@BaseEngine@@UAEXHHHHH@Z 00412b80 f i FlashingDemo.obj
 0001:00011b90       ?virtMainLoopDoAfterUpdate@BaseEngine@@UAEXXZ 00412b90 f i FlashingDemo.obj
 0001:00011ba0       ?virtMainLoopPostUpdate@BaseEngine@@UAEXXZ 00412ba0 f i FlashingDemo.obj
 0001:00011bb0       ?virtMainLoopPreUpdate@BaseEngine@@UAEXXZ 00412bb0 f i FlashingDemo.obj
 0001:00011bc0       ?virtMainLoopStartIteration@BaseEngine@@UAEXXZ 00412bc0 f i FlashingDemo.obj
 0001:00011bd0       ?virtMouseWheel@BaseEngine@@UAEXHHHH@Z 00412bd0 f i FlashingDemo.obj
 0001:00011be0       ?virtPostDraw@BaseEngine@@UAEXXZ 00412be0 f i FlashingDemo.obj
 0001:00011bf0       ?virtPreDraw@BaseEngine@@UAEXXZ 00412bf0 f i FlashingDemo.obj
 0001:00011c00       ?virtRealMouseDown@BaseEngine@@UAEXHHH@Z 00412c00 f i FlashingDemo.obj
 0001:00011c10       ?virtRealMouseUp@BaseEngine@@UAEXHHH@Z 00412c10 f i FlashingDemo.obj
 0001:00011c20       ?virtTouchEvent@BaseEngine@@UAEXHH_J0MMMMM@Z 00412c20 f i FlashingDemo.obj
 0001:00011c30       ?virtSetupBackgroundBuffer@ImageMappingDemo@@UAEXXZ 00412c30 f   ImageMappingDemo.obj
 0001:00011d30       ?virtInitialiseObjects@ImageMappingDemo@@UAEHXZ 00412d30 f   ImageMappingDemo.obj
 0001:000120a0       ?virtKeyDown@ImageMappingDemo@@UAEXH@Z 004130a0 f   ImageMappingDemo.obj
 0001:000120d0       ?virtMainLoopDoBeforeUpdate@ImageMappingDemo@@UAEXXZ 004130d0 f   ImageMappingDemo.obj
 0001:00012160       ?mapCoordinates@ImageMappingDemo@@UAE_NAAN0ABVSimpleImage@@@Z 00413160 f   ImageMappingDemo.obj
 0001:000125d0       ??0MappableImageObject@@QAE@PAVImagePixelMapping@@HHPAVBaseEngine@@V?$basic_string@DU?$char_traits@D@std@@V?$allocator@D@2@@std@@_N3@Z 004135d0 f i ImageMappingDemo.obj
 0001:00012690       ??1MappableImageObject@@UAE@XZ 00413690 f i ImageMappingDemo.obj
 0001:000126b0       ??_EMappableImageObject@@UAEPAXI@Z 004136b0 f i ImageMappingDemo.obj
 0001:000126b0       ??_GMappableImageObject@@UAEPAXI@Z 004136b0 f i ImageMappingDemo.obj
 0001:000126f0       ?getPixelColour@MappableImageObject@@QAEHHH@Z 004136f0 f i ImageMappingDemo.obj
 0001:00012720       ?getPixelColour@SimpleImage@@QBEHHH@Z 00413720 f i ImageMappingDemo.obj
 0001:00012750       ?getRawPixelColour@RawImageData@@QBEHHH@Z 00413750 f i ImageMappingDemo.obj
 0001:000127a0       ?getTheData@SimpleImage@@QBEABV?$shared_ptr@VRawImageData@@@std@@XZ 004137a0 f i ImageMappingDemo.obj
 0001:000127c0       ?setOpaque@RawImageData@@QAEXXZ 004137c0 f i ImageMappingDemo.obj
 0001:00012830       ?setRotation@ImagePixelMappingRotate@@QAEXN@Z 00413830 f i ImageMappingDemo.obj
 0001:00012850       ?setTransparencyColour@MappableImageObject@@QAEXH@Z 00413850 f i ImageMappingDemo.obj
 0001:00012880       ?setTransparencyColour@SimpleImage@@QAEXH@Z 00413880 f i ImageMappingDemo.obj
 0001:000128f0       ?setTransparentColour@RawImageData@@QAEXI@Z 004138f0 f i ImageMappingDemo.obj
 0001:00012a10       ?setXShift@ImagePixelMappingShiftXY@@QAEXN@Z 00413a10 f i ImageMappingDemo.obj
 0001:00012a30       ?setYShift@ImagePixelMappingShiftXY@@QAEXN@Z 00413a30 f i ImageMappingDemo.obj
 0001:00012a50       ?virtDraw@MappableImageObject@@UAEXXZ 00413a50 f i ImageMappingDemo.obj
 0001:00012ae0       ?virtDraw@MyBasicButton@@UAEXXZ 00413ae0 f   MyBasicButton.obj
 0001:00012c80       ?virtDoUpdate@MyBasicButton@@UAEXH@Z 00413c80 f   MyBasicButton.obj
 0001:00012d20       ?drawForegroundRectangle@BaseEngine@@QAEXHHHHI@Z 00413d20 f i MyBasicButton.obj
 0001:00012d60       ?drawForegroundString@BaseEngine@@QAEXHHPBDIPAVFont@@@Z 00413d60 f i MyBasicButton.obj
 0001:00012da0       ?getCurrentMouseX@BaseEngine@@QBEHXZ 00413da0 f i MyBasicButton.obj
 0001:00012dc0       ?getCurrentMouseY@BaseEngine@@QBEHXZ 00413dc0 f i MyBasicButton.obj
 0001:00012de0       ?toggle@MyToggleButton@@QAEXXZ 00413de0 f   MyToggleButton.obj
 0001:00012e40       ?virtSetupBackgroundBuffer@Psyjl16Engine@@UAEXXZ 00413e40 f   Psyjl16Engine.obj
 0001:00013270       ?virtMouseDown@Psyjl16Engine@@UAEXHHH@Z 00414270 f   Psyjl16Engine.obj
 0001:000134b0       ?virtKeyDown@Psyjl16Engine@@UAEXH@Z 004144b0 f   Psyjl16Engine.obj
 0001:00013570       ?virtDrawStringsOnTop@Psyjl16Engine@@UAEXXZ 00414570 f   Psyjl16Engine.obj
 0001:00013660       ?virtInitialiseObjects@Psyjl16Engine@@UAEHXZ 00414660 f   Psyjl16Engine.obj
 0001:00013f50       ?globalRestart@Psyjl16Engine@@QAEXH@Z 00414f50 f   Psyjl16Engine.obj
 0001:00013fa0       ?virtPreDraw@Psyjl16Engine@@UAEXXZ 00414fa0 f   Psyjl16Engine.obj
 0001:00013fe0       ?checkFinish@Psyjl16Engine@@QAE_NXZ 00414fe0 f   Psyjl16Engine.obj
 0001:000143c0       ??$addressof@$$CBV?$_Vector_val@U?$_Simple_types@PAVDisplayableObject@@@std@@@std@@@std@@YAPBV?$_Vector_val@U?$_Simple_types@PAVDisplayableObject@@@std@@@0@ABV10@@Z 004153c0 f i Psyjl16Engine.obj
 0001:000143d0       ??$move@AAPAVRawImageData@@@std@@YA$$QAPAVRawImageData@@AAPAV1@@Z 004153d0 f i Psyjl16Engine.obj
 0001:000143e0       ??$move@AAPAV_Ref_count_base@std@@@std@@YA$$QAPAV_Ref_count_base@0@AAPAV10@@Z 004153e0 f i Psyjl16Engine.obj
 0001:000143f0       ??$swap@PAVRawImageData@@$0A@@std@@YAXAAPAVRawImageData@@0@Z 004153f0 f i Psyjl16Engine.obj
 0001:00014440       ??$swap@PAV_Ref_count_base@std@@$0A@@std@@YAXAAPAV_Ref_count_base@0@0@Z 00415440 f i Psyjl16Engine.obj
 0001:00014490       ??0?$_Vector_const_iterator@V?$_Vector_val@U?$_Simple_types@PAVDisplayableObject@@@std@@@std@@@std@@QAE@ABV01@@Z 00415490 f i Psyjl16Engine.obj
 0001:000144d0       ??0?$_Vector_const_iterator@V?$_Vector_val@U?$_Simple_types@PAVDisplayableObject@@@std@@@std@@@std@@QAE@PAPAVDisplayableObject@@PBU_Container_base12@1@@Z 004154d0 f i Psyjl16Engine.obj
 0001:00014510       ??0MovementPosition@@QAE@XZ 00415510 f i Psyjl16Engine.obj
 0001:00014590       ??0MyBasicButton@@QAE@PAVBaseEngine@@PAV?$basic_string@DU?$char_traits@D@std@@V?$allocator@D@2@@std@@@Z 00415590 f i Psyjl16Engine.obj
 0001:000145e0       ??0MyCharacter@@QAE@PAVBaseEngine@@VSimpleImage@@@Z 004155e0 f i Psyjl16Engine.obj
 0001:00014690       ??0MyEnemy@@QAE@PAVBaseEngine@@VSimpleImage@@PAVMyObjectB@@H@Z 00415690 f i Psyjl16Engine.obj
 0001:00014760       ??0MyObjectB@@QAE@PAVBaseEngine@@VSimpleImage@@@Z 00415760 f i Psyjl16Engine.obj
 0001:00014860       ??0MyToggleButton@@QAE@PAVBaseEngine@@PAV?$basic_string@DU?$char_traits@D@std@@V?$allocator@D@2@@std@@1@Z 00415860 f i Psyjl16Engine.obj
 0001:000148b0       ??0SimpleImage@@QAE@ABV0@@Z 004158b0 f i Psyjl16Engine.obj
 0001:00014900       ??1?$_Vector_const_iterator@V?$_Vector_val@U?$_Simple_types@PAVDisplayableObject@@@std@@@std@@@std@@QAE@XZ 00415900 f i Psyjl16Engine.obj
 0001:00014920       ??1MyBasicButton@@UAE@XZ   00415920 f i Psyjl16Engine.obj
 0001:00014980       ??1MyCharacter@@UAE@XZ     00415980 f i Psyjl16Engine.obj
 0001:000149a0       ??1MyEnemy@@UAE@XZ         004159a0 f i Psyjl16Engine.obj
 0001:000149c0       ??1MyObjectB@@UAE@XZ       004159c0 f i Psyjl16Engine.obj
 0001:000149f0       ??1MyTextBar@@UAE@XZ       004159f0 f i Psyjl16Engine.obj
 0001:00014a10       ??1MyToggleButton@@UAE@XZ  00415a10 f i Psyjl16Engine.obj
 0001:00014a30       ??4?$shared_ptr@VRawImageData@@@std@@QAEAAV01@ABV01@@Z 00415a30 f i Psyjl16Engine.obj
 0001:00014a70       ??4SimpleImage@@QAEAAV0@ABV0@@Z 00415a70 f i Psyjl16Engine.obj
 0001:00014ac0       ??8?$_Vector_const_iterator@V?$_Vector_val@U?$_Simple_types@PAVDisplayableObject@@@std@@@std@@@std@@QBE_NABV01@@Z 00415ac0 f i Psyjl16Engine.obj
 0001:00014b10       ??9?$_Vector_const_iterator@V?$_Vector_val@U?$_Simple_types@PAVDisplayableObject@@@std@@@std@@@std@@QBE_NABV01@@Z 00415b10 f i Psyjl16Engine.obj
 0001:00014b60       ??A?$vector@PAVDisplayableObject@@V?$allocator@PAVDisplayableObject@@@std@@@std@@QBEABQAVDisplayableObject@@I@Z 00415b60 f i Psyjl16Engine.obj
 0001:00014c10       ??D?$_Vector_const_iterator@V?$_Vector_val@U?$_Simple_types@PAVDisplayableObject@@@std@@@std@@@std@@QBEABQAVDisplayableObject@@XZ 00415c10 f i Psyjl16Engine.obj
 0001:00014d20       ??E?$_Vector_const_iterator@V?$_Vector_val@U?$_Simple_types@PAVDisplayableObject@@@std@@@std@@@std@@QAE?AV01@H@Z 00415d20 f i Psyjl16Engine.obj
 0001:00014d70       ??E?$_Vector_const_iterator@V?$_Vector_val@U?$_Simple_types@PAVDisplayableObject@@@std@@@std@@@std@@QAEAAV01@XZ 00415d70 f i Psyjl16Engine.obj
 0001:00014e80       ??_G?$basic_string@DU?$char_traits@D@std@@V?$allocator@D@2@@std@@QAEPAXI@Z 00415e80 f i Psyjl16Engine.obj
 0001:00014ec0       ??_EMyBasicButton@@UAEPAXI@Z 00415ec0 f i Psyjl16Engine.obj
 0001:00014ec0       ??_GMyBasicButton@@UAEPAXI@Z 00415ec0 f i Psyjl16Engine.obj
 0001:00014f00       ??_GMyCharacter@@UAEPAXI@Z 00415f00 f i Psyjl16Engine.obj
 0001:00014f00       ??_EMyCharacter@@UAEPAXI@Z 00415f00 f i Psyjl16Engine.obj
 0001:00014f40       ??_EMyEnemy@@UAEPAXI@Z     00415f40 f i Psyjl16Engine.obj
 0001:00014f40       ??_GMyEnemy@@UAEPAXI@Z     00415f40 f i Psyjl16Engine.obj
 0001:00014f80       ??_EMyObjectB@@UAEPAXI@Z   00415f80 f i Psyjl16Engine.obj
 0001:00014f80       ??_GMyObjectB@@UAEPAXI@Z   00415f80 f i Psyjl16Engine.obj
 0001:00014fc0       ??_GMyTextBar@@UAEPAXI@Z   00415fc0 f i Psyjl16Engine.obj
 0001:00014fc0       ??_EMyTextBar@@UAEPAXI@Z   00415fc0 f i Psyjl16Engine.obj
 0001:00015000       ??_EMyToggleButton@@UAEPAXI@Z 00416000 f i Psyjl16Engine.obj
 0001:00015000       ??_GMyToggleButton@@UAEPAXI@Z 00416000 f i Psyjl16Engine.obj
 0001:00015040       ?_Compat@?$_Vector_const_iterator@V?$_Vector_val@U?$_Simple_types@PAVDisplayableObject@@@std@@@std@@@std@@QBEXABV12@@Z 00416040 f i Psyjl16Engine.obj
 0001:000150e0       ?_Swap@?$_Ptr_base@VRawImageData@@@std@@IAEXAAV12@@Z 004160e0 f i Psyjl16Engine.obj
 0001:00015120       ?begin@?$vector@PAVDisplayableObject@@V?$allocator@PAVDisplayableObject@@@std@@@std@@QBE?AV?$_Vector_const_iterator@V?$_Vector_val@U?$_Simple_types@PAVDisplayableObject@@@std@@@std@@@2@XZ 00416120 f i Psyjl16Engine.obj
 0001:00015170       ?drawBackgroundString@BaseEngine@@QAEXHHPBDIPAVFont@@@Z 00416170 f i Psyjl16Engine.obj
 0001:000151b0       ?end@?$vector@PAVDisplayableObject@@V?$allocator@PAVDisplayableObject@@@std@@@std@@QBE?AV?$_Vector_const_iterator@V?$_Vector_val@U?$_Simple_types@PAVDisplayableObject@@@std@@@std@@@2@XZ 004161b0 f i Psyjl16Engine.obj
 0001:00015200       ?getDisplayableObject@DisplayableObjectContainer@@QBEPAVDisplayableObject@@H@Z 00416200 f i Psyjl16Engine.obj
 0001:00015240       ?getDrawHeight@DisplayableObject@@QBEHXZ 00416240 f i Psyjl16Engine.obj
 0001:00015260       ?getDrawWidth@DisplayableObject@@QBEHXZ 00416260 f i Psyjl16Engine.obj
 0001:00015280       ?getSugar@Psyjl16TileManager@@QAEHXZ 00416280 f i Psyjl16Engine.obj
 0001:000152a0       ?isDone@Psyjl16TileManager@@QAE_NXZ 004162a0 f i Psyjl16Engine.obj
 0001:000152e0       ?isPaused@BaseEngine@@QAE_NXZ 004162e0 f i Psyjl16Engine.obj
 0001:00015320       ?isTyping@MyTextBar@@QAE_NXZ 00416320 f i Psyjl16Engine.obj
 0001:00015440       ?lockBackgroundForDrawing@BaseEngine@@QAEXXZ 00416440 f i Psyjl16Engine.obj
 0001:00015470       ?pause@BaseEngine@@QAEXXZ  00416470 f i Psyjl16Engine.obj
 0001:000155a0       ?setTopLeftPositionOnScreen@TileManager@@QAEXHH@Z 004165a0 f i Psyjl16Engine.obj
 0001:000155c0       ?startTyping@MyTextBar@@QAEXXZ 004165c0 f i Psyjl16Engine.obj
 0001:000155f0       ?stopTyping@MyTextBar@@QAEXXZ 004165f0 f i Psyjl16Engine.obj
 0001:00015610       ?swap@?$shared_ptr@VRawImageData@@@std@@QAEXAAV12@@Z 00416610 f i Psyjl16Engine.obj
 0001:00015660       ?togglePause@MyCharacter@@QAEXXZ 00416660 f i Psyjl16Engine.obj
 0001:000156d0       ?unlockBackgroundForDrawing@BaseEngine@@QAEXXZ 004166d0 f i Psyjl16Engine.obj
 0001:00015700       ?unpause@BaseEngine@@QAEXXZ 00416700 f i Psyjl16Engine.obj
 0001:00015740       _SDL_main                  00416740 f   mainfunction.obj
 0001:000157a0       ?doProgram@@YAHHQAPAD@Z    004167a0 f   mainfunction.obj
 0001:000158e0       ??$_Erase_head@V?$allocator@U?$_Tree_node@U?$pair@$$CBV?$basic_string@DU?$char_traits@D@std@@V?$allocator@D@2@@std@@V?$shared_ptr@VRawImageData@@@2@@std@@PAX@std@@@std@@@?$_Tree_val@U?$_Tree_simple_types@U?$pair@$$CBV?$basic_string@DU?$char_traits@D@std@@V?$allocator@D@2@@std@@V?$shared_ptr@VRawImageData@@@2@@std@@@std@@@std@@QAEXAAV?$allocator@U?$_Tree_node@U?$pair@$$CBV?$basic_string@DU?$char_traits@D@std@@V?$allocator@D@2@@std@@V?$shared_ptr@VRawImageData@@@2@@std@@PAX@std@@@1@@Z 004168e0 f i mainfunction.obj
 0001:00015930       ??$_Erase_tree@V?$allocator@U?$_Tree_node@U?$pair@$$CBV?$basic_string@DU?$char_traits@D@std@@V?$allocator@D@2@@std@@V?$shared_ptr@VRawImageData@@@2@@std@@PAX@std@@@std@@@?$_Tree_val@U?$_Tree_simple_types@U?$pair@$$CBV?$basic_string@DU?$char_traits@D@std@@V?$allocator@D@2@@std@@V?$shared_ptr@VRawImageData@@@2@@std@@@std@@@std@@QAEXAAV?$allocator@U?$_Tree_node@U?$pair@$$CBV?$basic_string@DU?$char_traits@D@std@@V?$allocator@D@2@@std@@V?$shared_ptr@VRawImageData@@@2@@std@@PAX@std@@@1@PAU?$_Tree_node@U?$pair@$$CBV?$basic_string@DU?$char_traits@D@std@@V?$allocator@D@2@@std@@V?$shared_ptr@VRawImageData@@@2@@std@@PAX@1@@Z 00416930 f i mainfunction.obj
 0001:00015990       ??$_Freenode0@V?$allocator@U?$_Tree_node@U?$pair@$$CBV?$basic_string@DU?$char_traits@D@std@@V?$allocator@D@2@@std@@V?$shared_ptr@VRawImageData@@@2@@std@@PAX@std@@@std@@@?$_Tree_node@U?$pair@$$CBV?$basic_string@DU?$char_traits@D@std@@V?$allocator@D@2@@std@@V?$shared_ptr@VRawImageData@@@2@@std@@PAX@std@@SAXAAV?$allocator@U?$_Tree_node@U?$pair@$$CBV?$basic_string@DU?$char_traits@D@std@@V?$allocator@D@2@@std@@V?$shared_ptr@VRawImageData@@@2@@std@@PAX@std@@@1@PAU01@@Z 00416990 f i mainfunction.obj
 0001:00015a20       ??$_Freenode@V?$allocator@U?$_Tree_node@U?$pair@$$CBV?$basic_string@DU?$char_traits@D@std@@V?$allocator@D@2@@std@@V?$shared_ptr@VRawImageData@@@2@@std@@PAX@std@@@std@@@?$_Tree_node@U?$pair@$$CBV?$basic_string@DU?$char_traits@D@std@@V?$allocator@D@2@@std@@V?$shared_ptr@VRawImageData@@@2@@std@@PAX@std@@SAXAAV?$allocator@U?$_Tree_node@U?$pair@$$CBV?$basic_string@DU?$char_traits@D@std@@V?$allocator@D@2@@std@@V?$shared_ptr@VRawImageData@@@2@@std@@PAX@std@@@1@PAU01@@Z 00416a20 f i mainfunction.obj
 0001:00015aa0       ??$exchange@PAU?$_Tree_node@U?$pair@$$CBV?$basic_string@DU?$char_traits@D@std@@V?$allocator@D@2@@std@@V?$shared_ptr@VRawImageData@@@2@@std@@PAX@std@@AAPAU12@@std@@YAPAU?$_Tree_node@U?$pair@$$CBV?$basic_string@DU?$char_traits@D@std@@V?$allocator@D@2@@std@@V?$shared_ptr@VRawImageData@@@2@@std@@PAX@0@AAPAU10@0@Z 00416aa0 f i mainfunction.obj
 0001:00015ad0       ??0Psyjl16Engine@@QAE@XZ   00416ad0 f i mainfunction.obj
 0001:00015b70       ??0Psyjl16TileManager@@QAE@XZ 00416b70 f i mainfunction.obj
 0001:00015d30       ??0TileManager@@QAE@HHHH@Z 00416d30 f i mainfunction.obj
 0001:00015dc0       ??1?$_Tree@V?$_Tmap_traits@V?$basic_string@DU?$char_traits@D@std@@V?$allocator@D@2@@std@@V?$shared_ptr@VRawImageData@@@2@U?$less@V?$basic_string@DU?$char_traits@D@std@@V?$allocator@D@2@@std@@@2@V?$allocator@U?$pair@$$CBV?$basic_string@DU?$char_traits@D@std@@V?$allocator@D@2@@std@@V?$shared_ptr@VRawImageData@@@2@@std@@@2@$0A@@std@@@std@@QAE@XZ 00416dc0 f i mainfunction.obj
 0001:00015e30       ??1?$map@V?$basic_string@DU?$char_traits@D@std@@V?$allocator@D@2@@std@@V?$shared_ptr@VRawImageData@@@2@U?$less@V?$basic_string@DU?$char_traits@D@std@@V?$allocator@D@2@@std@@@2@V?$allocator@U?$pair@$$CBV?$basic_string@DU?$char_traits@D@std@@V?$allocator@D@2@@std@@V?$shared_ptr@VRawImageData@@@2@@std@@@2@@std@@QAE@XZ 00416e30 f i mainfunction.obj
 0001:00015e50       ??1ImageManager@@QAE@XZ    00416e50 f i mainfunction.obj
 0001:00015e80       ??1Psyjl16Engine@@UAE@XZ   00416e80 f i mainfunction.obj
 0001:00015eb0       ??1Psyjl16TileManager@@UAE@XZ 00416eb0 f i mainfunction.obj
 0001:00015f40       ??1TileManager@@UAE@XZ     00416f40 f i mainfunction.obj
 0001:00015f90       ??_GImageManager@@QAEPAXI@Z 00416f90 f i mainfunction.obj
 0001:00015fd0       ??_GPsyjl16Engine@@UAEPAXI@Z 00416fd0 f i mainfunction.obj
 0001:00015fd0       ??_EPsyjl16Engine@@UAEPAXI@Z 00416fd0 f i mainfunction.obj
 0001:00016010       ??_GPsyjl16TileManager@@UAEPAXI@Z 00417010 f i mainfunction.obj
 0001:00016010       ??_EPsyjl16TileManager@@UAEPAXI@Z 00417010 f i mainfunction.obj
 0001:00016050       ??_ETileManager@@UAEPAXI@Z 00417050 f i mainfunction.obj
 0001:00016050       ??_GTileManager@@UAEPAXI@Z 00417050 f i mainfunction.obj
 0001:00016090       ?deallocate@?$_Default_allocator_traits@V?$allocator@U?$_Tree_node@U?$pair@$$CBV?$basic_string@DU?$char_traits@D@std@@V?$allocator@D@2@@std@@V?$shared_ptr@VRawImageData@@@2@@std@@PAX@std@@@std@@@std@@SAXAAV?$allocator@U?$_Tree_node@U?$pair@$$CBV?$basic_string@DU?$char_traits@D@std@@V?$allocator@D@2@@std@@V?$shared_ptr@VRawImageData@@@2@@std@@PAX@std@@@2@QAU?$_Tree_node@U?$pair@$$CBV?$basic_string@DU?$char_traits@D@std@@V?$allocator@D@2@@std@@V?$shared_ptr@VRawImageData@@@2@@std@@PAX@2@I@Z 00417090 f i mainfunction.obj
 0001:000160b0       ?destroyImageManager@ImageManager@@SAXXZ 004170b0 f i mainfunction.obj
 0001:00016110       ?setMapSize@TileManager@@QAEXHH@Z 00417110 f i mainfunction.obj
 0001:000161c0       ?virtMainLoopDoBeforeUpdate@BaseEngine@@UAEXXZ 004171c0 f i mainfunction.obj
 0001:000161d0       ??0BaseEngine@@QAE@XZ      004171d0 f   BaseEngine.obj
 0001:00016410       ??1BaseEngine@@UAE@XZ      00417410 f   BaseEngine.obj
 0001:00016460       ?initialise@BaseEngine@@QAEHPBDHH0H@Z 00417460 f   BaseEngine.obj
 0001:00016590       ?deinitialise@BaseEngine@@QAEXXZ 00417590 f   BaseEngine.obj
 0001:000165c0       ?mainLoop@BaseEngine@@QAEHXZ 004175c0 f   BaseEngine.obj
 0001:000166f0       ?handleEvent@BaseEngine@@QAE_NPATSDL_Event@@@Z 004176f0 f   BaseEngine.obj
 0001:00016d30       ?isKeyPressed@BaseEngine@@QBE_NH@Z 00417d30 f   BaseEngine.obj
 0001:00016d60       ?virtKeyUp@BaseEngine@@UAEXH@Z 00417d60 f   BaseEngine.obj
 0001:00016d70       ?virtKeyDown@BaseEngine@@UAEXH@Z 00417d70 f   BaseEngine.obj
 0001:00016d80       ?virtMouseMoved@BaseEngine@@UAEXHH@Z 00417d80 f   BaseEngine.obj
 0001:00016d90       ?virtMouseDown@BaseEngine@@UAEXHHH@Z 00417d90 f   BaseEngine.obj
 0001:00016da0       ?virtMouseUp@BaseEngine@@UAEXHHH@Z 00417da0 f   BaseEngine.obj
 0001:00016db0       ?virtInitialise@BaseEngine@@UAEHXZ 00417db0 f   BaseEngine.obj
 0001:00016e00       ?virtCreateWindows@BaseEngine@@UAEXPBD@Z 00417e00 f   BaseEngine.obj
 0001:00016e90       ?virtCreateSurfaces@BaseEngine@@UAEXXZ 00417e90 f   BaseEngine.obj
 0001:00016ee0       ?virtCleanUp@BaseEngine@@UAEXXZ 00417ee0 f   BaseEngine.obj
 0001:00016ef0       ?virtSetupBackgroundBuffer@BaseEngine@@UAEXXZ 00417ef0 f   BaseEngine.obj
 0001:00016f10       ?virtDrawStringsUnderneath@BaseEngine@@UAEXXZ 00417f10 f   BaseEngine.obj
 0001:00016f20       ?virtDrawStringsOnTop@BaseEngine@@UAEXXZ 00417f20 f   BaseEngine.obj
 0001:00016f30       ?virtCheckForUpdateTime@BaseEngine@@UAE_NXZ 00417f30 f   BaseEngine.obj
 0001:00016f80       ?virtRenderScreen@BaseEngine@@UAEXXZ 00417f80 f   BaseEngine.obj
 0001:00017110       ?getColour@BaseEngine@@QBEIH@Z 00418110 f   BaseEngine.obj
 0001:00017350       ?virtInitialiseObjects@BaseEngine@@UAEHXZ 00418350 f   BaseEngine.obj
 0001:00017380       ?drawAllObjects@BaseEngine@@UAEXXZ 00418380 f   BaseEngine.obj
 0001:00017540       ?updateAllObjects@BaseEngine@@UAEXH@Z 00418540 f   BaseEngine.obj
 0001:00017700       _mydebug                   00418700 f   BaseEngine.obj
 0001:00017ec0       ??$?0ABV?$allocator@PAVDisplayableObject@@@std@@$$V@?$_Compressed_pair@V?$allocator@PAVDisplayableObject@@@std@@V?$_Vector_val@U?$_Simple_types@PAVDisplayableObject@@@std@@@2@$00@std@@QAE@U_One_then_variadic_args_t@1@ABV?$allocator@PAVDisplayableObject@@@1@@Z 00418ec0 f i BaseEngine.obj
 0001:00017ef0       ??$?0PAVDisplayableObject@@@?$allocator@U_Container_proxy@std@@@std@@QAE@ABV?$allocator@PAVDisplayableObject@@@1@@Z 00418ef0 f i BaseEngine.obj
 0001:00017f10       ??$_Adl_verify_range@V?$_Vector_iterator@V?$_Vector_val@U?$_Simple_types@PAVDisplayableObject@@@std@@@std@@@std@@V12@@std@@YAXABV?$_Vector_iterator@V?$_Vector_val@U?$_Simple_types@PAVDisplayableObject@@@std@@@std@@@0@0@Z 00418f10 f i BaseEngine.obj
 0001:00017f30       ??$_Construct_n_copies_of_ty@U_Value_init_tag@std@@@?$vector@PAVDisplayableObject@@V?$allocator@PAVDisplayableObject@@@std@@@std@@AAEXIABU_Value_init_tag@1@@Z 00418f30 f i BaseEngine.obj
 0001:00018040       ??$_Get_unwrapped@AAV?$_Vector_iterator@V?$_Vector_val@U?$_Simple_types@PAVDisplayableObject@@@std@@@std@@@std@@@std@@YA?A_TAAV?$_Vector_iterator@V?$_Vector_val@U?$_Simple_types@PAVDisplayableObject@@@std@@@std@@@0@@Z 00419040 f i BaseEngine.obj
 0001:00018050       ??$addressof@V?$_Vector_val@U?$_Simple_types@PAVDisplayableObject@@@std@@@std@@@std@@YAPAV?$_Vector_val@U?$_Simple_types@PAVDisplayableObject@@@std@@@0@AAV10@@Z 00419050 f i BaseEngine.obj
 0001:00018060       ??$exchange@PAU_Container_proxy@std@@$$T@std@@YAPAU_Container_proxy@0@AAPAU10@$$QA$$T@Z 00419060 f i BaseEngine.obj
 0001:00018510       ??$forward@ABV?$allocator@PAVDisplayableObject@@@std@@@std@@YAABV?$allocator@PAVDisplayableObject@@@0@ABV10@@Z 00419510 f i BaseEngine.obj
 0001:00018520       ??0?$_Vector_iterator@V?$_Vector_val@U?$_Simple_types@PAVDisplayableObject@@@std@@@std@@@std@@QAE@ABV01@@Z 00419520 f i BaseEngine.obj
 0001:00018550       ??0?$_Vector_iterator@V?$_Vector_val@U?$_Simple_types@PAVDisplayableObject@@@std@@@std@@@std@@QAE@PAPAVDisplayableObject@@PBU_Container_base12@1@@Z 00419550 f i BaseEngine.obj
 0001:00018580       ??0?$_Vector_val@U?$_Simple_types@PAVDisplayableObject@@@std@@@std@@QAE@XZ 00419580 f i BaseEngine.obj
 0001:000185d0       ??0?$allocator@PAVDisplayableObject@@@std@@QAE@XZ 004195d0 f i BaseEngine.obj
 0001:000185f0       ??0?$vector@PAVDisplayableObject@@V?$allocator@PAVDisplayableObject@@@std@@@std@@QAE@IABV?$allocator@PAVDisplayableObject@@@1@@Z 004195f0 f i BaseEngine.obj
 0001:00018630       ??0DisplayableObjectContainer@@QAE@H@Z 00419630 f i BaseEngine.obj
 0001:00018690       ??0FilterPoints@@QAE@XZ    00419690 f i BaseEngine.obj
 0001:000186b0       ??1?$_Tidy_guard@V?$vector@PAVDisplayableObject@@V?$allocator@PAVDisplayableObject@@@std@@@std@@@std@@QAE@XZ 004196b0 f i BaseEngine.obj
 0001:000186e0       ??1?$_Vector_iterator@V?$_Vector_val@U?$_Simple_types@PAVDisplayableObject@@@std@@@std@@@std@@QAE@XZ 004196e0 f i BaseEngine.obj
 0001:00018700       ??1?$vector@PAVDisplayableObject@@V?$allocator@PAVDisplayableObject@@@std@@@std@@QAE@XZ 00419700 f i BaseEngine.obj
 0001:00018770       ??1DisplayableObjectContainer@@UAE@XZ 00419770 f i BaseEngine.obj
 0001:000187e0       ??D?$_Vector_iterator@V?$_Vector_val@U?$_Simple_types@PAVDisplayableObject@@@std@@@std@@@std@@QBEAAPAVDisplayableObject@@XZ 004197e0 f i BaseEngine.obj
 0001:00018800       ??E?$_Vector_iterator@V?$_Vector_val@U?$_Simple_types@PAVDisplayableObject@@@std@@@std@@@std@@QAE?AV01@H@Z 00419800 f i BaseEngine.obj
 0001:00018850       ??_GBaseEngine@@UAEPAXI@Z  00419850 f i BaseEngine.obj
 0001:00018850       ??_EBaseEngine@@UAEPAXI@Z  00419850 f i BaseEngine.obj
 0001:00018890       ??_EDisplayableObjectContainer@@UAEPAXI@Z 00419890 f i BaseEngine.obj
 0001:00018890       ??_GDisplayableObjectContainer@@UAEPAXI@Z 00419890 f i BaseEngine.obj
 0001:000188d0       ?_Buy_nonzero@?$vector@PAVDisplayableObject@@V?$allocator@PAVDisplayableObject@@@std@@@std@@AAEXI@Z 004198d0 f i BaseEngine.obj
 0001:00018910       ?_Buy_raw@?$vector@PAVDisplayableObject@@V?$allocator@PAVDisplayableObject@@@std@@@std@@AAEXI@Z 00419910 f i BaseEngine.obj
 0001:00018990       ?_Tidy@?$vector@PAVDisplayableObject@@V?$allocator@PAVDisplayableObject@@@std@@@std@@AAEXXZ 00419990 f i BaseEngine.obj
 0001:00018a80       ?_Unwrapped@?$_Vector_iterator@V?$_Vector_val@U?$_Simple_types@PAVDisplayableObject@@@std@@@std@@@std@@QBEPAPAVDisplayableObject@@XZ 00419a80 f i BaseEngine.obj
 0001:00018aa0       ?_Verify_range@std@@YAXABV?$_Vector_const_iterator@V?$_Vector_val@U?$_Simple_types@PAVDisplayableObject@@@std@@@std@@@1@0@Z 00419aa0 f i BaseEngine.obj
 0001:00018ba0       ?begin@?$vector@PAVDisplayableObject@@V?$allocator@PAVDisplayableObject@@@std@@@std@@QAE?AV?$_Vector_iterator@V?$_Vector_val@U?$_Simple_types@PAVDisplayableObject@@@std@@@std@@@2@XZ 00419ba0 f i BaseEngine.obj
 0001:00018bf0       ?end@?$vector@PAVDisplayableObject@@V?$allocator@PAVDisplayableObject@@@std@@@std@@QAE?AV?$_Vector_iterator@V?$_Vector_val@U?$_Simple_types@PAVDisplayableObject@@@std@@@std@@@2@XZ 00419bf0 f i BaseEngine.obj
 0001:00018c40       ?getHasActed@DisplayableObject@@QBE_NXZ 00419c40 f i BaseEngine.obj
 0001:00018c60       ?isTimeToAct@BaseEngine@@QBE_NXZ 00419c60 f i BaseEngine.obj
 0001:00018ca0       ?mySDLUpdateTexture@DrawingSurface@@QAEXPAUSDL_Texture@@@Z 00419ca0 f i BaseEngine.obj
 0001:00018ce0       ?setHasActed@DisplayableObject@@QAEX_N@Z 00419ce0 f i BaseEngine.obj
 0001:00018d00       ?setTimeToAct@BaseEngine@@QAEXH@Z 00419d00 f i BaseEngine.obj
 0001:00018d30       ?symbolToKeycode@BaseEngine@@SAHH@Z 00419d30 f i BaseEngine.obj
 0001:00019220       _fprintf                   0041a220 f i BaseEngine.obj
 0001:00019260       ??0DisplayableObject@@QAE@PAVBaseEngine@@HH_N@Z 0041a260 f   DisplayableObject.obj
 0001:00019320       ??0DisplayableObject@@QAE@HHPAVBaseEngine@@HH_N@Z 0041a320 f   DisplayableObject.obj
 0001:000193e0       ??1DisplayableObject@@UAE@XZ 0041a3e0 f   DisplayableObject.obj
 0001:00019400       ?virtDraw@DisplayableObject@@UAEXXZ 0041a400 f   DisplayableObject.obj
 0001:000194a0       ?virtDoUpdate@DisplayableObject@@UAEXH@Z 0041a4a0 f   DisplayableObject.obj
 0001:000194b0       ?redrawDisplay@DisplayableObject@@QAEXXZ 0041a4b0 f   DisplayableObject.obj
 0001:000194d0       ?redrawRectangle@DisplayableObject@@QAEXXZ 0041a4d0 f   DisplayableObject.obj
 0001:00019510       ?virtIsObjectInRedrawArea@DisplayableObject@@QAE_NXZ 0041a510 f   DisplayableObject.obj
 0001:000195b0       ?fixPosition@DisplayableObject@@QAEXXZ 0041a5b0 f   DisplayableObject.obj
 0001:00019780       ??_EDisplayableObject@@UAEPAXI@Z 0041a780 f i DisplayableObject.obj
 0001:00019780       ??_GDisplayableObject@@UAEPAXI@Z 0041a780 f i DisplayableObject.obj
 0001:000197c0       ?convertVirtualPixelToClickedXPosition@BaseEngine@@QAEHH@Z 0041a7c0 f i DisplayableObject.obj
 0001:000197f0       ?convertVirtualPixelToClickedYPosition@BaseEngine@@QAEHH@Z 0041a7f0 f i DisplayableObject.obj
 0001:00019820       ?convertVirtualToRealXPosition@DrawingSurface@@QAEHH@Z 0041a820 f i DisplayableObject.obj
 0001:00019860       ?convertVirtualToRealYPosition@DrawingSurface@@QAEHH@Z 0041a860 f i DisplayableObject.obj
 0001:000198a0       ?redrawRectangle@BaseEngine@@QAEXHHHH@Z 0041a8a0 f i DisplayableObject.obj
 0001:00019a10       ?setForegroundPixel@BaseEngine@@QAEXHHI@Z 0041aa10 f i DisplayableObject.obj
 0001:00019a40       ??0FontManager@@QAE@XZ     0041aa40 f   FontManager.obj
 0001:00019ab0       ??1FontManager@@QAE@XZ     0041aab0 f   FontManager.obj
 0001:00019b20       ?getFont@FontManager@@QAEPAVFont@@PBDH@Z 0041ab20 f   FontManager.obj
 0001:00019cc0       ?loadFonts@FontManager@@QAEXXZ 0041acc0 f   FontManager.obj
 0001:00019df0       ??$growArrayOfObjects@PAVFont@@@@YAPAPAVFont@@PAPAV0@AAHH@Z 0041adf0 f i FontManager.obj
 0001:00019eb0       ??0Font@@QAE@PBDH@Z        0041aeb0 f i FontManager.obj
 0001:00019f30       ??1Font@@QAE@XZ            0041af30 f i FontManager.obj
 0001:00019fb0       ??_GFont@@QAEPAXI@Z        0041afb0 f i FontManager.obj
 0001:00019ff0       ?getName@Font@@QAEPBDXZ    0041aff0 f i FontManager.obj
 0001:0001a010       ?getSize@Font@@QAEHXZ      0041b010 f i FontManager.obj
 0001:0001a030       ?virtDoUpdate@MyCharacter@@UAEXH@Z 0041b030 f   MyCharacter.obj
 0001:0001a440       ?reset@MyCharacter@@QAEXXZ 0041b440 f   MyCharacter.obj
 0001:0001a5c0       ?checkRectangles@CollisionDetection@@SA_NHHHHHHHH@Z 0041b5c0 f i MyCharacter.obj
 0001:0001a610       ?getDrawingRegionBottom@DisplayableObject@@QBEHXZ 0041b610 f i MyCharacter.obj
 0001:0001a640       ?getDrawingRegionLeft@DisplayableObject@@QBEHXZ 0041b640 f i MyCharacter.obj
 0001:0001a660       ?getDrawingRegionRight@DisplayableObject@@QBEHXZ 0041b660 f i MyCharacter.obj
 0001:0001a690       ?getDrawingRegionTop@DisplayableObject@@QBEHXZ 0041b690 f i MyCharacter.obj
 0001:0001a6b0       ?getMapXForScreenX@TileManager@@QBEHH@Z 0041b6b0 f i MyCharacter.obj
 0001:0001a6e0       ?getMapYForScreenY@TileManager@@QBEHH@Z 0041b6e0 f i MyCharacter.obj
 0001:0001a710       ?getMyMap@Psyjl16TileManager@@QAEHHH@Z 0041b710 f i MyCharacter.obj
 0001:0001a740       ?getTileHeight@TileManager@@QBEHXZ 0041b740 f i MyCharacter.obj
 0001:0001a760       ?getTileManager@Psyjl16Engine@@QAEAAVPsyjl16TileManager@@XZ 0041b760 f i MyCharacter.obj
 0001:0001a780       ?getTileWidth@TileManager@@QBEHXZ 0041b780 f i MyCharacter.obj
 0001:0001a7a0       ?setMyMap@Psyjl16TileManager@@QAEXHHH@Z 0041b7a0 f i MyCharacter.obj
 0001:0001a7f0       ?stun@MyEnemy@@QAEXXZ      0041b7f0 f   MyEnemy.obj
 0001:0001a850       ?reset@MyEnemy@@QAEXXZ     0041b850 f   MyEnemy.obj
 0001:0001a890       ?virtDoUpdate@MyEnemy@@UAEXH@Z 0041b890 f   MyEnemy.obj
 0001:0001aaa0       ?calculate@MovementPosition@@QAEXH@Z 0041baa0 f i MyEnemy.obj
 0001:0001ab90       ?getX@MovementPosition@@QBEHXZ 0041bb90 f i MyEnemy.obj
 0001:0001abb0       ?getY@MovementPosition@@QBEHXZ 0041bbb0 f i MyEnemy.obj
 0001:0001abd0       ?setup@MovementPosition@@QAEXHHHHHH@Z 0041bbd0 f i MyEnemy.obj
 0001:0001ac40       ?virtDraw@MyObjectB@@UAEXXZ 0041bc40 f   MyObjectB.obj
 0001:0001acb0       ?virtDrawTileAt@Psyjl16TileManager@@UBEXPAVBaseEngine@@PAVDrawingSurface@@HHHH@Z 0041bcb0 f   Psyjl16TileManager.obj
 0001:0001ad90       ?reset@Psyjl16TileManager@@QAEXXZ 0041bd90 f   Psyjl16TileManager.obj
 0001:0001aea0       ?getMapValue@TileManager@@QBEHHH@Z 0041bea0 f i Psyjl16TileManager.obj
 0001:0001aed0       ?changePixelColour@ImagePixelMapping@@UAE_NHHAAHPAVDrawingSurface@@@Z 0041bed0 f i SimpleImage.obj
 0001:0001aef0       ?mapCoordinates@CroppedImagePixelMapping@@UAE_NAAN0ABVSimpleImage@@@Z 0041bef0 f i SimpleImage.obj
 0001:0001af90       ??0SimpleImage@@QAE@XZ     0041bf90 f   SimpleImage.obj
 0001:0001afc0       ??0SimpleImage@@QAE@V?$shared_ptr@VRawImageData@@@std@@@Z 0041bfc0 f   SimpleImage.obj
 0001:0001b000       ?exists@SimpleImage@@QBE_NXZ 0041c000 f   SimpleImage.obj
 0001:0001b020       ?renderImage@SimpleImage@@QBEXPAVDrawingSurface@@HHHHHH@Z 0041c020 f   SimpleImage.obj
 0001:0001b130       ?renderImageWithMask@SimpleImage@@QBEXPAVDrawingSurface@@HHHHHHH@Z 0041c130 f   SimpleImage.obj
 0001:0001b270       ?renderImageWithMaskAndTransparency@SimpleImage@@QBEXPAVDrawingSurface@@HHHHHHHH@Z 0041c270 f   SimpleImage.obj
 0001:0001b440       ?renderImageBlit@SimpleImage@@QAEXPAVBaseEngine@@PAVDrawingSurface@@HHHHHHHH@Z 0041c440 f   SimpleImage.obj
 0001:0001b6f0       ?adjustXYWidthHeight@SimpleImage@@SA_NPAVDrawingSurface@@AAH11111@Z 0041c6f0 f   SimpleImage.obj
 0001:0001b8f0       ?renderImageApplyingMapping@SimpleImage@@QBEXPAVBaseEngine@@PAVDrawingSurface@@HHHHPAVImagePixelMapping@@@Z 0041c8f0 f   SimpleImage.obj
 0001:0001bf00       ??BDrawingSurface@@QAEPAUSDL_Surface@@XZ 0041cf00 f i SimpleImage.obj
 0001:0001bf20       ?convertClickedToVirtualPixelXPosition@BaseEngine@@QAEHH@Z 0041cf20 f i SimpleImage.obj
 0001:0001bf50       ?convertClickedToVirtualPixelYPosition@BaseEngine@@QAEHH@Z 0041cf50 f i SimpleImage.obj
 0001:0001bf80       ?getSurface@RawImageData@@QAEPAUSDL_Surface@@XZ 0041cf80 f i SimpleImage.obj
 0001:0001bfa0       ?rawGetPixel@DrawingSurface@@QBEIHH@Z 0041cfa0 f i SimpleImage.obj
 0001:0001c010       ?virtSetupBackgroundBuffer@SimpleDemo@@UAEXXZ 0041d010 f   SimpleDemo.obj
 0001:0001c150       ?virtInitialiseObjects@SimpleDemo@@UAEHXZ 0041d150 f   SimpleDemo.obj
 0001:0001c2d0       ?virtDrawStringsUnderneath@SimpleDemo@@UAEXXZ 0041d2d0 f   SimpleDemo.obj
 0001:0001c350       ?virtDrawStringsOnTop@SimpleDemo@@UAEXXZ 0041d350 f   SimpleDemo.obj
 0001:0001c410       ?virtMouseDown@SimpleDemo@@UAEXHHH@Z 0041d410 f   SimpleDemo.obj
 0001:0001c430       ?virtKeyDown@SimpleDemo@@UAEXH@Z 0041d430 f   SimpleDemo.obj
 0001:0001c5a0       ??$_Emplace_back_with_unused_capacity@ABQAVDisplayableObject@@@?$vector@PAVDisplayableObject@@V?$allocator@PAVDisplayableObject@@@std@@@std@@AAE?A_TABQAVDisplayableObject@@@Z 0041d5a0 f i SimpleDemo.obj
 0001:0001c640       ??$_Emplace_reallocate@ABQAVDisplayableObject@@@?$vector@PAVDisplayableObject@@V?$allocator@PAVDisplayableObject@@@std@@@std@@QAEPAPAVDisplayableObject@@QAPAV2@ABQAV2@@Z 0041d640 f i SimpleDemo.obj
 0001:0001c890       ??$construct@PAVDisplayableObject@@ABQAV1@@?$_Default_allocator_traits@V?$allocator@PAVDisplayableObject@@@std@@@std@@SAXAAV?$allocator@PAVDisplayableObject@@@1@QAPAVDisplayableObject@@ABQAV3@@Z 0041d890 f i SimpleDemo.obj
 0001:0001c8e0       ??$emplace_back@ABQAVDisplayableObject@@@?$vector@PAVDisplayableObject@@V?$allocator@PAVDisplayableObject@@@std@@@std@@QAE?A_TABQAVDisplayableObject@@@Z 0041d8e0 f i SimpleDemo.obj
 0001:0001c960       ??$forward@ABQAVDisplayableObject@@@std@@YAABQAVDisplayableObject@@ABQAV1@@Z 0041d960 f i SimpleDemo.obj
 0001:0001c970       ??0BouncingObject@@QAE@PAVBaseEngine@@HHNNNN@Z 0041d970 f i SimpleDemo.obj
 0001:0001ca40       ??1BouncingObject@@UAE@XZ  0041da40 f i SimpleDemo.obj
 0001:0001ca60       ??_EBouncingObject@@UAEPAXI@Z 0041da60 f i SimpleDemo.obj
 0001:0001ca60       ??_GBouncingObject@@UAEPAXI@Z 0041da60 f i SimpleDemo.obj
 0001:0001caa0       ?_Umove@?$vector@PAVDisplayableObject@@V?$allocator@PAVDisplayableObject@@@std@@@std@@AAEPAPAVDisplayableObject@@PAPAV3@00@Z 0041daa0 f i SimpleDemo.obj
 0001:0001cae0       ?appendObjectToArray@DisplayableObjectContainer@@QAEXPAVDisplayableObject@@@Z 0041dae0 f i SimpleDemo.obj
 0001:0001cb20       ?push_back@?$vector@PAVDisplayableObject@@V?$allocator@PAVDisplayableObject@@@std@@@std@@QAEXABQAVDisplayableObject@@@Z 0041db20 f i SimpleDemo.obj
 0001:0001cb40       ?virtDoUpdate@BouncingObject@@UAEXH@Z 0041db40 f i SimpleDemo.obj
 0001:0001cf40       ?virtDraw@BouncingObject@@UAEXXZ 0041df40 f i SimpleDemo.obj
 0001:0001cfe0       ??0StarfieldDemo@@QAE@XZ   0041dfe0 f   StarfieldDemo.obj
 0001:0001d020       ??1StarfieldDemo@@UAE@XZ   0041e020 f   StarfieldDemo.obj
 0001:0001d050       ?virtSetupBackgroundBuffer@StarfieldDemo@@UAEXXZ 0041e050 f   StarfieldDemo.obj
 0001:0001d190       ?virtMainLoopDoBeforeUpdate@StarfieldDemo@@UAEXXZ 0041e190 f   StarfieldDemo.obj
 0001:0001d1d0       ?copyAllBackgroundBuffer@StarfieldDemo@@UAEXXZ 0041e1d0 f   StarfieldDemo.obj
 0001:0001d310       ??_GStarfieldDemo@@UAEPAXI@Z 0041e310 f i StarfieldDemo.obj
 0001:0001d310       ??_EStarfieldDemo@@UAEPAXI@Z 0041e310 f i StarfieldDemo.obj
 0001:0001d350       ?drawAllTiles@TileManager@@QBEXPAVBaseEngine@@PAVDrawingSurface@@@Z 0041e350 f   TileManager.obj
 0001:0001d3f0       ?drawSomeTiles@TileManager@@QBEXPAVBaseEngine@@PAVDrawingSurface@@HHHH@Z 0041e3f0 f   TileManager.obj
 0001:0001d490       ?virtDrawTileAt@TileManager@@UBEXPAVBaseEngine@@PAVDrawingSurface@@HHHH@Z 0041e490 f   TileManager.obj
 0001:0001d580       ??0BouncingBall@@QAE@PAVBouncingBallMain@@HHHHPBDHH@Z 0041e580 f   BouncingBall.obj
 0001:0001d650       ??1BouncingBall@@UAE@XZ    0041e650 f   BouncingBall.obj
 0001:0001d670       ?virtDraw@BouncingBall@@UAEXXZ 0041e670 f   BouncingBall.obj
 0001:0001d940       ?virtDoUpdate@BouncingBall@@UAEXH@Z 0041e940 f   BouncingBall.obj
 0001:0001d960       ??0BouncingBall1@@QAE@PAVBouncingBallMain@@HHHHPBDHHPAVTileManager@@@Z 0041e960 f   BouncingBall.obj
 0001:0001da00       ?setMovement@BouncingBall1@@QAEXHHHHHHH@Z 0041ea00 f   BouncingBall.obj
 0001:0001da70       ?virtDoUpdate@BouncingBall1@@UAEXH@Z 0041ea70 f   BouncingBall.obj
 0001:0001dbe0       ??0BouncingBall2@@QAE@PAVBouncingBallMain@@HHHHPBDHH@Z 0041ebe0 f   BouncingBall.obj
 0001:0001dc60       ?setPosition@BouncingBall2@@QAEXNN@Z 0041ec60 f   BouncingBall.obj
 0001:0001dc90       ?setSpeed@BouncingBall2@@QAEXNN@Z 0041ec90 f   BouncingBall.obj
 0001:0001dcc0       ?virtDoUpdate@BouncingBall2@@UAEXH@Z 0041ecc0 f   BouncingBall.obj
 0001:0001e2b0       ??1BouncingBall1@@UAE@XZ   0041f2b0 f i BouncingBall.obj
 0001:0001e2d0       ??1BouncingBall2@@UAE@XZ   0041f2d0 f i BouncingBall.obj
 0001:0001e2f0       ??_GBouncingBall1@@UAEPAXI@Z 0041f2f0 f i BouncingBall.obj
 0001:0001e2f0       ??_EBouncingBall1@@UAEPAXI@Z 0041f2f0 f i BouncingBall.obj
 0001:0001e330       ??_GBouncingBall2@@UAEPAXI@Z 0041f330 f i BouncingBall.obj
 0001:0001e330       ??_EBouncingBall2@@UAEPAXI@Z 0041f330 f i BouncingBall.obj
 0001:0001e370       ??_GBouncingBall@@UAEPAXI@Z 0041f370 f i BouncingBall.obj
 0001:0001e370       ??_EBouncingBall@@UAEPAXI@Z 0041f370 f i BouncingBall.obj
 0001:0001e3b0       ?getBackgroundSurface@BaseEngine@@QAEPAVDrawingSurface@@XZ 0041f3b0 f i BouncingBall.obj
 0001:0001e3d0       ?hasMovementFinished@MovementPosition@@QBE_NH@Z 0041f3d0 f i BouncingBall.obj
 0001:0001e410       ?isValidTilePosition@TileManager@@QBE_NHH@Z 0041f410 f i BouncingBall.obj
 0001:0001e4a0       ?reverse@MovementPosition@@QAEXXZ 0041f4a0 f i BouncingBall.obj
 0001:0001e530       ?setAndRedrawMapValueAt@TileManager@@QAEXHHHPAVBaseEngine@@PAVDrawingSurface@@@Z 0041f530 f i BouncingBall.obj
 0001:0001e5d0       ?setMapValue@TileManager@@QAEHHHH@Z 0041f5d0 f i BouncingBall.obj
 0001:0001e610       ?virtMouseDown@BouncingBall@@UAEXHHH@Z 0041f610 f i BouncingBall.obj
 0001:0001e650       ?virtSetupBackgroundBuffer@BouncingBallMain@@UAEXXZ 0041f650 f   BouncingBallMain.obj
 0001:0001ee90       ?virtInitialiseObjects@BouncingBallMain@@UAEHXZ 0041fe90 f   BouncingBallMain.obj
 0001:0001f160       ?virtDrawStringsUnderneath@BouncingBallMain@@UAEXXZ 00420160 f   BouncingBallMain.obj
 0001:0001f1a0       ?virtMouseDown@BouncingBallMain@@UAEXHHH@Z 004201a0 f   BouncingBallMain.obj
 0001:0001f1e0       ?virtKeyDown@BouncingBallMain@@UAEXH@Z 004201e0 f   BouncingBallMain.obj
 0001:0001f500       ?drawBackgroundLine@BaseEngine@@QAEXHHHHI@Z 00420500 f i BouncingBallMain.obj
 0001:0001f570       ?drawBackgroundPolygon@BaseEngine@@QAEXNNNNNNNNI@Z 00420570 f i BouncingBallMain.obj
 0001:0001f630       ?drawBackgroundPolygon@BaseEngine@@QAEXNNNNNNNNNNI@Z 00420630 f i BouncingBallMain.obj
 0001:0001f700       ?drawBackgroundPolygon@BaseEngine@@QAEXNNNNNNNNNNNNI@Z 00420700 f i BouncingBallMain.obj
 0001:0001f7f0       ?drawBackgroundPolygon@BaseEngine@@QAEXNNNNNNNNNNNNNNI@Z 004207f0 f i BouncingBallMain.obj
 0001:0001f8f0       ?drawBackgroundPolygon@BaseEngine@@QAEXNNNNNNNNNNNNNNNNI@Z 004208f0 f i BouncingBallMain.obj
 0001:0001fa30       ?drawBackgroundTriangle@BaseEngine@@QAEXHHHHHHI@Z 00420a30 f i BouncingBallMain.obj
 0001:0001fac0       ?drawBackgroundVerticalSidedRegion@BaseEngine@@QAEXNNNNNNI@Z 00420ac0 f i BouncingBallMain.obj
 0001:0001fb50       ?getFont@BaseEngine@@QAEPAVFont@@PBDH@Z 00420b50 f i BouncingBallMain.obj
 0001:0001fb80       ?virtInitialise@ZoomingDemo@@UAEHXZ 00420b80 f   ZoomingDemo.obj
 0001:0001fbd0       ?virtSetupBackgroundBuffer@ZoomingDemo@@UAEXXZ 00420bd0 f   ZoomingDemo.obj
 0001:0001fbf0       ?virtInitialiseObjects@ZoomingDemo@@UAEHXZ 00420bf0 f   ZoomingDemo.obj
 0001:0001fdb0       ?virtDrawStringsUnderneath@ZoomingDemo@@UAEXXZ 00420db0 f   ZoomingDemo.obj
 0001:0001fe60       ?virtDrawStringsOnTop@ZoomingDemo@@UAEXXZ 00420e60 f   ZoomingDemo.obj
 0001:0001fee0       ?virtMouseDown@ZoomingDemo@@UAEXHHH@Z 00420ee0 f   ZoomingDemo.obj
 0001:0001ff30       ?virtKeyDown@ZoomingDemo@@UAEXH@Z 00420f30 f   ZoomingDemo.obj
 0001:00020030       ?virtMouseWheel@ZoomingDemo@@UAEXHHHH@Z 00421030 f   ZoomingDemo.obj
 0001:00020230       ??0SimpleFlashingDragableImageObject@@QAE@HHPAVBaseEngine@@V?$basic_string@DU?$char_traits@D@std@@V?$allocator@D@2@@std@@1_N2@Z 00421230 f i ZoomingDemo.obj
 0001:00020430       ??1SimpleFlashingDragableImageObject@@UAE@XZ 00421430 f i ZoomingDemo.obj
 0001:00020470       ??_GSimpleFlashingDragableImageObject@@UAEPAXI@Z 00421470 f i ZoomingDemo.obj
 0001:00020470       ??_ESimpleFlashingDragableImageObject@@UAEPAXI@Z 00421470 f i ZoomingDemo.obj
 0001:000204b0       ?changeOffset@FilterPointsTranslation@@QAEXHH@Z 004214b0 f i ZoomingDemo.obj
 0001:000204f0       ?compress@FilterPointsScaling@@QAEXXZ 004214f0 f i ZoomingDemo.obj
 0001:00020520       ?compressX@FilterPointsScaling@@QAEXXZ 00421520 f i ZoomingDemo.obj
 0001:00020570       ?compressY@FilterPointsScaling@@QAEXXZ 00421570 f i ZoomingDemo.obj
 0001:000205c0       ?setOffset@FilterPointsTranslation@@QAEXHH@Z 004215c0 f i ZoomingDemo.obj
 0001:000205f0       ?stretch@FilterPointsScaling@@QAEXXZ 004215f0 f i ZoomingDemo.obj
 0001:00020620       ?stretchX@FilterPointsScaling@@QAEXXZ 00421620 f i ZoomingDemo.obj
 0001:00020670       ?stretchY@FilterPointsScaling@@QAEXXZ 00421670 f i ZoomingDemo.obj
 0001:000206c0       ?virtDoUpdate@SimpleFlashingDragableImageObject@@UAEXH@Z 004216c0 f i ZoomingDemo.obj
 0001:00020720       ?virtDraw@SimpleFlashingDragableImageObject@@UAEXXZ 00421720 f i ZoomingDemo.obj
 0001:00020810       ?virtMouseDown@SimpleFlashingDragableImageObject@@UAEXHHH@Z 00421810 f i ZoomingDemo.obj
 0001:00020880       ?virtMouseMoved@SimpleFlashingDragableImageObject@@UAEXHH@Z 00421880 f i ZoomingDemo.obj
 0001:000208e0       ?virtMouseUp@SimpleFlashingDragableImageObject@@UAEXHHH@Z 004218e0 f i ZoomingDemo.obj
 0001:00020900       ??0MazeDemoMain@@QAE@XZ    00421900 f   MazeDemoMain.obj
 0001:00020980       ??1MazeDemoMain@@UAE@XZ    00421980 f   MazeDemoMain.obj
 0001:000209c0       ?virtSetupBackgroundBuffer@MazeDemoMain@@UAEXXZ 004219c0 f   MazeDemoMain.obj
 0001:00020bb0       ?virtInitialiseObjects@MazeDemoMain@@UAEHXZ 00421bb0 f   MazeDemoMain.obj
 0001:00020db0       ?virtDrawStringsUnderneath@MazeDemoMain@@UAEXXZ 00421db0 f   MazeDemoMain.obj
 0001:00020e40       ?virtMouseDown@MazeDemoMain@@UAEXHHH@Z 00421e40 f   MazeDemoMain.obj
 0001:00020e50       ?virtKeyDown@MazeDemoMain@@UAEXH@Z 00421e50 f   MazeDemoMain.obj
 0001:000210a0       ??0MazeDemoTileManager@@QAE@XZ 004220a0 f i MazeDemoMain.obj
 0001:000210d0       ??0TileManager@@QAE@HH@Z   004220d0 f i MazeDemoMain.obj
 0001:00021150       ??1MazeDemoTileManager@@UAE@XZ 00422150 f i MazeDemoMain.obj
 0001:00021180       ??_EMazeDemoMain@@UAEPAXI@Z 00422180 f i MazeDemoMain.obj
 0001:00021180       ??_GMazeDemoMain@@UAEPAXI@Z 00422180 f i MazeDemoMain.obj
 0001:000211c0       ??_EMazeDemoTileManager@@UAEPAXI@Z 004221c0 f i MazeDemoMain.obj
 0001:000211c0       ??_GMazeDemoTileManager@@UAEPAXI@Z 004221c0 f i MazeDemoMain.obj
 0001:00021200       ??0MazeDemoObject@@QAE@PAVMazeDemoMain@@HH@Z 00422200 f   MazeDemoObject.obj
 0001:000212e0       ??1MazeDemoObject@@UAE@XZ  004222e0 f   MazeDemoObject.obj
 0001:00021300       ?virtDraw@MazeDemoObject@@UAEXXZ 00422300 f   MazeDemoObject.obj
 0001:000213b0       ?virtDoUpdate@MazeDemoObject@@UAEXH@Z 004223b0 f   MazeDemoObject.obj
 0001:00021a50       ??_GMazeDemoObject@@UAEPAXI@Z 00422a50 f i MazeDemoObject.obj
 0001:00021a50       ??_EMazeDemoObject@@UAEPAXI@Z 00422a50 f i MazeDemoObject.obj
 0001:00021a90       ?GetTileManager@MazeDemoMain@@QAEAAVMazeDemoTileManager@@XZ 00422a90 f i MazeDemoObject.obj
 0001:00021ab0       ?checkCircles@CollisionDetection@@SA_NHHHHH@Z 00422ab0 f i MazeDemoObject.obj
 0001:00021b10       ?drawForegroundOval@BaseEngine@@QAEXHHHHI@Z 00422b10 f i MazeDemoObject.obj
 0001:00021b50       ?getXCentre@DisplayableObject@@QBEHXZ 00422b50 f i MazeDemoObject.obj
 0001:00021b80       ?getXDiffForDirection@MazeDemoObject@@QAEHH@Z 00422b80 f i MazeDemoObject.obj
 0001:00021bf0       ?getYCentre@DisplayableObject@@QBEHXZ 00422bf0 f i MazeDemoObject.obj
 0001:00021c20       ?getYDiffForDirection@MazeDemoObject@@QAEHH@Z 00422c20 f i MazeDemoObject.obj
 0001:00021c90       ?virtDrawTileAt@MazeDemoTileManager@@UBEXPAVBaseEngine@@PAVDrawingSurface@@HHHH@Z 00422c90 f   MazeDemoTileManager.obj
 0001:00021e75       _SDL_CreateRGBSurface      00422e75 f   SDL2:SDL2.dll
 0001:00021e7b       _SDL_FreeSurface           00422e7b f   SDL2:SDL2.dll
 0001:00021e81       _SDL_UpperBlit             00422e81 f   SDL2:SDL2.dll
 0001:00021e87       _SDL_LockSurface           00422e87 f   SDL2:SDL2.dll
 0001:00021e8d       _SDL_UnlockSurface         00422e8d f   SDL2:SDL2.dll
 0001:00021e93       _SDL_FillRect              00422e93 f   SDL2:SDL2.dll
 0001:00021e99       _SDL_GetError              00422e99 f   SDL2:SDL2.dll
 0001:00021e9f       _SDL_CreateWindow          00422e9f f   SDL2:SDL2.dll
 0001:00021ea5       _SDL_PollEvent             00422ea5 f   SDL2:SDL2.dll
 0001:00021eab       _SDL_WaitEvent             00422eab f   SDL2:SDL2.dll
 0001:00021eb1       _SDL_CreateRenderer        00422eb1 f   SDL2:SDL2.dll
 0001:00021eb7       _SDL_CreateTexture         00422eb7 f   SDL2:SDL2.dll
 0001:00021ebd       _SDL_UpdateTexture         00422ebd f   SDL2:SDL2.dll
 0001:00021ec3       _SDL_RenderCopy            00422ec3 f   SDL2:SDL2.dll
 0001:00021ec9       _SDL_RenderPresent         00422ec9 f   SDL2:SDL2.dll
 0001:00021ecf       _SDL_GetTicks              00422ecf f   SDL2:SDL2.dll
 0001:00021ed5       _SDL_Init                  00422ed5 f   SDL2:SDL2.dll
 0001:00021edb       _SDL_Quit                  00422edb f   SDL2:SDL2.dll
 0001:00021ee1       _SDL_SetClipRect           00422ee1 f   SDL2:SDL2.dll
 0001:00021ee7       _SDL_UpperBlitScaled       00422ee7 f   SDL2:SDL2.dll
 0001:00021eed       _IMG_Load                  00422eed f   SDL2_image:SDL2_image.dll
 0001:00021ef3       _TTF_RenderText_Solid      00422ef3 f   SDL2_ttf:SDL2_ttf.dll
 0001:00021ef9       _TTF_Init                  00422ef9 f   SDL2_ttf:SDL2_ttf.dll
 0001:00021eff       _TTF_Quit                  00422eff f   SDL2_ttf:SDL2_ttf.dll
 0001:00021f05       _TTF_OpenFont              00422f05 f   SDL2_ttf:SDL2_ttf.dll
 0001:00021f0b       _TTF_CloseFont             00422f0b f   SDL2_ttf:SDL2_ttf.dll
 0001:00021f11       ??0_Lockit@std@@QAE@H@Z    00422f11 f   msvcprtd:MSVCP140D.dll
 0001:00021f17       ??1_Lockit@std@@QAE@XZ     00422f17 f   msvcprtd:MSVCP140D.dll
 0001:00021f1d       ?_Xlength_error@std@@YAXPBD@Z 00422f1d f   msvcprtd:MSVCP140D.dll
 0001:00021f23       ?uncaught_exception@std@@YA_NXZ 00422f23 f   msvcprtd:MSVCP140D.dll
 0001:00021f29       ?good@ios_base@std@@QBE_NXZ 00422f29 f   msvcprtd:MSVCP140D.dll
 0001:00021f2f       ?flags@ios_base@std@@QBEHXZ 00422f2f f   msvcprtd:MSVCP140D.dll
 0001:00021f35       ?width@ios_base@std@@QBE_JXZ 00422f35 f   msvcprtd:MSVCP140D.dll
 0001:00021f3b       ?width@ios_base@std@@QAE_J_J@Z 00422f3b f   msvcprtd:MSVCP140D.dll
 0001:00021f41       ?sputc@?$basic_streambuf@DU?$char_traits@D@std@@@std@@QAEHD@Z 00422f41 f   msvcprtd:MSVCP140D.dll
 0001:00021f47       ?sputn@?$basic_streambuf@DU?$char_traits@D@std@@@std@@QAE_JPBD_J@Z 00422f47 f   msvcprtd:MSVCP140D.dll
 0001:00021f4d       ?setstate@?$basic_ios@DU?$char_traits@D@std@@@std@@QAEXH_N@Z 00422f4d f   msvcprtd:MSVCP140D.dll
 0001:00021f53       ?tie@?$basic_ios@DU?$char_traits@D@std@@@std@@QBEPAV?$basic_ostream@DU?$char_traits@D@std@@@2@XZ 00422f53 f   msvcprtd:MSVCP140D.dll
 0001:00021f59       ?rdbuf@?$basic_ios@DU?$char_traits@D@std@@@std@@QBEPAV?$basic_streambuf@DU?$char_traits@D@std@@@2@XZ 00422f59 f   msvcprtd:MSVCP140D.dll
 0001:00021f5f       ?fill@?$basic_ios@DU?$char_traits@D@std@@@std@@QBEDXZ 00422f5f f   msvcprtd:MSVCP140D.dll
 0001:00021f65       ?widen@?$basic_ios@DU?$char_traits@D@std@@@std@@QBEDD@Z 00422f65 f   msvcprtd:MSVCP140D.dll
 0001:00021f6b       ?_Osfx@?$basic_ostream@DU?$char_traits@D@std@@@std@@QAEXXZ 00422f6b f   msvcprtd:MSVCP140D.dll
 0001:00021f71       ??6?$basic_ostream@DU?$char_traits@D@std@@@std@@QAEAAV01@P6AAAV01@AAV01@@Z@Z 00422f71 f   msvcprtd:MSVCP140D.dll
 0001:00021f77       ?put@?$basic_ostream@DU?$char_traits@D@std@@@std@@QAEAAV12@D@Z 00422f77 f   msvcprtd:MSVCP140D.dll
 0001:00021f7d       ?flush@?$basic_ostream@DU?$char_traits@D@std@@@std@@QAEAAV12@XZ 00422f7d f   msvcprtd:MSVCP140D.dll
 0001:00021f83       ??6?$basic_ostream@DU?$char_traits@D@std@@@std@@QAEAAV01@H@Z 00422f83 f   msvcprtd:MSVCP140D.dll
 0001:00022360       ?configure_argv@__scrt_narrow_argv_policy@@SAHXZ 00423360 f i MSVCRTD:exe_main.obj
 0001:00022380       ?initialize_environment@__scrt_narrow_environment_policy@@SAHXZ 00423380 f i MSVCRTD:exe_main.obj
 0001:000223e0       ?set_app_type@__scrt_main_policy@@SAXXZ 004233e0 f i MSVCRTD:exe_main.obj
 0001:00022400       ?set_commode@__scrt_file_policy@@SAXXZ 00423400 f i MSVCRTD:exe_main.obj
 0001:00022420       ?set_fmode@__scrt_file_policy@@SAXXZ 00423420 f i MSVCRTD:exe_main.obj
 0001:00022440       _mainCRTStartup            00423440 f   MSVCRTD:exe_main.obj
 0001:00022450       ??2@YAPAXI@Z               00423450 f   MSVCRTD:new_scalar.obj
 0001:000224b0       ??3@YAXPAXI@Z              004234b0 f   MSVCRTD:delete_scalar_size.obj
 0001:000224d0       ??_V@YAXPAX@Z              004234d0 f   MSVCRTD:delete_array.obj
 0001:000224f0       @__security_check_cookie@4 004234f0 f   MSVCRTD:secchk.obj
 0001:00022510       ??1type_info@@UAE@XZ       00423510 f   MSVCRTD:std_type_info_static.obj
 0001:00022530       ??_Gtype_info@@UAEPAXI@Z   00423530 f i MSVCRTD:std_type_info_static.obj
 0001:00022530       ??_Etype_info@@UAEPAXI@Z   00423530 f i MSVCRTD:std_type_info_static.obj
 0001:00022570       ??_U@YAPAXI@Z              00423570 f   MSVCRTD:new_array.obj
 0001:000226d0       _NtCurrentTeb              004236d0 f i MSVCRTD:utility.obj
 0001:000226e0       ___scrt_acquire_startup_lock 004236e0 f   MSVCRTD:utility.obj
 0001:00022740       ___scrt_dllmain_after_initialize_c 00423740 f   MSVCRTD:utility.obj
 0001:00022780       ___scrt_dllmain_before_initialize_c 00423780 f   MSVCRTD:utility.obj
 0001:000227b0       ___scrt_dllmain_crt_thread_attach 004237b0 f   MSVCRTD:utility.obj
 0001:000227f0       ___scrt_dllmain_crt_thread_detach 004237f0 f   MSVCRTD:utility.obj
 0001:00022810       ___scrt_dllmain_exception_filter 00423810 f   MSVCRTD:utility.obj
 0001:00022870       ___scrt_dllmain_uninitialize_c 00423870 f   MSVCRTD:utility.obj
 0001:000228b0       ___scrt_dllmain_uninitialize_critical 004238b0 f   MSVCRTD:utility.obj
 0001:000228d0       ___scrt_initialize_crt     004238d0 f   MSVCRTD:utility.obj
 0001:00022930       ___scrt_initialize_onexit_tables 00423930 f   MSVCRTD:utility.obj
 0001:00022a40       ___scrt_is_nonwritable_in_current_image 00423a40 f   MSVCRTD:utility.obj
 0001:00022bc0       ___scrt_release_startup_lock 00423bc0 f   MSVCRTD:utility.obj
 0001:00022bf0       ___scrt_uninitialize_crt   00423bf0 f   MSVCRTD:utility.obj
 0001:00022c40       __onexit                   00423c40 f   MSVCRTD:utility.obj
 0001:00022cc0       _at_quick_exit             00423cc0 f   MSVCRTD:utility.obj
 0001:00022d10       _atexit                    00423d10 f   MSVCRTD:utility.obj
 0001:00022de0       ___security_init_cookie    00423de0 f   MSVCRTD:gs_support.obj
 0001:00022e80       __matherr                  00423e80 f   MSVCRTD:matherr.obj
 0001:00022e90       __get_startup_argv_mode    00423e90 f   MSVCRTD:argv_mode.obj
 0001:00022ea0       __get_startup_commit_mode  00423ea0 f   MSVCRTD:commit_mode.obj
 0001:00022eb0       __get_startup_file_mode    00423eb0 f   MSVCRTD:file_mode.obj
 0001:00022ec0       __get_startup_new_mode     00423ec0 f   MSVCRTD:new_mode.obj
 0001:00022ed0       __get_startup_thread_locale_mode 00423ed0 f   MSVCRTD:thread_locale.obj
 0001:00022ee0       ?__scrt_initialize_type_info@@YAXXZ 00423ee0 f   MSVCRTD:tncleanup.obj
 0001:00022f00       ?__scrt_uninitialize_type_info@@YAXXZ 00423f00 f   MSVCRTD:tncleanup.obj
 0001:00022f20       __should_initialize_environment 00423f20 f   MSVCRTD:env_mode.obj
 0001:00022f30       __initialize_default_precision 00423f30 f   MSVCRTD:default_precision.obj
 0001:00022f60       __initialize_invalid_parameter_handler 00423f60 f   MSVCRTD:invalid_parameter_handler.obj
 0001:00022f70       __initialize_denormal_control 00423f70 f   MSVCRTD:denormal_control.obj
 0001:00022f80       ___local_stdio_scanf_options 00423f80 f i MSVCRTD:default_local_stdio_options.obj
 0001:00022f90       ___scrt_initialize_default_local_stdio_options 00423f90 f   MSVCRTD:default_local_stdio_options.obj
 0001:00022fe0       ___scrt_is_user_matherr_present 00423fe0 f   MSVCRTD:matherr_detection.obj
 0001:00023010       ___scrt_get_dyn_tls_init_callback 00424010 f   MSVCRTD:dyn_tls_init.obj
 0001:00023020       ___scrt_get_dyn_tls_dtor_callback 00424020 f   MSVCRTD:dyn_tls_dtor.obj
 0001:00023030       ___scrt_fastfail           00424030 f   MSVCRTD:utility_desktop.obj
 0001:000231c0       ___scrt_get_show_window_mode 004241c0 f   MSVCRTD:utility_desktop.obj
 0001:00023210       ___scrt_initialize_mta     00424210 f   MSVCRTD:utility_desktop.obj
 0001:00023220       ___scrt_initialize_winrt   00424220 f   MSVCRTD:utility_desktop.obj
 0001:00023230       ___scrt_is_managed_app     00424230 f   MSVCRTD:utility_desktop.obj
 0001:000232e0       ___scrt_set_unhandled_exception_filter 004242e0 f   MSVCRTD:utility_desktop.obj
 0001:00023300       ___scrt_stub_for_initialize_mta 00424300 f   MSVCRTD:utility_desktop.obj
 0001:00023300       ___scrt_exe_initialize_mta 00424300 f   MSVCRTD:utility_desktop.obj
 0001:00023310       ___scrt_unhandled_exception_filter@4 00424310 f   MSVCRTD:utility_desktop.obj
 0001:000233b0       __crt_debugger_hook        004243b0 f   MSVCRTD:utility_desktop.obj
 0001:000233d0       __RTC_Initialize           004243d0 f   MSVCRTD:initsect.obj
 0001:00023410       __RTC_Terminate            00424410 f   MSVCRTD:initsect.obj
 0001:00023450       __except_handler4          00424450 f   MSVCRTD:chandler4gs.obj
 0001:000234a0       @_guard_check_icall_nop@4  004244a0 f i MSVCRTD:guard_support.obj
 0001:000234b0       _ReadNoFence               004244b0 f i MSVCRTD:guard_support.obj
 0001:000234d0       _ReadPointerNoFence        004244d0 f i MSVCRTD:guard_support.obj
 0001:000234f0       ___castguard_check_failure_debugbreak 004244f0 f i MSVCRTD:guard_support.obj
 0001:00023510       ___castguard_check_failure_fastfail 00424510 f i MSVCRTD:guard_support.obj
 0001:00023540       ___castguard_check_failure_nop 00424540 f i MSVCRTD:guard_support.obj
 0001:00023550       ___castguard_check_failure_os_handled 00424550 f i MSVCRTD:guard_support.obj
 0001:000235f0       ___castguard_slow_path_check_debugbreak 004245f0 f i MSVCRTD:guard_support.obj
 0001:00023630       ___castguard_slow_path_check_fastfail 00424630 f i MSVCRTD:guard_support.obj
 0001:00023680       ___castguard_slow_path_check_nop 00424680 f i MSVCRTD:guard_support.obj
 0001:00023690       ___castguard_slow_path_check_os_handled 00424690 f i MSVCRTD:guard_support.obj
 0001:00023750       __guard_icall_checks_enforced 00424750 f i MSVCRTD:guard_support.obj
 0001:00023790       ??0bad_alloc@std@@QAE@XZ   00424790 f i MSVCRTD:throw_bad_alloc.obj
 0001:000237c0       ?__scrt_throw_std_bad_alloc@@YAXXZ 004247c0 f   MSVCRTD:throw_bad_alloc.obj
 0001:000237f0       ?__scrt_throw_std_bad_array_new_length@@YAXXZ 004247f0 f   MSVCRTD:throw_bad_alloc.obj
 0001:00023820       ??3@YAXPAX@Z               00424820 f   MSVCRTD:delete_scalar.obj
 0001:00023840       ___raise_securityfailure   00424840 f   MSVCRTD:gs_report.obj
 0001:00023880       ___report_gsfailure        00424880 f   MSVCRTD:gs_report.obj
 0001:000239d0       ___report_rangecheckfailure 004249d0 f   MSVCRTD:gs_report.obj
 0001:000239e0       ___report_securityfailure  004249e0 f   MSVCRTD:gs_report.obj
 0001:00023af0       ___report_securityfailureEx 00424af0 f   MSVCRTD:gs_report.obj
 0001:00023c60       ___isa_available_init      00424c60 f   MSVCRTD:cpu_disp.obj
 0001:00024060       ___scrt_is_ucrt_dll_in_use 00425060 f   MSVCRTD:ucrt_detection.obj
 0001:0002408d       _memcmp                    0042508d f   vcruntimed:VCRUNTIME140D.dll
 0001:00024093       _memcpy                    00425093 f   vcruntimed:VCRUNTIME140D.dll
 0001:00024099       _memmove                   00425099 f   vcruntimed:VCRUNTIME140D.dll
 0001:0002409f       _memset                    0042509f f   vcruntimed:VCRUNTIME140D.dll
 0001:000240a5       ___std_exception_copy      004250a5 f   vcruntimed:VCRUNTIME140D.dll
 0001:000240ab       ___std_exception_destroy   004250ab f   vcruntimed:VCRUNTIME140D.dll
 0001:000240b1       __CxxThrowException@8      004250b1 f   vcruntimed:VCRUNTIME140D.dll
 0001:000240b7       ___CxxFrameHandler3        004250b7 f   vcruntimed:VCRUNTIME140D.dll
 0001:000240bd       __purecall                 004250bd f   vcruntimed:VCRUNTIME140D.dll
 0001:000240c3       ___std_type_info_destroy_list 004250c3 f   vcruntimed:VCRUNTIME140D.dll
 0001:000240c9       ___current_exception       004250c9 f   vcruntimed:VCRUNTIME140D.dll
 0001:000240cf       ___current_exception_context 004250cf f   vcruntimed:VCRUNTIME140D.dll
 0001:000240d5       __except_handler4_common   004250d5 f   vcruntimed:VCRUNTIME140D.dll
 0001:000240db       __invalid_parameter        004250db f   ucrtd:ucrtbased.dll
 0001:000240e1       __CrtDbgReport             004250e1 f   ucrtd:ucrtbased.dll
 0001:000240e7       _rand                      004250e7 f   ucrtd:ucrtbased.dll
 0001:000240ed       ___acrt_iob_func           004250ed f   ucrtd:ucrtbased.dll
 0001:000240f3       ___stdio_common_vfprintf   004250f3 f   ucrtd:ucrtbased.dll
 0001:000240f9       _strlen                    004250f9 f   ucrtd:ucrtbased.dll
 0001:000240ff       _atan                      004250ff f   ucrtd:ucrtbased.dll
 0001:00024105       _cos                       00425105 f   ucrtd:ucrtbased.dll
 0001:0002410b       _sin                       0042510b f   ucrtd:ucrtbased.dll
 0001:00024111       _sqrt                      00425111 f   ucrtd:ucrtbased.dll
 0001:00024117       ___stdio_common_vsprintf   00425117 f   ucrtd:ucrtbased.dll
 0001:0002411d       __CrtDumpMemoryLeaks       0042511d f   ucrtd:ucrtbased.dll
 0001:00024123       _srand                     00425123 f   ucrtd:ucrtbased.dll
 0001:00024129       __time64                   00425129 f   ucrtd:ucrtbased.dll
 0001:0002412f       _puts                      0042512f f   ucrtd:ucrtbased.dll
 0001:00024135       _strcmp                    00425135 f   ucrtd:ucrtbased.dll
 0001:0002413b       _strcpy                    0042513b f   ucrtd:ucrtbased.dll
 0001:00024141       __seh_filter_exe           00425141 f   ucrtd:ucrtbased.dll
 0001:00024147       __set_app_type             00425147 f   ucrtd:ucrtbased.dll
 0001:0002414d       ___setusermatherr          0042514d f   ucrtd:ucrtbased.dll
 0001:00024153       __configure_narrow_argv    00425153 f   ucrtd:ucrtbased.dll
 0001:00024159       __initialize_narrow_environment 00425159 f   ucrtd:ucrtbased.dll
 0001:0002415f       __get_initial_narrow_environment 0042515f f   ucrtd:ucrtbased.dll
 0001:00024165       __initterm                 00425165 f   ucrtd:ucrtbased.dll
 0001:0002416b       __initterm_e               0042516b f   ucrtd:ucrtbased.dll
 0001:00024171       _exit                      00425171 f   ucrtd:ucrtbased.dll
 0001:00024177       __exit                     00425177 f   ucrtd:ucrtbased.dll
 0001:0002417d       __set_fmode                0042517d f   ucrtd:ucrtbased.dll
 0001:00024183       ___p___argc                00425183 f   ucrtd:ucrtbased.dll
 0001:00024189       ___p___argv                00425189 f   ucrtd:ucrtbased.dll
 0001:0002418f       __cexit                    0042518f f   ucrtd:ucrtbased.dll
 0001:00024195       __c_exit                   00425195 f   ucrtd:ucrtbased.dll
 0001:0002419b       __register_thread_local_exe_atexit_callback 0042519b f   ucrtd:ucrtbased.dll
 0001:000241a1       __configthreadlocale       004251a1 f   ucrtd:ucrtbased.dll
 0001:000241a7       __set_new_mode             004251a7 f   ucrtd:ucrtbased.dll
 0001:000241ad       ___p__commode              004251ad f   ucrtd:ucrtbased.dll
 0001:000241b3       __callnewh                 004251b3 f   ucrtd:ucrtbased.dll
 0001:000241b9       _malloc                    004251b9 f   ucrtd:ucrtbased.dll
 0001:000241bf       __seh_filter_dll           004251bf f   ucrtd:ucrtbased.dll
 0001:000241c5       __initialize_onexit_table  004251c5 f   ucrtd:ucrtbased.dll
 0001:000241cb       __register_onexit_function 004251cb f   ucrtd:ucrtbased.dll
 0001:000241d1       __execute_onexit_table     004251d1 f   ucrtd:ucrtbased.dll
 0001:000241d7       __crt_atexit               004251d7 f   ucrtd:ucrtbased.dll
 0001:000241dd       __crt_at_quick_exit        004251dd f   ucrtd:ucrtbased.dll
 0001:000241e3       __controlfp_s              004251e3 f   ucrtd:ucrtbased.dll
 0001:000241e9       _terminate                 004251e9 f   ucrtd:ucrtbased.dll
 0001:000241ef       __free_dbg                 004251ef f   ucrtd:ucrtbased.dll
 0001:00024340       _WinMain@16                00425340 f   SDL2main:SDL_windows_main.obj
 0001:00024350       _main                      00425350 f   SDL2main:SDL_windows_main.obj
 0001:000244a0       _wmain                     004254a0 f   SDL2main:SDL_windows_main.obj
 0001:000244a5       _QueryPerformanceCounter@4 004254a5 f   kernel32:KERNEL32.dll
 0001:000244ab       _GetCurrentProcessId@0     004254ab f   kernel32:KERNEL32.dll
 0001:000244b1       _GetCurrentThreadId@0      004254b1 f   kernel32:KERNEL32.dll
 0001:000244b7       _GetSystemTimeAsFileTime@4 004254b7 f   kernel32:KERNEL32.dll
 0001:000244bd       _InitializeSListHead@4     004254bd f   kernel32:KERNEL32.dll
 0001:000244c3       _IsDebuggerPresent@0       004254c3 f   kernel32:KERNEL32.dll
 0001:000244c9       _UnhandledExceptionFilter@4 004254c9 f   kernel32:KERNEL32.dll
 0001:000244cf       _SetUnhandledExceptionFilter@4 004254cf f   kernel32:KERNEL32.dll
 0001:000244d5       _GetStartupInfoW@4         004254d5 f   kernel32:KERNEL32.dll
 0001:000244db       _IsProcessorFeaturePresent@4 004254db f   kernel32:KERNEL32.dll
 0001:000244e1       _GetModuleHandleW@4        004254e1 f   kernel32:KERNEL32.dll
 0001:000244e7       _GetCurrentProcess@0       004254e7 f   kernel32:KERNEL32.dll
 0001:000244ed       _TerminateProcess@8        004254ed f   kernel32:KERNEL32.dll
 0001:000244f3       _GetCommandLineW@0         004254f3 f   kernel32:KERNEL32.dll
 0001:000244f9       _VirtualAlloc@16           004254f9 f   kernel32:KERNEL32.dll
 0001:000244ff       _VirtualFree@12            004254ff f   kernel32:KERNEL32.dll
 0001:00024505       _WideCharToMultiByte@32    00425505 f   kernel32:KERNEL32.dll
 0001:0002450b       _SDL_SetMainReady          0042550b f   SDL2:SDL2.dll
 0001:00024511       _SDL_ShowSimpleMessageBox  00425511 f   SDL2:SDL2.dll
 0001:00024520       ___scrt_stub_for_acrt_initialize 00425520 f   MSVCRTD:ucrt_stubs.obj
 0001:00024520       ___vcrt_initialize         00425520 f   MSVCRTD:ucrt_stubs.obj
 0001:00024520       ___acrt_initialize         00425520 f   MSVCRTD:ucrt_stubs.obj
 0001:00024530       ___vcrt_thread_attach      00425530 f   MSVCRTD:ucrt_stubs.obj
 0001:00024530       ___scrt_stub_for_acrt_thread_attach 00425530 f   MSVCRTD:ucrt_stubs.obj
 0001:00024530       ___acrt_thread_attach      00425530 f   MSVCRTD:ucrt_stubs.obj
 0001:00024540       ___vcrt_thread_detach      00425540 f   MSVCRTD:ucrt_stubs.obj
 0001:00024540       ___scrt_stub_for_acrt_thread_detach 00425540 f   MSVCRTD:ucrt_stubs.obj
 0001:00024540       ___acrt_thread_detach      00425540 f   MSVCRTD:ucrt_stubs.obj
 0001:00024550       ___scrt_stub_for_acrt_uninitialize 00425550 f   MSVCRTD:ucrt_stubs.obj
 0001:00024550       ___vcrt_uninitialize       00425550 f   MSVCRTD:ucrt_stubs.obj
 0001:00024550       ___acrt_uninitialize       00425550 f   MSVCRTD:ucrt_stubs.obj
 0001:00024560       ___scrt_stub_for_acrt_uninitialize_critical 00425560 f   MSVCRTD:ucrt_stubs.obj
 0001:00024560       ___acrt_uninitialize_critical 00425560 f   MSVCRTD:ucrt_stubs.obj
 0001:00024560       ___vcrt_uninitialize_critical 00425560 f   MSVCRTD:ucrt_stubs.obj
 0001:00024570       ___scrt_stub_for_is_c_termination_complete 00425570 f   MSVCRTD:ucrt_stubs.obj
 0001:00024570       __is_c_termination_complete 00425570 f   MSVCRTD:ucrt_stubs.obj
 0001:00024580       __filter_x86_sse2_floating_point_exception 00425580 f   MSVCRTD:x86_exception_filter.obj
 0001:00024580       __filter_x86_sse2_floating_point_exception_default 00425580 f   MSVCRTD:x86_exception_filter.obj
 0002:00000000       ___xc_a                    0042b000     MSVCRTD:initializers.obj
 0002:00000208       ___xc_z                    0042b208     MSVCRTD:initializers.obj
 0002:0000030c       ___xi_a                    0042b30c     MSVCRTD:initializers.obj
 0002:00000618       ___xi_z                    0042b618     MSVCRTD:initializers.obj
 0002:0000071c       ___xp_a                    0042b71c     MSVCRTD:initializers.obj
 0002:00000820       ___xp_z                    0042b820     MSVCRTD:initializers.obj
 0002:00000924       ___xt_a                    0042b924     MSVCRTD:initializers.obj
 0002:00000a28       ___xt_z                    0042ba28     MSVCRTD:initializers.obj
 0002:00000f4e       ??_C@_00CNPNBAHC@@         0042bf4e     Psyjl16Engine.obj
 0002:00000f50       ??_C@_0BO@CAOBBIOC@vector?5iterators?5incompatible@ 0042bf50     Psyjl16Engine.obj
 0002:00000fa0       ??_C@_0GJ@OPFJOBEP@C?3?2Program?5Files?5?$CIx86?$CJ?2Microsof@ 0042bfa0     MyTextBar.obj
 0002:00001024       ??_7exception@std@@6B@     0042c024     DraggingDemo.obj
 0002:00001030       ??_C@_0BC@EOODALEL@Unknown?5exception@ 0042c030     DraggingDemo.obj
 0002:0000104c       ??_7bad_alloc@std@@6B@     0042c04c     DraggingDemo.obj
 0002:0000105c       ??_7bad_array_new_length@std@@6B@ 0042c05c     DraggingDemo.obj
 0002:00001068       ??_C@_0BF@KINCDENJ@bad?5array?5new?5length@ 0042c068     DraggingDemo.obj
 0002:00001084       ??_C@_0BB@FCMFBGOM@invalid?5argument@ 0042c084     DraggingDemo.obj
 0002:00001098       ??_C@_02DKCKIIND@?$CFs@    0042c098     DraggingDemo.obj
 0002:000010a0       ??_C@_0GJ@BGJEONKG@C?3?2Program?5Files?5?$CIx86?$CJ?2Microsof@ 0042c0a0     DraggingDemo.obj
 0002:00001120       ??_C@_1NC@CMDPBBBN@?$AAC?$AA?3?$AA?2?$AAP?$AAr?$AAo?$AAg?$AAr?$AAa?$AAm?$AA?5?$AAF?$AAi?$AAl?$AAe@ 0042c120     DraggingDemo.obj
 0002:000011f4       ??_C@_0CB@EJBNKHHC@invalid?5to?5pop_back?5empty?5strin@ 0042c1f4     MyTextBar.obj
 0002:00001220       ??_C@_1EK@NIFDJFDG@?$AAs?$AAt?$AAd?$AA?3?$AA?3?$AA_?$AAA?$AAd?$AAj?$AAu?$AAs?$AAt?$AA_?$AAm?$AAa@ 0042c220     DraggingDemo.obj
 0002:00001278       ??_C@_1CG@JNLFBNGN@?$AA?$CC?$AAi?$AAn?$AAv?$AAa?$AAl?$AAi?$AAd?$AA?5?$AAa?$AAr?$AAg?$AAu?$AAm?$AAe@ 0042c278     DraggingDemo.obj
 0002:000012a8       ??_C@_0BJ@LFDBABJJ@ITERATOR?5LIST?5CORRUPTED?$CB@ 0042c2a8     DraggingDemo.obj
 0002:000012c8       ??_C@_1FM@FOFDAEGI@?$AAs?$AAt?$AAd?$AA?3?$AA?3?$AA_?$AAI?$AAt?$AAe?$AAr?$AAa?$AAt?$AAo?$AAr?$AA_@ 0042c2c8     DraggingDemo.obj
 0002:00001338       ??_C@_1DG@PLBPCAEM@?$AA?$CC?$AAI?$AAT?$AAE?$AAR?$AAA?$AAT?$AAO?$AAR?$AA?5?$AAL?$AAI?$AAS?$AAT?$AA?5@ 0042c338     DraggingDemo.obj
 0002:00001378       ??_C@_0BA@JFNIOLAK@string?5too?5long@ 0042c378     DraggingDemo.obj
 0002:0000138c       ??_C@_0CN@GHCLOPHF@Error?5in?5setting?5pixel?9?5should?5@ 0042c38c     DraggingDemo.obj
 0002:000013c8       ??_C@_0JM@GIEKPEHN@WARNING?3?5Attempted?5write?5to?5sur@ 0042c3c8     DraggingDemo.obj
 0002:00001484       ??_C@_0BB@GCADKGJO@map?1set?5too?5long@ 0042c484     DraggingDemo.obj
 0002:00001498       ??_C@_0DC@BNOGMHFL@Error?5creating?5surface?5in?5RawIm@ 0042c498     DraggingDemo.obj
 0002:000014d4       ??_C@_0BD@IFIGDDIC@?7?7?$CL?$CL?$CL?5Load?5image?3?5@ 0042c4d4     DraggingDemo.obj
 0002:000014ec       ??_C@_0DJ@OJEPJEDH@ImageManager?3?3getImagePtrbyURL?$CI@ 0042c4ec     DraggingDemo.obj
 0002:00001530       ??_C@_0BJ@LOCNEGOL@Failed?5to?5load?5image?5?$CFs?6@ 0042c530     DraggingDemo.obj
 0002:00001554       ??_7DragableBaseClassObject@@6B@ 0042c554     DraggingDemo.obj
 0002:000015ac       ??_7DragableObject@@6B@    0042c5ac     DraggingDemo.obj
 0002:00001604       ??_7DragableImageObject@@6B@ 0042c604     DraggingDemo.obj
 0002:0000165c       ??_7ImageObject@@6B@       0042c65c     DraggingDemo.obj
 0002:000016a0       ??_C@_0GI@MPMGDOMC@C?3?2Program?5Files?5?$CIx86?$CJ?2Microsof@ 0042c6a0     DraggingDemo.obj
 0002:00001720       ??_C@_1NA@LBEKAEMJ@?$AAC?$AA?3?$AA?2?$AAP?$AAr?$AAo?$AAg?$AAr?$AAa?$AAm?$AA?5?$AAF?$AAi?$AAl?$AAe@ 0042c720     DraggingDemo.obj
 0002:0000181c       ??_C@_0BO@PFKOHNJC@vector?5subscript?5out?5of?5range@ 0042c81c     DraggingDemo.obj
 0002:00001840       ??_C@_1MK@PODALHBD@?$AAs?$AAt?$AAd?$AA?3?$AA?3?$AAv?$AAe?$AAc?$AAt?$AAo?$AAr?$AA?$DM?$AAc?$AAl?$AAa@ 0042c840     DraggingDemo.obj
 0002:00001938       ??_C@_1EA@LEKOKFNB@?$AA?$CC?$AAv?$AAe?$AAc?$AAt?$AAo?$AAr?$AA?5?$AAs?$AAu?$AAb?$AAs?$AAc?$AAr?$AAi@ 0042c938     DraggingDemo.obj
 0002:00001984       ??_C@_0BP@OLDKBHLM@map?1set?5iterators?5incompatible@ 0042c984     DraggingDemo.obj
 0002:000019b0       ??_C@_0GH@KKIEIFFD@C?3?2Program?5Files?5?$CIx86?$CJ?2Microsof@ 0042c9b0     DraggingDemo.obj
 0002:00001a30       ??_C@_1MO@MCOFHJPI@?$AAC?$AA?3?$AA?2?$AAP?$AAr?$AAo?$AAg?$AAr?$AAa?$AAm?$AA?5?$AAF?$AAi?$AAl?$AAe@ 0042ca30     DraggingDemo.obj
 0002:00001b28       ??_C@_1EC@JLIDLCDH@?$AA?$CC?$AAm?$AAa?$AAp?$AA?1?$AAs?$AAe?$AAt?$AA?5?$AAi?$AAt?$AAe?$AAr?$AAa?$AAt@ 0042cb28     DraggingDemo.obj
 0002:00001b78       ??_C@_1BPG@KHABJGCD@?$AAs?$AAt?$AAd?$AA?3?$AA?3?$AA_?$AAT?$AAr?$AAe?$AAe?$AA_?$AAc?$AAo?$AAn?$AAs@ 0042cb78     DraggingDemo.obj
 0002:00001d70       ??_C@_1EG@GNALHNOG@?$AA?$CC?$AAi?$AAn?$AAv?$AAa?$AAl?$AAi?$AAd?$AA?5?$AAt?$AAo?$AA?5?$AAp?$AAo?$AAp@ 0042cd70     MyTextBar.obj
 0002:00001dd4       ??_C@_0DG@LCFNIIPB@cannot?5dereference?5value?9initia@ 0042cdd4     DraggingDemo.obj
 0002:00001e18       ??_C@_1BPE@BBFPAJEC@?$AAs?$AAt?$AAd?$AA?3?$AA?3?$AA_?$AAT?$AAr?$AAe?$AAe?$AA_?$AAc?$AAo?$AAn?$AAs@ 0042ce18     DraggingDemo.obj
 0002:00002070       ??_C@_1HA@ILGCNILF@?$AA?$CC?$AAc?$AAa?$AAn?$AAn?$AAo?$AAt?$AA?5?$AAd?$AAe?$AAr?$AAe?$AAf?$AAe?$AAr@ 0042d070     DraggingDemo.obj
 0002:000020f8       ??_C@_0CI@OKFEHCEB@cannot?5dereference?5end?5map?1set?5@ 0042d0f8     DraggingDemo.obj
 0002:00002128       ??_C@_1FE@NKHAAGMB@?$AA?$CC?$AAc?$AAa?$AAn?$AAn?$AAo?$AAt?$AA?5?$AAd?$AAe?$AAr?$AAe?$AAf?$AAe?$AAr@ 0042d128     DraggingDemo.obj
 0002:0000218c       ??_C@_0DA@GGPHOHEL@map?1set?5erase?5iterator?5from?5inc@ 0042d18c     DraggingDemo.obj
 0002:000021c8       ??_C@_1DJG@KIJFPGMB@?$AAs?$AAt?$AAd?$AA?3?$AA?3?$AA_?$AAT?$AAr?$AAe?$AAe?$AA?$DM?$AAc?$AAl?$AAa?$AAs@ 0042d1c8     DraggingDemo.obj
 0002:00002560       ??_C@_1LI@HCBEBID@?$AAs?$AAt?$AAd?$AA?3?$AA?3?$AAb?$AAa?$AAs?$AAi?$AAc?$AA_?$AAs?$AAt?$AAr?$AAi@ 0042d560     MyTextBar.obj
 0002:00002618       ??_C@_1GE@FENJBJJO@?$AA?$CC?$AAm?$AAa?$AAp?$AA?1?$AAs?$AAe?$AAt?$AA?5?$AAe?$AAr?$AAa?$AAs?$AAe?$AA?5@ 0042d618     DraggingDemo.obj
 0002:00002690       ??_C@_0CE@JAJNKOFK@cannot?5erase?5map?1set?5end?$CI?$CJ?5iter@ 0042d690     DraggingDemo.obj
 0002:000026c0       ??_C@_1EM@MEAEPHLP@?$AA?$CC?$AAc?$AAa?$AAn?$AAn?$AAo?$AAt?$AA?5?$AAe?$AAr?$AAa?$AAs?$AAe?$AA?5?$AAm@ 0042d6c0     DraggingDemo.obj
 0002:00002720       ??_7?$_Ref_count@VRawImageData@@@std@@6B@ 0042d720     DraggingDemo.obj
 0002:00002734       ??_C@_0BA@FOIKENOD@vector?5too?5long@ 0042d734     DraggingDemo.obj
 0002:00002748       ??_C@_0GK@PMFIJGGA@C?3?2Program?5Files?5?$CIx86?$CJ?2Microsof@ 0042d748     DraggingDemo.obj
 0002:000027c8       ??_C@_1NE@JIBMENND@?$AAC?$AA?3?$AA?2?$AAP?$AAr?$AAo?$AAg?$AAr?$AAa?$AAm?$AA?5?$AAF?$AAi?$AAl?$AAe@ 0042d7c8     DraggingDemo.obj
 0002:000028c8       ??_C@_0BD@FEEMDEPI@invalid?5comparator@ 0042d8c8     DraggingDemo.obj
 0002:000028e0       ??_C@_1CI@JONCLBEJ@?$AAs?$AAt?$AAd?$AA?3?$AA?3?$AA_?$AAD?$AAe?$AAb?$AAu?$AAg?$AA_?$AAl?$AAt?$AA_@ 0042d8e0     DraggingDemo.obj
 0002:00002910       ??_C@_1CK@NDNHPKPI@?$AA?$CC?$AAi?$AAn?$AAv?$AAa?$AAl?$AAi?$AAd?$AA?5?$AAc?$AAo?$AAm?$AAp?$AAa?$AAr@ 0042d910     DraggingDemo.obj
 0002:00002948       ?MY_PI@DrawingSurface@@2NB 0042d948     DrawingSurface.obj
 0002:00002e28       ??_C@_0LN@HOLHFHJI@WARNING?3?5Attempted?5blit?5to?5lock@ 0042de28     DrawingSurface.obj
 0002:00002f10       __real@3fe0000000000000    0042df10     DrawingSurface.obj
 0002:00002f20       __real@3fe0c152382d7365    0042df20     DrawingSurface.obj
 0002:00002f30       __real@3ff0000000000000    0042df30     DrawingSurface.obj
 0002:00002f40       __real@3ff8000000000000    0042df40     DrawingSurface.obj
 0002:00002f50       __real@3ff921fb54442d18    0042df50     DrawingSurface.obj
 0002:00002f60       __real@4000000000000000    0042df60     DrawingSurface.obj
 0002:00002f70       __real@4008000000000000    0042df70     DrawingSurface.obj
 0002:00002f80       __real@400921fb54442d18    0042df80     DrawingSurface.obj
 0002:00002f90       __real@400f6a7a2955385e    0042df90     DrawingSurface.obj
 0002:00002fa0       __real@4010000000000000    0042dfa0     DrawingSurface.obj
 0002:00002fb0       __real@401921fb54442d18    0042dfb0     DrawingSurface.obj
 0002:00003498       ??_7FlashingDemo@@6BDisplayableObjectContainer@@@ 0042e498     FlashingDemo.obj
 0002:00003544       ??_7FlashingDemo@@6BFilterPoints@@@ 0042e544     FlashingDemo.obj
 0002:000039a8       ??_C@_1NC@MCLDOIMM@?$AAC?$AA?3?$AA?2?$AAP?$AAr?$AAo?$AAg?$AAr?$AAa?$AAm?$AA?5?$AAF?$AAi?$AAl?$AAe@ 0042e9a8     MyTextBar.obj
 0002:00003a84       ??_7MappableImageObject@@6B@ 0042ea84     ImageMappingDemo.obj
 0002:00003ad8       __real@3f1a36e2eb1c432d    0042ead8     ImageMappingDemo.obj
 0002:00003ae8       __real@4059000000000000    0042eae8     ImageMappingDemo.obj
 0002:00003af8       __real@c059000000000000    0042eaf8     ImageMappingDemo.obj
 0002:00004f88       ??_7MyObjectB@@6B@         0042ff88     Psyjl16Engine.obj
 0002:00004fcc       ??_7MyCharacter@@6B@       0042ffcc     Psyjl16Engine.obj
 0002:00005010       ??_7MyEnemy@@6B@           00430010     Psyjl16Engine.obj
 0002:00005054       ??_7MyBasicButton@@6B@     00430054     Psyjl16Engine.obj
 0002:00005098       ??_7MyToggleButton@@6B@    00430098     Psyjl16Engine.obj
 0002:000050dc       ??_7MyTextBar@@6B@         004300dc     Psyjl16Engine.obj
 0002:0000511c       ??_C@_0DE@CHADHGFF@can?8t?5dereference?5value?9initial@ 0043011c     Psyjl16Engine.obj
 0002:00005160       ??_C@_1PA@DMJFJEGO@?$AAs?$AAt?$AAd?$AA?3?$AA?3?$AA_?$AAV?$AAe?$AAc?$AAt?$AAo?$AAr?$AA_?$AAc?$AAo@ 00430160     Psyjl16Engine.obj
 0002:00005280       ??_C@_1GM@FNBFNBEL@?$AA?$CC?$AAc?$AAa?$AAn?$AA?8?$AAt?$AA?5?$AAd?$AAe?$AAr?$AAe?$AAf?$AAe?$AAr?$AAe@ 00430280     Psyjl16Engine.obj
 0002:00005304       ??_C@_0CP@MDHADBHN@can?8t?5dereference?5out?5of?5range?5@ 00430304     Psyjl16Engine.obj
 0002:00005340       ??_C@_1GC@JDCKOLAC@?$AA?$CC?$AAc?$AAa?$AAn?$AA?8?$AAt?$AA?5?$AAd?$AAe?$AAr?$AAe?$AAf?$AAe?$AAr?$AAe@ 00430340     Psyjl16Engine.obj
 0002:000053b8       ??_C@_0DC@KEKNBAEB@can?8t?5increment?5value?9initializ@ 004303b8     Psyjl16Engine.obj
 0002:000053f8       ??_C@_1PC@LAHDNGHL@?$AAs?$AAt?$AAd?$AA?3?$AA?3?$AA_?$AAV?$AAe?$AAc?$AAt?$AAo?$AAr?$AA_?$AAc?$AAo@ 004303f8     Psyjl16Engine.obj
 0002:00005520       ??_C@_1GI@EDCILPL@?$AA?$CC?$AAc?$AAa?$AAn?$AA?8?$AAt?$AA?5?$AAi?$AAn?$AAc?$AAr?$AAe?$AAm?$AAe?$AAn@ 00430520     Psyjl16Engine.obj
 0002:0000559c       ??_C@_0CJ@OAAAAGPM@can?8t?5increment?5vector?5iterator@ 0043059c     Psyjl16Engine.obj
 0002:000055d0       ??_C@_1FG@LDPPKMGP@?$AA?$CC?$AAc?$AAa?$AAn?$AA?8?$AAt?$AA?5?$AAi?$AAn?$AAc?$AAr?$AAe?$AAm?$AAe?$AAn@ 004305d0     Psyjl16Engine.obj
 0002:00005660       ??_C@_1OK@EOCJDFAL@?$AAs?$AAt?$AAd?$AA?3?$AA?3?$AA_?$AAV?$AAe?$AAc?$AAt?$AAo?$AAr?$AA_?$AAc?$AAo@ 00430660     Psyjl16Engine.obj
 0002:00005778       ??_C@_1EA@DJDGNIII@?$AA?$CC?$AAv?$AAe?$AAc?$AAt?$AAo?$AAr?$AA?5?$AAi?$AAt?$AAe?$AAr?$AAa?$AAt?$AAo@ 00430778     Psyjl16Engine.obj
 0002:00005cf8       ??_7TileManager@@6B@       00430cf8     mainfunction.obj
 0002:00005d08       ??_7Psyjl16TileManager@@6B@ 00430d08     mainfunction.obj
 0002:00005d18       ??_7Psyjl16Engine@@6BDisplayableObjectContainer@@@ 00430d18     mainfunction.obj
 0002:00005dc4       ??_7Psyjl16Engine@@6BFilterPoints@@@ 00430dc4     mainfunction.obj
 0002:00006310       ??_7FilterPoints@@6B@      00431310     BaseEngine.obj
 0002:0000632c       ??_7DisplayableObjectContainer@@6B@ 0043132c     BaseEngine.obj
 0002:0000633c       ??_7BaseEngine@@6BDisplayableObjectContainer@@@ 0043133c     BaseEngine.obj
 0002:000063e8       ??_7BaseEngine@@6BFilterPoints@@@ 004313e8     BaseEngine.obj
 0002:00006400       ??_C@_1CG@LJCPDKEJ@?$AAs?$AAt?$AAd?$AA?3?$AA?3?$AA_?$AAV?$AAe?$AAr?$AAi?$AAf?$AAy?$AA_?$AAr?$AAa@ 00431400     BaseEngine.obj
 0002:00006430       ??_C@_0DI@PBEELKIF@vector?5iterators?5in?5range?5are?5f@ 00431430     BaseEngine.obj
 0002:00006478       ??_C@_1HE@KBMFDAFB@?$AA?$CC?$AAv?$AAe?$AAc?$AAt?$AAo?$AAr?$AA?5?$AAi?$AAt?$AAe?$AAr?$AAa?$AAt?$AAo@ 00431478     BaseEngine.obj
 0002:00006504       ??_C@_0CB@LIAHLBAO@vector?5iterator?5range?5transpose@ 00431504     BaseEngine.obj
 0002:00006530       ??_C@_1EG@ODKBEHFN@?$AA?$CC?$AAv?$AAe?$AAc?$AAt?$AAo?$AAr?$AA?5?$AAi?$AAt?$AAe?$AAr?$AAa?$AAt?$AAo@ 00431530     BaseEngine.obj
 0002:00006a60       ??_7DisplayableObject@@6B@ 00431a60     DisplayableObject.obj
 0002:00006d94       ??_C@_0BI@GMOFELCF@Free?5font?3?5?$CFd?5point?5?$CFs?6@ 00431d94     FontManager.obj
 0002:000085f4       ??_7CroppedImagePixelMapping@@6B@ 004335f4     SimpleImage.obj
 0002:00008b90       ??_7BouncingObject@@6B@    00433b90     SimpleDemo.obj
 0002:00008bd0       __real@0000000000000000    00433bd0     SimpleDemo.obj
 0002:00008be0       __real@3f747ae147ae147b    00433be0     SimpleDemo.obj
 0002:00008bf0       __real@4004000000000000    00433bf0     SimpleDemo.obj
 0002:00008c00       __real@400c000000000000    00433c00     SimpleDemo.obj
 0002:00008c10       __real@4069000000000000    00433c10     SimpleDemo.obj
 0002:00008c20       __real@4072c00000000000    00433c20     SimpleDemo.obj
 0002:00008c30       __xmm@80000000000000008000000000000000 00433c30     SimpleDemo.obj
 0002:00009120       ??_7StarfieldDemo@@6BDisplayableObjectContainer@@@ 00434120     StarfieldDemo.obj
 0002:000091cc       ??_7StarfieldDemo@@6BFilterPoints@@@ 004341cc     StarfieldDemo.obj
 0002:00009b98       ??_7BouncingBall@@6B@      00434b98     BouncingBall.obj
 0002:00009bdc       ??_7BouncingBall1@@6B@     00434bdc     BouncingBall.obj
 0002:00009c20       ??_7BouncingBall2@@6B@     00434c20     BouncingBall.obj
 0002:00009c60       __real@3f847ae147ae147b    00434c60     BouncingBall.obj
 0002:0000a188       __real@3fe999999999999a    00435188     BouncingBallMain.obj
 0002:0000a198       __real@3ff199999999999a    00435198     BouncingBallMain.obj
 0002:0000a1a8       __real@3ff3333333333333    004351a8     BouncingBallMain.obj
 0002:0000a1b8       __real@4049000000000000    004351b8     BouncingBallMain.obj
 0002:0000a1c8       __real@4062c00000000000    004351c8     BouncingBallMain.obj
 0002:0000a1d8       __real@4066800000000000    004351d8     BouncingBallMain.obj
 0002:0000a1e8       __real@406f400000000000    004351e8     BouncingBallMain.obj
 0002:0000a1f8       __real@4071300000000000    004351f8     BouncingBallMain.obj
 0002:0000a208       __real@4074500000000000    00435208     BouncingBallMain.obj
 0002:0000a218       __real@4075e00000000000    00435218     BouncingBallMain.obj
 0002:0000a228       __real@4077700000000000    00435228     BouncingBallMain.obj
 0002:0000a238       __real@4079000000000000    00435238     BouncingBallMain.obj
 0002:0000a248       __real@4079a00000000000    00435248     BouncingBallMain.obj
 0002:0000a258       __real@407c200000000000    00435258     BouncingBallMain.obj
 0002:0000a268       __real@407f400000000000    00435268     BouncingBallMain.obj
 0002:0000a278       __real@4081300000000000    00435278     BouncingBallMain.obj
 0002:0000a288       __real@4082c00000000000    00435288     BouncingBallMain.obj
 0002:0000a298       __real@4084500000000000    00435298     BouncingBallMain.obj
 0002:0000a2a8       __real@4087700000000000    004352a8     BouncingBallMain.obj
 0002:0000a838       ??_7SimpleFlashingDragableImageObject@@6B@ 00435838     ZoomingDemo.obj
 0002:0000aeec       ??_7MazeDemoTileManager@@6B@ 00435eec     MazeDemoMain.obj
 0002:0000aefc       ??_7MazeDemoMain@@6BDisplayableObjectContainer@@@ 00435efc     MazeDemoMain.obj
 0002:0000afa8       ??_7MazeDemoMain@@6BFilterPoints@@@ 00435fa8     MazeDemoMain.obj
 0002:0000b498       ??_7MazeDemoObject@@6B@    00436498     MazeDemoObject.obj
 0002:0000b9b0       ??_7type_info@@6B@         004369b0     MSVCRTD:std_type_info_static.obj
 0002:0000b9b8       ??_C@_0P@GHFPNOJB@bad?5allocation@ 004369b8     MSVCRTD:throw_bad_alloc.obj
 0002:0000b9d8       ??_C@_0BJ@HFNMHALN@Out?5of?5memory?5?9?5aborting@ 004369d8     SDL2main:SDL_windows_main.obj
 0002:0000b9f8       ??_C@_0M@HFFOIJBL@Fatal?5Error@ 004369f8     SDL2main:SDL_windows_main.obj
 0002:0000ba40       __load_config_used         00436a40     MSVCRTD:loadcfg.obj
 0002:0000bd00       ___CastGuardVftablesStart  00436d00     MSVCRTD:guard_support.obj
 0002:0000be04       ___CastGuardVftablesEnd    00436e04     MSVCRTD:guard_support.obj
 0002:0000bf08       ??_R4exception@std@@6B@    00436f08     DraggingDemo.obj
 0002:0000bf20       ??_R3exception@std@@8      00436f20     DraggingDemo.obj
 0002:0000bf34       ??_R2exception@std@@8      00436f34     DraggingDemo.obj
 0002:0000bf3c       ??_R1A@?0A@EA@exception@std@@8 00436f3c     DraggingDemo.obj
 0002:0000bf60       ??_R4bad_alloc@std@@6B@    00436f60     DraggingDemo.obj
 0002:0000bf78       ??_R3bad_alloc@std@@8      00436f78     DraggingDemo.obj
 0002:0000bf8c       ??_R2bad_alloc@std@@8      00436f8c     DraggingDemo.obj
 0002:0000bf98       ??_R1A@?0A@EA@bad_alloc@std@@8 00436f98     DraggingDemo.obj
 0002:0000bfbc       ??_R4bad_array_new_length@std@@6B@ 00436fbc     DraggingDemo.obj
 0002:0000bfd4       ??_R3bad_array_new_length@std@@8 00436fd4     DraggingDemo.obj
 0002:0000bfe8       ??_R2bad_array_new_length@std@@8 00436fe8     DraggingDemo.obj
 0002:0000bff8       ??_R1A@?0A@EA@bad_array_new_length@std@@8 00436ff8     DraggingDemo.obj
 0002:0000c01c       ??_R3_Ref_count_base@std@@8 0043701c     DraggingDemo.obj
 0002:0000c030       ??_R2_Ref_count_base@std@@8 00437030     DraggingDemo.obj
 0002:0000c038       ??_R1A@?0A@EA@_Ref_count_base@std@@8 00437038     DraggingDemo.obj
 0002:0000c05c       ??_R4DragableBaseClassObject@@6B@ 0043705c     DraggingDemo.obj
 0002:0000c074       ??_R3DragableBaseClassObject@@8 00437074     DraggingDemo.obj
 0002:0000c088       ??_R2DragableBaseClassObject@@8 00437088     DraggingDemo.obj
 0002:0000c094       ??_R1A@?0A@EA@DragableBaseClassObject@@8 00437094     DraggingDemo.obj
 0002:0000c0b8       ??_R1A@?0A@EA@DisplayableObject@@8 004370b8     DraggingDemo.obj
 0002:0000c0dc       ??_R3DisplayableObject@@8  004370dc     DraggingDemo.obj
 0002:0000c0f0       ??_R2DisplayableObject@@8  004370f0     DraggingDemo.obj
 0002:0000c0f8       ??_R4DragableObject@@6B@   004370f8     DraggingDemo.obj
 0002:0000c110       ??_R3DragableObject@@8     00437110     DraggingDemo.obj
 0002:0000c124       ??_R2DragableObject@@8     00437124     DraggingDemo.obj
 0002:0000c134       ??_R1A@?0A@EA@DragableObject@@8 00437134     DraggingDemo.obj
 0002:0000c158       ??_R4DragableImageObject@@6B@ 00437158     DraggingDemo.obj
 0002:0000c170       ??_R3DragableImageObject@@8 00437170     DraggingDemo.obj
 0002:0000c184       ??_R2DragableImageObject@@8 00437184     DraggingDemo.obj
 0002:0000c194       ??_R1A@?0A@EA@DragableImageObject@@8 00437194     DraggingDemo.obj
 0002:0000c1b8       ??_R4ImageObject@@6B@      004371b8     DraggingDemo.obj
 0002:0000c1d0       ??_R3ImageObject@@8        004371d0     DraggingDemo.obj
 0002:0000c1e4       ??_R2ImageObject@@8        004371e4     DraggingDemo.obj
 0002:0000c1f0       ??_R1A@?0A@EA@ImageObject@@8 004371f0     DraggingDemo.obj
 0002:0000c214       ??_R4?$_Ref_count@VRawImageData@@@std@@6B@ 00437214     DraggingDemo.obj
 0002:0000c22c       ??_R3?$_Ref_count@VRawImageData@@@std@@8 0043722c     DraggingDemo.obj
 0002:0000c240       ??_R2?$_Ref_count@VRawImageData@@@std@@8 00437240     DraggingDemo.obj
 0002:0000c24c       ??_R1A@?0A@EA@?$_Ref_count@VRawImageData@@@std@@8 0043724c     DraggingDemo.obj
 0002:0000c270       ??_R3DisplayableObjectContainer@@8 00437270     FlashingDemo.obj
 0002:0000c284       ??_R2DisplayableObjectContainer@@8 00437284     FlashingDemo.obj
 0002:0000c28c       ??_R1A@?0A@EA@DisplayableObjectContainer@@8 0043728c     FlashingDemo.obj
 0002:0000c2b0       ??_R4FlashingDemo@@6BDisplayableObjectContainer@@@ 004372b0     FlashingDemo.obj
 0002:0000c2c8       ??_R3FlashingDemo@@8       004372c8     FlashingDemo.obj
 0002:0000c2dc       ??_R2FlashingDemo@@8       004372dc     FlashingDemo.obj
 0002:0000c2f0       ??_R1A@?0A@EA@FlashingDemo@@8 004372f0     FlashingDemo.obj
 0002:0000c314       ??_R1A@?0A@EA@BaseEngine@@8 00437314     FlashingDemo.obj
 0002:0000c338       ??_R3BaseEngine@@8         00437338     FlashingDemo.obj
 0002:0000c34c       ??_R2BaseEngine@@8         0043734c     FlashingDemo.obj
 0002:0000c35c       ??_R1BM@?0A@EA@FilterPoints@@8 0043735c     FlashingDemo.obj
 0002:0000c380       ??_R3FilterPoints@@8       00437380     FlashingDemo.obj
 0002:0000c394       ??_R2FilterPoints@@8       00437394     FlashingDemo.obj
 0002:0000c39c       ??_R1A@?0A@EA@FilterPoints@@8 0043739c     FlashingDemo.obj
 0002:0000c3c0       ??_R4FlashingDemo@@6BFilterPoints@@@ 004373c0     FlashingDemo.obj
 0002:0000c3d8       ??_R4MappableImageObject@@6B@ 004373d8     ImageMappingDemo.obj
 0002:0000c3f0       ??_R3MappableImageObject@@8 004373f0     ImageMappingDemo.obj
 0002:0000c404       ??_R2MappableImageObject@@8 00437404     ImageMappingDemo.obj
 0002:0000c418       ??_R1A@?0A@EA@MappableImageObject@@8 00437418     ImageMappingDemo.obj
 0002:0000c43c       ??_R4MyObjectB@@6B@        0043743c     Psyjl16Engine.obj
 0002:0000c454       ??_R3MyObjectB@@8          00437454     Psyjl16Engine.obj
 0002:0000c468       ??_R2MyObjectB@@8          00437468     Psyjl16Engine.obj
 0002:0000c474       ??_R1A@?0A@EA@MyObjectB@@8 00437474     Psyjl16Engine.obj
 0002:0000c498       ??_R4MyCharacter@@6B@      00437498     Psyjl16Engine.obj
 0002:0000c4b0       ??_R3MyCharacter@@8        004374b0     Psyjl16Engine.obj
 0002:0000c4c4       ??_R2MyCharacter@@8        004374c4     Psyjl16Engine.obj
 0002:0000c4d4       ??_R1A@?0A@EA@MyCharacter@@8 004374d4     Psyjl16Engine.obj
 0002:0000c4f8       ??_R4MyEnemy@@6B@          004374f8     Psyjl16Engine.obj
 0002:0000c510       ??_R3MyEnemy@@8            00437510     Psyjl16Engine.obj
 0002:0000c524       ??_R2MyEnemy@@8            00437524     Psyjl16Engine.obj
 0002:0000c534       ??_R1A@?0A@EA@MyEnemy@@8   00437534     Psyjl16Engine.obj
 0002:0000c558       ??_R4MyBasicButton@@6B@    00437558     Psyjl16Engine.obj
 0002:0000c570       ??_R3MyBasicButton@@8      00437570     Psyjl16Engine.obj
 0002:0000c584       ??_R2MyBasicButton@@8      00437584     Psyjl16Engine.obj
 0002:0000c590       ??_R1A@?0A@EA@MyBasicButton@@8 00437590     Psyjl16Engine.obj
 0002:0000c5b4       ??_R4MyToggleButton@@6B@   004375b4     Psyjl16Engine.obj
 0002:0000c5cc       ??_R3MyToggleButton@@8     004375cc     Psyjl16Engine.obj
 0002:0000c5e0       ??_R2MyToggleButton@@8     004375e0     Psyjl16Engine.obj
 0002:0000c5f0       ??_R1A@?0A@EA@MyToggleButton@@8 004375f0     Psyjl16Engine.obj
 0002:0000c614       ??_R4MyTextBar@@6B@        00437614     Psyjl16Engine.obj
 0002:0000c62c       ??_R3MyTextBar@@8          0043762c     Psyjl16Engine.obj
 0002:0000c640       ??_R2MyTextBar@@8          00437640     Psyjl16Engine.obj
 0002:0000c650       ??_R1A@?0A@EA@MyTextBar@@8 00437650     Psyjl16Engine.obj
 0002:0000c674       ??_R4TileManager@@6B@      00437674     mainfunction.obj
 0002:0000c68c       ??_R3TileManager@@8        0043768c     mainfunction.obj
 0002:0000c6a0       ??_R2TileManager@@8        004376a0     mainfunction.obj
 0002:0000c6a8       ??_R1A@?0A@EA@TileManager@@8 004376a8     mainfunction.obj
 0002:0000c6cc       ??_R4Psyjl16TileManager@@6B@ 004376cc     mainfunction.obj
 0002:0000c6e4       ??_R3Psyjl16TileManager@@8 004376e4     mainfunction.obj
 0002:0000c6f8       ??_R2Psyjl16TileManager@@8 004376f8     mainfunction.obj
 0002:0000c704       ??_R1A@?0A@EA@Psyjl16TileManager@@8 00437704     mainfunction.obj
 0002:0000c728       ??_R4Psyjl16Engine@@6BDisplayableObjectContainer@@@ 00437728     mainfunction.obj
 0002:0000c740       ??_R3Psyjl16Engine@@8      00437740     mainfunction.obj
 0002:0000c754       ??_R2Psyjl16Engine@@8      00437754     mainfunction.obj
 0002:0000c768       ??_R1A@?0A@EA@Psyjl16Engine@@8 00437768     mainfunction.obj
 0002:0000c78c       ??_R4Psyjl16Engine@@6BFilterPoints@@@ 0043778c     mainfunction.obj
 0002:0000c7a4       ??_R4BaseEngine@@6BDisplayableObjectContainer@@@ 004377a4     BaseEngine.obj
 0002:0000c7bc       ??_R4BaseEngine@@6BFilterPoints@@@ 004377bc     BaseEngine.obj
 0002:0000c7d4       ??_R4FilterPoints@@6B@     004377d4     BaseEngine.obj
 0002:0000c7ec       ??_R4DisplayableObjectContainer@@6B@ 004377ec     BaseEngine.obj
 0002:0000c804       ??_R4DisplayableObject@@6B@ 00437804     DisplayableObject.obj
 0002:0000c81c       ??_R3ImagePixelMapping@@8  0043781c     SimpleImage.obj
 0002:0000c830       ??_R2ImagePixelMapping@@8  00437830     SimpleImage.obj
 0002:0000c838       ??_R1A@?0A@EA@ImagePixelMapping@@8 00437838     SimpleImage.obj
 0002:0000c85c       ??_R4CroppedImagePixelMapping@@6B@ 0043785c     SimpleImage.obj
 0002:0000c874       ??_R3CroppedImagePixelMapping@@8 00437874     SimpleImage.obj
 0002:0000c888       ??_R2CroppedImagePixelMapping@@8 00437888     SimpleImage.obj
 0002:0000c894       ??_R1A@?0A@EA@CroppedImagePixelMapping@@8 00437894     SimpleImage.obj
 0002:0000c8b8       ??_R4BouncingObject@@6B@   004378b8     SimpleDemo.obj
 0002:0000c8d0       ??_R3BouncingObject@@8     004378d0     SimpleDemo.obj
 0002:0000c8e4       ??_R2BouncingObject@@8     004378e4     SimpleDemo.obj
 0002:0000c8f0       ??_R1A@?0A@EA@BouncingObject@@8 004378f0     SimpleDemo.obj
 0002:0000c914       ??_R4StarfieldDemo@@6BDisplayableObjectContainer@@@ 00437914     StarfieldDemo.obj
 0002:0000c92c       ??_R3StarfieldDemo@@8      0043792c     StarfieldDemo.obj
 0002:0000c940       ??_R2StarfieldDemo@@8      00437940     StarfieldDemo.obj
 0002:0000c954       ??_R1A@?0A@EA@StarfieldDemo@@8 00437954     StarfieldDemo.obj
 0002:0000c978       ??_R4StarfieldDemo@@6BFilterPoints@@@ 00437978     StarfieldDemo.obj
 0002:0000c990       ??_R4BouncingBall@@6B@     00437990     BouncingBall.obj
 0002:0000c9a8       ??_R3BouncingBall@@8       004379a8     BouncingBall.obj
 0002:0000c9bc       ??_R2BouncingBall@@8       004379bc     BouncingBall.obj
 0002:0000c9c8       ??_R1A@?0A@EA@BouncingBall@@8 004379c8     BouncingBall.obj
 0002:0000c9ec       ??_R4BouncingBall1@@6B@    004379ec     BouncingBall.obj
 0002:0000ca04       ??_R3BouncingBall1@@8      00437a04     BouncingBall.obj
 0002:0000ca18       ??_R2BouncingBall1@@8      00437a18     BouncingBall.obj
 0002:0000ca28       ??_R1A@?0A@EA@BouncingBall1@@8 00437a28     BouncingBall.obj
 0002:0000ca4c       ??_R4BouncingBall2@@6B@    00437a4c     BouncingBall.obj
 0002:0000ca64       ??_R3BouncingBall2@@8      00437a64     BouncingBall.obj
 0002:0000ca78       ??_R2BouncingBall2@@8      00437a78     BouncingBall.obj
 0002:0000ca88       ??_R1A@?0A@EA@BouncingBall2@@8 00437a88     BouncingBall.obj
 0002:0000caac       ??_R4SimpleFlashingDragableImageObject@@6B@ 00437aac     ZoomingDemo.obj
 0002:0000cac4       ??_R3SimpleFlashingDragableImageObject@@8 00437ac4     ZoomingDemo.obj
 0002:0000cad8       ??_R2SimpleFlashingDragableImageObject@@8 00437ad8     ZoomingDemo.obj
 0002:0000cae4       ??_R1A@?0A@EA@SimpleFlashingDragableImageObject@@8 00437ae4     ZoomingDemo.obj
 0002:0000cb08       ??_R4MazeDemoMain@@6BDisplayableObjectContainer@@@ 00437b08     MazeDemoMain.obj
 0002:0000cb20       ??_R3MazeDemoMain@@8       00437b20     MazeDemoMain.obj
 0002:0000cb34       ??_R2MazeDemoMain@@8       00437b34     MazeDemoMain.obj
 0002:0000cb48       ??_R1A@?0A@EA@MazeDemoMain@@8 00437b48     MazeDemoMain.obj
 0002:0000cb6c       ??_R4MazeDemoMain@@6BFilterPoints@@@ 00437b6c     MazeDemoMain.obj
 0002:0000cb84       ??_R4MazeDemoTileManager@@6B@ 00437b84     MazeDemoMain.obj
 0002:0000cb9c       ??_R3MazeDemoTileManager@@8 00437b9c     MazeDemoMain.obj
 0002:0000cbb0       ??_R2MazeDemoTileManager@@8 00437bb0     MazeDemoMain.obj
 0002:0000cbbc       ??_R1A@?0A@EA@MazeDemoTileManager@@8 00437bbc     MazeDemoMain.obj
 0002:0000cbe0       ??_R4MazeDemoObject@@6B@   00437be0     MazeDemoObject.obj
 0002:0000cbf8       ??_R3MazeDemoObject@@8     00437bf8     MazeDemoObject.obj
 0002:0000cc0c       ??_R2MazeDemoObject@@8     00437c0c     MazeDemoObject.obj
 0002:0000cc18       ??_R1A@?0A@EA@MazeDemoObject@@8 00437c18     MazeDemoObject.obj
 0002:0000cc3c       ??_R4type_info@@6B@        00437c3c     MSVCRTD:std_type_info_static.obj
 0002:0000cc54       ??_R3type_info@@8          00437c54     MSVCRTD:std_type_info_static.obj
 0002:0000cc68       ??_R2type_info@@8          00437c68     MSVCRTD:std_type_info_static.obj
 0002:0000cc70       ??_R1A@?0A@EA@type_info@@8 00437c70     MSVCRTD:std_type_info_static.obj
 0002:0000cde8       ___safe_se_handler_table   00437de8     <linker-defined>
 0002:0000d1fc       ___rtc_iaa                 004381fc     MSVCRTD:initsect.obj
 0002:0000d300       ___rtc_izz                 00438300     MSVCRTD:initsect.obj
 0002:0000d404       ___rtc_taa                 00438404     MSVCRTD:initsect.obj
 0002:0000d508       ___rtc_tzz                 00438508     MSVCRTD:initsect.obj
 0002:0000dee0       __TI3?AVbad_array_new_length@std@@ 00438ee0     DraggingDemo.obj
 0002:0000def4       __CTA3?AVbad_array_new_length@std@@ 00438ef4     DraggingDemo.obj
 0002:0000df08       __CT??_R0?AVbad_array_new_length@std@@@8??0bad_array_new_length@std@@QAE@ABV01@@Z12 00438f08     DraggingDemo.obj
 0002:0000df28       __CT??_R0?AVbad_alloc@std@@@8??0bad_alloc@std@@QAE@ABV01@@Z12 00438f28     DraggingDemo.obj
 0002:0000df48       __CT??_R0?AVexception@std@@@8??0exception@std@@QAE@ABV01@@Z12 00438f48     DraggingDemo.obj
 0002:0000e8a0       __TI2?AVbad_alloc@std@@    004398a0     MSVCRTD:throw_bad_alloc.obj
 0002:0000e8b4       __CTA2?AVbad_alloc@std@@   004398b4     MSVCRTD:throw_bad_alloc.obj
 0003:00000008       ___security_cookie_complement 0043a008     MSVCRTD:gs_cookie.obj
 0003:0000000c       ___security_cookie         0043a00c     MSVCRTD:gs_cookie.obj
 0003:00000014       __fltused                  0043a014     MSVCRTD:fltused.obj
 0003:00000018       ___scrt_native_dllmain_reason 0043a018     MSVCRTD:utility.obj
 0003:0000001c       ___scrt_default_matherr    0043a01c     MSVCRTD:matherr.obj
 0003:00000020       ___isa_enabled             0043a020     MSVCRTD:cpu_disp.obj
 0003:00000024       ___scrt_ucrt_dll_is_in_use 0043a024     MSVCRTD:ucrt_stubs.obj
 0003:00000130       ??_R0?AVbad_array_new_length@std@@@8 0043a130     DraggingDemo.obj
 0003:00000160       ??_R0?AVbad_alloc@std@@@8  0043a160     DraggingDemo.obj
 0003:00000184       ??_R0?AVexception@std@@@8  0043a184     DraggingDemo.obj
 0003:000001a0       ??_R0?AVMyTextBar@@@8      0043a1a0     Psyjl16Engine.obj
 0003:000002a8       ??_R0?AV_Ref_count_base@std@@@8 0043a2a8     DraggingDemo.obj
 0003:000002d0       ??_R0?AVDragableBaseClassObject@@@8 0043a2d0     DraggingDemo.obj
 0003:00000300       ??_R0?AVDisplayableObject@@@8 0043a300     DraggingDemo.obj
 0003:00000328       ??_R0?AVDragableObject@@@8 0043a328     DraggingDemo.obj
 0003:0000034c       ??_R0?AVDragableImageObject@@@8 0043a34c     DraggingDemo.obj
 0003:00000374       ??_R0?AVImageObject@@@8    0043a374     DraggingDemo.obj
 0003:00000394       ??_R0?AV?$_Ref_count@VRawImageData@@@std@@@8 0043a394     DraggingDemo.obj
 0003:000003cc       ??_R0?AVDisplayableObjectContainer@@@8 0043a3cc     FlashingDemo.obj
 0003:00000400       ??_R0?AVFlashingDemo@@@8   0043a400     FlashingDemo.obj
 0003:00000420       ??_R0?AVBaseEngine@@@8     0043a420     FlashingDemo.obj
 0003:00000440       ??_R0?AVFilterPoints@@@8   0043a440     FlashingDemo.obj
 0003:00000460       ??_R0?AVMappableImageObject@@@8 0043a460     ImageMappingDemo.obj
 0003:00000488       ??_R0?AVMyObjectB@@@8      0043a488     Psyjl16Engine.obj
 0003:000004a4       ??_R0?AVMyCharacter@@@8    0043a4a4     Psyjl16Engine.obj
 0003:000004c4       ??_R0?AVMyEnemy@@@8        0043a4c4     Psyjl16Engine.obj
 0003:000004e0       ??_R0?AVMyBasicButton@@@8  0043a4e0     Psyjl16Engine.obj
 0003:00000504       ??_R0?AVMyToggleButton@@@8 0043a504     Psyjl16Engine.obj
 0003:00000544       ??_R0?AVTileManager@@@8    0043a544     mainfunction.obj
 0003:00000564       ??_R0?AVPsyjl16TileManager@@@8 0043a564     mainfunction.obj
 0003:0000058c       ??_R0?AVPsyjl16Engine@@@8  0043a58c     mainfunction.obj
 0003:000005b0       ??_R0?AVImagePixelMapping@@@8 0043a5b0     SimpleImage.obj
 0003:000005d8       ??_R0?AVCroppedImagePixelMapping@@@8 0043a5d8     SimpleImage.obj
 0003:00000608       ??_R0?AVBouncingObject@@@8 0043a608     SimpleDemo.obj
 0003:0000062c       ??_R0?AVStarfieldDemo@@@8  0043a62c     StarfieldDemo.obj
 0003:00000650       ??_R0?AVBouncingBall@@@8   0043a650     BouncingBall.obj
 0003:00000670       ??_R0?AVBouncingBall1@@@8  0043a670     BouncingBall.obj
 0003:00000694       ??_R0?AVBouncingBall2@@@8  0043a694     BouncingBall.obj
 0003:000006b8       ??_R0?AVSimpleFlashingDragableImageObject@@@8 0043a6b8     ZoomingDemo.obj
 0003:000006f4       ??_R0?AVMazeDemoMain@@@8   0043a6f4     MazeDemoMain.obj
 0003:00000714       ??_R0?AVMazeDemoTileManager@@@8 0043a714     MazeDemoMain.obj
 0003:0000073c       ??_R0?AVMazeDemoObject@@@8 0043a73c     MazeDemoObject.obj
 0003:00000760       ??_R0?AVtype_info@@@8      0043a760     MSVCRTD:std_type_info_static.obj
 0003:00000898       ?_OptionsStorage@?1??__local_stdio_printf_options@@9@4_KA 0043a898     DraggingDemo.obj
 0003:000008a4       ?g_pManager@ImageManager@@0PAV1@A 0043a8a4     SimpleImage.obj
 0003:000008a8       ___scrt_current_native_startup_state 0043a8a8     MSVCRTD:utility.obj
 0003:000008ac       ___scrt_native_startup_lock 0043a8ac     MSVCRTD:utility.obj
 0003:000008d8       ?__type_info_root_node@@3U__type_info_node@@A 0043a8d8     MSVCRTD:tncleanup.obj
 0003:000008e8       ?_OptionsStorage@?1??__local_stdio_scanf_options@@9@4_KA 0043a8e8     MSVCRTD:default_local_stdio_options.obj
 0003:000008f4       ___scrt_debugger_hook_flag 0043a8f4     MSVCRTD:utility_desktop.obj
 0003:000008f8       ___castguard_check_failure_os_handled_fptr 0043a8f8     MSVCRTD:guard_support.obj
 0003:00000cbc       ___isa_available           0043acbc     MSVCRTD:cpu_disp.obj
 0003:00000cc0       ___favor                   0043acc0     MSVCRTD:cpu_disp.obj
 0003:00000cc8       ___dyn_tls_dtor_callback   0043acc8     <common>
 0003:00000cd4       ___dyn_tls_init_callback   0043acd4     <common>
 0004:00000000       __imp__QueryPerformanceCounter@4 0043b000     kernel32:KERNEL32.dll
 0004:00000004       __imp__GetCurrentProcessId@0 0043b004     kernel32:KERNEL32.dll
 0004:00000008       __imp__GetCurrentThreadId@0 0043b008     kernel32:KERNEL32.dll
 0004:0000000c       __imp__GetSystemTimeAsFileTime@4 0043b00c     kernel32:KERNEL32.dll
 0004:00000010       __imp__InitializeSListHead@4 0043b010     kernel32:KERNEL32.dll
 0004:00000014       __imp__IsDebuggerPresent@0 0043b014     kernel32:KERNEL32.dll
 0004:00000018       __imp__UnhandledExceptionFilter@4 0043b018     kernel32:KERNEL32.dll
 0004:0000001c       __imp__SetUnhandledExceptionFilter@4 0043b01c     kernel32:KERNEL32.dll
 0004:00000020       __imp__GetStartupInfoW@4   0043b020     kernel32:KERNEL32.dll
 0004:00000024       __imp__IsProcessorFeaturePresent@4 0043b024     kernel32:KERNEL32.dll
 0004:00000028       __imp__GetCurrentProcess@0 0043b028     kernel32:KERNEL32.dll
 0004:0000002c       __imp__TerminateProcess@8  0043b02c     kernel32:KERNEL32.dll
 0004:00000030       __imp__GetCommandLineW@0   0043b030     kernel32:KERNEL32.dll
 0004:00000034       __imp__VirtualAlloc@16     0043b034     kernel32:KERNEL32.dll
 0004:00000038       __imp__GetModuleHandleW@4  0043b038     kernel32:KERNEL32.dll
 0004:0000003c       __imp__VirtualFree@12      0043b03c     kernel32:KERNEL32.dll
 0004:00000040       __imp__WideCharToMultiByte@32 0043b040     kernel32:KERNEL32.dll
 0004:00000044       \177KERNEL32_NULL_THUNK_DATA 0043b044     kernel32:KERNEL32.dll
 0004:0000007c       __imp_?tie@?$basic_ios@DU?$char_traits@D@std@@@std@@QBEPAV?$basic_ostream@DU?$char_traits@D@std@@@2@XZ 0043b07c     msvcprtd:MSVCP140D.dll
 0004:00000080       __imp_?setstate@?$basic_ios@DU?$char_traits@D@std@@@std@@QAEXH_N@Z 0043b080     msvcprtd:MSVCP140D.dll
 0004:00000084       __imp_?rdbuf@?$basic_ios@DU?$char_traits@D@std@@@std@@QBEPAV?$basic_streambuf@DU?$char_traits@D@std@@@2@XZ 0043b084     msvcprtd:MSVCP140D.dll
 0004:00000088       __imp_?fill@?$basic_ios@DU?$char_traits@D@std@@@std@@QBEDXZ 0043b088     msvcprtd:MSVCP140D.dll
 0004:0000008c       __imp_?widen@?$basic_ios@DU?$char_traits@D@std@@@std@@QBEDD@Z 0043b08c     msvcprtd:MSVCP140D.dll
 0004:00000090       __imp_?_Osfx@?$basic_ostream@DU?$char_traits@D@std@@@std@@QAEXXZ 0043b090     msvcprtd:MSVCP140D.dll
 0004:00000094       __imp_?put@?$basic_ostream@DU?$char_traits@D@std@@@std@@QAEAAV12@D@Z 0043b094     msvcprtd:MSVCP140D.dll
 0004:00000098       __imp_?flush@?$basic_ostream@DU?$char_traits@D@std@@@std@@QAEAAV12@XZ 0043b098     msvcprtd:MSVCP140D.dll
 0004:0000009c       __imp_?cout@std@@3V?$basic_ostream@DU?$char_traits@D@std@@@1@A 0043b09c     msvcprtd:MSVCP140D.dll
 0004:000000a0       __imp_??6?$basic_ostream@DU?$char_traits@D@std@@@std@@QAEAAV01@H@Z 0043b0a0     msvcprtd:MSVCP140D.dll
 0004:000000a4       __imp_??6?$basic_ostream@DU?$char_traits@D@std@@@std@@QAEAAV01@P6AAAV01@AAV01@@Z@Z 0043b0a4     msvcprtd:MSVCP140D.dll
 0004:000000a8       __imp_??0_Lockit@std@@QAE@H@Z 0043b0a8     msvcprtd:MSVCP140D.dll
 0004:000000ac       __imp_??1_Lockit@std@@QAE@XZ 0043b0ac     msvcprtd:MSVCP140D.dll
 0004:000000b0       __imp_?_Xlength_error@std@@YAXPBD@Z 0043b0b0     msvcprtd:MSVCP140D.dll
 0004:000000b4       __imp_?uncaught_exception@std@@YA_NXZ 0043b0b4     msvcprtd:MSVCP140D.dll
 0004:000000b8       __imp_?good@ios_base@std@@QBE_NXZ 0043b0b8     msvcprtd:MSVCP140D.dll
 0004:000000bc       __imp_?flags@ios_base@std@@QBEHXZ 0043b0bc     msvcprtd:MSVCP140D.dll
 0004:000000c0       __imp_?width@ios_base@std@@QBE_JXZ 0043b0c0     msvcprtd:MSVCP140D.dll
 0004:000000c4       __imp_?width@ios_base@std@@QAE_J_J@Z 0043b0c4     msvcprtd:MSVCP140D.dll
 0004:000000c8       __imp_?sputc@?$basic_streambuf@DU?$char_traits@D@std@@@std@@QAEHD@Z 0043b0c8     msvcprtd:MSVCP140D.dll
 0004:000000cc       __imp_?sputn@?$basic_streambuf@DU?$char_traits@D@std@@@std@@QAE_JPBD_J@Z 0043b0cc     msvcprtd:MSVCP140D.dll
 0004:000000d0       \177MSVCP140D_NULL_THUNK_DATA 0043b0d0     msvcprtd:MSVCP140D.dll
 0004:0000010c       __imp__SDL_UpperBlitScaled 0043b10c     SDL2:SDL2.dll
 0004:00000110       __imp__SDL_SetClipRect     0043b110     SDL2:SDL2.dll
 0004:00000114       __imp__SDL_Quit            0043b114     SDL2:SDL2.dll
 0004:00000118       __imp__SDL_Init            0043b118     SDL2:SDL2.dll
 0004:0000011c       __imp__SDL_GetTicks        0043b11c     SDL2:SDL2.dll
 0004:00000120       __imp__SDL_RenderPresent   0043b120     SDL2:SDL2.dll
 0004:00000124       __imp__SDL_RenderCopy      0043b124     SDL2:SDL2.dll
 0004:00000128       __imp__SDL_UpdateTexture   0043b128     SDL2:SDL2.dll
 0004:0000012c       __imp__SDL_CreateTexture   0043b12c     SDL2:SDL2.dll
 0004:00000130       __imp__SDL_CreateRenderer  0043b130     SDL2:SDL2.dll
 0004:00000134       __imp__SDL_SetMainReady    0043b134     SDL2:SDL2.dll
 0004:00000138       __imp__SDL_WaitEvent       0043b138     SDL2:SDL2.dll
 0004:0000013c       __imp__SDL_PollEvent       0043b13c     SDL2:SDL2.dll
 0004:00000140       __imp__SDL_CreateWindow    0043b140     SDL2:SDL2.dll
 0004:00000144       __imp__SDL_GetError        0043b144     SDL2:SDL2.dll
 0004:00000148       __imp__SDL_FillRect        0043b148     SDL2:SDL2.dll
 0004:0000014c       __imp__SDL_UnlockSurface   0043b14c     SDL2:SDL2.dll
 0004:00000150       __imp__SDL_LockSurface     0043b150     SDL2:SDL2.dll
 0004:00000154       __imp__SDL_UpperBlit       0043b154     SDL2:SDL2.dll
 0004:00000158       __imp__SDL_FreeSurface     0043b158     SDL2:SDL2.dll
 0004:0000015c       __imp__SDL_CreateRGBSurface 0043b15c     SDL2:SDL2.dll
 0004:00000160       __imp__SDL_ShowSimpleMessageBox 0043b160     SDL2:SDL2.dll
 0004:00000164       \177SDL2_NULL_THUNK_DATA   0043b164     SDL2:SDL2.dll
 0004:000001a0       __imp__IMG_Load            0043b1a0     SDL2_image:SDL2_image.dll
 0004:000001a4       \177SDL2_image_NULL_THUNK_DATA 0043b1a4     SDL2_image:SDL2_image.dll
 0004:000001d0       __imp__TTF_CloseFont       0043b1d0     SDL2_ttf:SDL2_ttf.dll
 0004:000001d4       __imp__TTF_Init            0043b1d4     SDL2_ttf:SDL2_ttf.dll
 0004:000001d8       __imp__TTF_Quit            0043b1d8     SDL2_ttf:SDL2_ttf.dll
 0004:000001dc       __imp__TTF_OpenFont        0043b1dc     SDL2_ttf:SDL2_ttf.dll
 0004:000001e0       __imp__TTF_RenderText_Solid 0043b1e0     SDL2_ttf:SDL2_ttf.dll
 0004:000001e4       \177SDL2_ttf_NULL_THUNK_DATA 0043b1e4     SDL2_ttf:SDL2_ttf.dll
 0004:00000214       __imp____current_exception 0043b214     vcruntimed:VCRUNTIME140D.dll
 0004:00000218       __imp___except_handler4_common 0043b218     vcruntimed:VCRUNTIME140D.dll
 0004:0000021c       __imp__memcpy              0043b21c     vcruntimed:VCRUNTIME140D.dll
 0004:00000220       __imp__memmove             0043b220     vcruntimed:VCRUNTIME140D.dll
 0004:00000224       __imp__memset              0043b224     vcruntimed:VCRUNTIME140D.dll
 0004:00000228       __imp____std_exception_copy 0043b228     vcruntimed:VCRUNTIME140D.dll
 0004:0000022c       __imp____std_exception_destroy 0043b22c     vcruntimed:VCRUNTIME140D.dll
 0004:00000230       __imp___CxxThrowException@8 0043b230     vcruntimed:VCRUNTIME140D.dll
 0004:00000234       __imp____CxxFrameHandler3  0043b234     vcruntimed:VCRUNTIME140D.dll
 0004:00000238       __imp___purecall           0043b238     vcruntimed:VCRUNTIME140D.dll
 0004:0000023c       __imp____std_type_info_destroy_list 0043b23c     vcruntimed:VCRUNTIME140D.dll
 0004:00000240       __imp__memcmp              0043b240     vcruntimed:VCRUNTIME140D.dll
 0004:00000244       __imp____current_exception_context 0043b244     vcruntimed:VCRUNTIME140D.dll
 0004:00000248       __imp____RTDynamicCast     0043b248     vcruntimed:VCRUNTIME140D.dll
 0004:0000024c       \177VCRUNTIME140D_NULL_THUNK_DATA 0043b24c     vcruntimed:VCRUNTIME140D.dll
 0004:0000027c       __imp___configure_narrow_argv 0043b27c     ucrtd:ucrtbased.dll
 0004:00000280       __imp___initialize_narrow_environment 0043b280     ucrtd:ucrtbased.dll
 0004:00000284       __imp___get_initial_narrow_environment 0043b284     ucrtd:ucrtbased.dll
 0004:00000288       __imp___initterm           0043b288     ucrtd:ucrtbased.dll
 0004:0000028c       __imp___initterm_e         0043b28c     ucrtd:ucrtbased.dll
 0004:00000290       __imp__exit                0043b290     ucrtd:ucrtbased.dll
 0004:00000294       __imp___exit               0043b294     ucrtd:ucrtbased.dll
 0004:00000298       __imp___set_fmode          0043b298     ucrtd:ucrtbased.dll
 0004:0000029c       __imp____p___argc          0043b29c     ucrtd:ucrtbased.dll
 0004:000002a0       __imp____p___argv          0043b2a0     ucrtd:ucrtbased.dll
 0004:000002a4       __imp___cexit              0043b2a4     ucrtd:ucrtbased.dll
 0004:000002a8       __imp___set_app_type       0043b2a8     ucrtd:ucrtbased.dll
 0004:000002ac       __imp___register_thread_local_exe_atexit_callback 0043b2ac     ucrtd:ucrtbased.dll
 0004:000002b0       __imp___configthreadlocale 0043b2b0     ucrtd:ucrtbased.dll
 0004:000002b4       __imp___set_new_mode       0043b2b4     ucrtd:ucrtbased.dll
 0004:000002b8       __imp____p__commode        0043b2b8     ucrtd:ucrtbased.dll
 0004:000002bc       __imp___callnewh           0043b2bc     ucrtd:ucrtbased.dll
 0004:000002c0       __imp__malloc              0043b2c0     ucrtd:ucrtbased.dll
 0004:000002c4       __imp___seh_filter_dll     0043b2c4     ucrtd:ucrtbased.dll
 0004:000002c8       __imp___initialize_onexit_table 0043b2c8     ucrtd:ucrtbased.dll
 0004:000002cc       __imp___register_onexit_function 0043b2cc     ucrtd:ucrtbased.dll
 0004:000002d0       __imp___execute_onexit_table 0043b2d0     ucrtd:ucrtbased.dll
 0004:000002d4       __imp___crt_atexit         0043b2d4     ucrtd:ucrtbased.dll
 0004:000002d8       __imp___crt_at_quick_exit  0043b2d8     ucrtd:ucrtbased.dll
 0004:000002dc       __imp___controlfp_s        0043b2dc     ucrtd:ucrtbased.dll
 0004:000002e0       __imp__terminate           0043b2e0     ucrtd:ucrtbased.dll
 0004:000002e4       __imp___free_dbg           0043b2e4     ucrtd:ucrtbased.dll
 0004:000002e8       __imp___seh_filter_exe     0043b2e8     ucrtd:ucrtbased.dll
 0004:000002ec       __imp__strcpy              0043b2ec     ucrtd:ucrtbased.dll
 0004:000002f0       __imp__strcmp              0043b2f0     ucrtd:ucrtbased.dll
 0004:000002f4       __imp__puts                0043b2f4     ucrtd:ucrtbased.dll
 0004:000002f8       __imp___time64             0043b2f8     ucrtd:ucrtbased.dll
 0004:000002fc       __imp__srand               0043b2fc     ucrtd:ucrtbased.dll
 0004:00000300       __imp___CrtDumpMemoryLeaks 0043b300     ucrtd:ucrtbased.dll
 0004:00000304       __imp____stdio_common_vsprintf 0043b304     ucrtd:ucrtbased.dll
 0004:00000308       __imp__sqrt                0043b308     ucrtd:ucrtbased.dll
 0004:0000030c       __imp__sin                 0043b30c     ucrtd:ucrtbased.dll
 0004:00000310       __imp__cos                 0043b310     ucrtd:ucrtbased.dll
 0004:00000314       __imp__atan                0043b314     ucrtd:ucrtbased.dll
 0004:00000318       __imp__strlen              0043b318     ucrtd:ucrtbased.dll
 0004:0000031c       __imp____stdio_common_vfprintf 0043b31c     ucrtd:ucrtbased.dll
 0004:00000320       __imp____acrt_iob_func     0043b320     ucrtd:ucrtbased.dll
 0004:00000324       __imp__rand                0043b324     ucrtd:ucrtbased.dll
 0004:00000328       __imp___invalid_parameter  0043b328     ucrtd:ucrtbased.dll
 0004:0000032c       __imp____setusermatherr    0043b32c     ucrtd:ucrtbased.dll
 0004:00000330       __imp___c_exit             0043b330     ucrtd:ucrtbased.dll
 0004:00000334       __imp___CrtDbgReport       0043b334     ucrtd:ucrtbased.dll
 0004:00000338       \177ucrtbased_NULL_THUNK_DATA 0043b338     ucrtd:ucrtbased.dll
 0004:00000388       __IMPORT_DESCRIPTOR_SDL2   0043b388     SDL2:SDL2.dll
 0004:0000039c       __IMPORT_DESCRIPTOR_SDL2_image 0043b39c     SDL2_image:SDL2_image.dll
 0004:000003b0       __IMPORT_DESCRIPTOR_SDL2_ttf 0043b3b0     SDL2_ttf:SDL2_ttf.dll
 0004:000003c4       __IMPORT_DESCRIPTOR_MSVCP140D 0043b3c4     msvcprtd:MSVCP140D.dll
 0004:000003d8       __IMPORT_DESCRIPTOR_VCRUNTIME140D 0043b3d8     vcruntimed:VCRUNTIME140D.dll
 0004:000003ec       __IMPORT_DESCRIPTOR_ucrtbased 0043b3ec     ucrtd:ucrtbased.dll
 0004:00000400       __IMPORT_DESCRIPTOR_KERNEL32 0043b400     kernel32:KERNEL32.dll
 0004:00000414       __NULL_IMPORT_DESCRIPTOR   0043b414     SDL2:SDL2.dll
 0005:00000000       ___guard_check_icall_fptr  0043d000     MSVCRTD:guard_support.obj
 0005:00000004       ___guard_xfg_check_icall_fptr 0043d004     MSVCRTD:guard_support.obj

 entry point at        0001:00000078

 Static symbols

 0002:fffd5000       __ehfuncinfo$??$_Deallocate@$07$0A@@std@@YAXPAXI@Z 00400000     BaseEngine.obj
 0002:fffd5000       __ehfuncinfo$??$_Deallocate_plain@V?$allocator@U_Container_proxy@std@@@std@@@std@@YAXAAV?$allocator@U_Container_proxy@std@@@0@QAU_Container_proxy@0@@Z 00400000     BaseEngine.obj
 0001:fffff000       __ehhandler$??$_Deallocate@$07$0A@@std@@YAXPAXI@Z 00400000 f   BaseEngine.obj
 0001:fffff000       __ehhandler$??$_Deallocate_plain@V?$allocator@U_Container_proxy@std@@@std@@@std@@YAXAAV?$allocator@U_Container_proxy@std@@@0@QAU_Container_proxy@0@@Z 00400000 f   BaseEngine.obj
 0001:fffff000       __unwindfunclet$??$_Uninitialized_value_construct_n@V?$allocator@PAVDisplayableObject@@@std@@@std@@YAPAPAVDisplayableObject@@PAPAV1@IAAV?$allocator@PAVDisplayableObject@@@0@@Z$0 00400000 f   BaseEngine.obj
 0002:fffd5000       __unwindtable$??$_Uninitialized_value_construct_n@V?$allocator@PAVDisplayableObject@@@std@@@std@@YAPAPAVDisplayableObject@@PAPAV1@IAAV?$allocator@PAVDisplayableObject@@@0@@Z 00400000     BaseEngine.obj
 0000:fffc3000       _volmd                     00400000     BaseEngine.obj
 0000:fffc3000       _volmd                     00400000     BaseEngine.obj
 0000:fffc3000       _volmd                     00400000     BaseEngine.obj
 0000:fffc3000       _volmd                     00400000     BaseEngine.obj
 0000:fffc3000       _volmd                     00400000     BaseEngine.obj
 0000:fffc3000       _volmd                     00400000     BaseEngine.obj
 0000:fffc3000       _volmd                     00400000     BaseEngine.obj
 0000:fffc3000       _volmd                     00400000     BaseEngine.obj
 0000:fffc3000       _volmd                     00400000     BaseEngine.obj
 0000:fffc3000       _volmd                     00400000     BaseEngine.obj
 0000:fffc3000       _volmd                     00400000     BaseEngine.obj
 0000:fffc3000       _volmd                     00400000     BaseEngine.obj
 0000:fffc3000       _volmd                     00400000     BaseEngine.obj
 0002:fffd5000       __catchsym$??$?6U?$char_traits@D@std@@@std@@YAAAV?$basic_ostream@DU?$char_traits@D@std@@@0@AAV10@PBD@Z$3 00400000     BouncingBall.obj
 0002:fffd5000       __ehfuncinfo$??1_Sentry_base@?$basic_ostream@DU?$char_traits@D@std@@@std@@QAE@XZ 00400000     BouncingBall.obj
 0002:fffd5000       __ehfuncinfo$??1sentry@?$basic_ostream@DU?$char_traits@D@std@@@std@@QAE@XZ 00400000     BouncingBall.obj
 0001:fffff000       __ehhandler$??1_Sentry_base@?$basic_ostream@DU?$char_traits@D@std@@@std@@QAE@XZ 00400000 f   BouncingBall.obj
 0001:fffff000       __ehhandler$??1sentry@?$basic_ostream@DU?$char_traits@D@std@@@std@@QAE@XZ 00400000 f   BouncingBall.obj
 0001:fffff000       __unwindfunclet$??$?6U?$char_traits@D@std@@@std@@YAAAV?$basic_ostream@DU?$char_traits@D@std@@@0@AAV10@PBD@Z$2 00400000 f   BouncingBall.obj
 0001:fffff000       __unwindfunclet$??0sentry@?$basic_ostream@DU?$char_traits@D@std@@@std@@QAE@AAV12@@Z$0 00400000 f   BouncingBall.obj
 0002:fffd5000       __unwindtable$??0sentry@?$basic_ostream@DU?$char_traits@D@std@@@std@@QAE@AAV12@@Z 00400000     BouncingBall.obj
 0000:fffc3000       _volmd                     00400000     BouncingBall.obj
 0000:fffc3000       _volmd                     00400000     BouncingBall.obj
 0000:fffc3000       _volmd                     00400000     BouncingBall.obj
 0000:fffc3000       _volmd                     00400000     BouncingBall.obj
 0000:fffc3000       _volmd                     00400000     BouncingBall.obj
 0002:fffd5000       __catchsym$??$?6U?$char_traits@D@std@@@std@@YAAAV?$basic_ostream@DU?$char_traits@D@std@@@0@AAV10@PBD@Z$3 00400000     BouncingBallMain.obj
 0002:fffd5000       __catchsym$??$_Resize_reallocate@U_Value_init_tag@std@@@?$vector@PAVDisplayableObject@@V?$allocator@PAVDisplayableObject@@@std@@@std@@AAEXIABU_Value_init_tag@1@@Z$2 00400000     BouncingBallMain.obj
 0002:fffd5000       __ehfuncinfo$??$_Deallocate@$07$0A@@std@@YAXPAXI@Z 00400000     BouncingBallMain.obj
 0002:fffd5000       __ehfuncinfo$??1_Sentry_base@?$basic_ostream@DU?$char_traits@D@std@@@std@@QAE@XZ 00400000     BouncingBallMain.obj
 0002:fffd5000       __ehfuncinfo$??1sentry@?$basic_ostream@DU?$char_traits@D@std@@@std@@QAE@XZ 00400000     BouncingBallMain.obj
 0001:fffff000       __ehhandler$??$_Deallocate@$07$0A@@std@@YAXPAXI@Z 00400000 f   BouncingBallMain.obj
 0001:fffff000       __ehhandler$??$_Resize_reallocate@U_Value_init_tag@std@@@?$vector@PAVDisplayableObject@@V?$allocator@PAVDisplayableObject@@@std@@@std@@AAEXIABU_Value_init_tag@1@@Z 00400000 f   BouncingBallMain.obj
 0001:fffff000       __ehhandler$??1_Sentry_base@?$basic_ostream@DU?$char_traits@D@std@@@std@@QAE@XZ 00400000 f   BouncingBallMain.obj
 0001:fffff000       __ehhandler$??1sentry@?$basic_ostream@DU?$char_traits@D@std@@@std@@QAE@XZ 00400000 f   BouncingBallMain.obj
 0001:fffff000       __unwindfunclet$??$?6U?$char_traits@D@std@@@std@@YAAAV?$basic_ostream@DU?$char_traits@D@std@@@0@AAV10@PBD@Z$2 00400000 f   BouncingBallMain.obj
 0001:fffff000       __unwindfunclet$??$_Uninitialized_move@PAPAVDisplayableObject@@V?$allocator@PAVDisplayableObject@@@std@@@std@@YAPAPAVDisplayableObject@@QAPAV1@0PAPAV1@AAV?$allocator@PAVDisplayableObject@@@0@@Z$0 00400000 f   BouncingBallMain.obj
 0001:fffff000       __unwindfunclet$??$_Uninitialized_value_construct_n@V?$allocator@PAVDisplayableObject@@@std@@@std@@YAPAPAVDisplayableObject@@PAPAV1@IAAV?$allocator@PAVDisplayableObject@@@0@@Z$0 00400000 f   BouncingBallMain.obj
 0001:fffff000       __unwindfunclet$??0sentry@?$basic_ostream@DU?$char_traits@D@std@@@std@@QAE@AAV12@@Z$0 00400000 f   BouncingBallMain.obj
 0001:fffff000       __unwindfunclet$?_Orphan_range_locked@?$vector@PAVDisplayableObject@@V?$allocator@PAVDisplayableObject@@@std@@@std@@ABEXPAPAVDisplayableObject@@0@Z$0 00400000 f   BouncingBallMain.obj
 0002:fffd5000       __unwindtable$??$_Uninitialized_move@PAPAVDisplayableObject@@V?$allocator@PAVDisplayableObject@@@std@@@std@@YAPAPAVDisplayableObject@@QAPAV1@0PAPAV1@AAV?$allocator@PAVDisplayableObject@@@0@@Z 00400000     BouncingBallMain.obj
 0002:fffd5000       __unwindtable$??$_Uninitialized_value_construct_n@V?$allocator@PAVDisplayableObject@@@std@@@std@@YAPAPAVDisplayableObject@@PAPAV1@IAAV?$allocator@PAVDisplayableObject@@@0@@Z 00400000     BouncingBallMain.obj
 0002:fffd5000       __unwindtable$??0sentry@?$basic_ostream@DU?$char_traits@D@std@@@std@@QAE@AAV12@@Z 00400000     BouncingBallMain.obj
 0002:fffd5000       __unwindtable$?_Orphan_range_locked@?$vector@PAVDisplayableObject@@V?$allocator@PAVDisplayableObject@@@std@@@std@@ABEXPAPAVDisplayableObject@@0@Z 00400000     BouncingBallMain.obj
 0000:fffc3000       _volmd                     00400000     BouncingBallMain.obj
 0000:fffc3000       _volmd                     00400000     BouncingBallMain.obj
 0000:fffc3000       _volmd                     00400000     BouncingBallMain.obj
 0000:fffc3000       _volmd                     00400000     BouncingBallMain.obj
 0000:fffc3000       _volmd                     00400000     BouncingBallMain.obj
 0000:fffc3000       _volmd                     00400000     BouncingBallMain.obj
 0000:fffc3000       _volmd                     00400000     BouncingBallMain.obj
 0000:fffc3000       _volmd                     00400000     BouncingBallMain.obj
 0000:fffc3000       _volmd                     00400000     BouncingBallMain.obj
 0000:fffc3000       _volmd                     00400000     BouncingBallMain.obj
 0000:fffc3000       _volmd                     00400000     BouncingBallMain.obj
 0000:fffc3000       _volmd                     00400000     BouncingBallMain.obj
 0000:fffc3000       _volmd                     00400000     BouncingBallMain.obj
 0000:fffc3000       _volmd                     00400000     BouncingBallMain.obj
 0000:fffc3000       _volmd                     00400000     BouncingBallMain.obj
 0002:fffd5000       __catchsym$??$?6U?$char_traits@D@std@@@std@@YAAAV?$basic_ostream@DU?$char_traits@D@std@@@0@AAV10@PBD@Z$3 00400000     DisplayableObject.obj
 0002:fffd5000       __ehfuncinfo$??1_Sentry_base@?$basic_ostream@DU?$char_traits@D@std@@@std@@QAE@XZ 00400000     DisplayableObject.obj
 0002:fffd5000       __ehfuncinfo$??1sentry@?$basic_ostream@DU?$char_traits@D@std@@@std@@QAE@XZ 00400000     DisplayableObject.obj
 0001:fffff000       __ehhandler$??1_Sentry_base@?$basic_ostream@DU?$char_traits@D@std@@@std@@QAE@XZ 00400000 f   DisplayableObject.obj
 0001:fffff000       __ehhandler$??1sentry@?$basic_ostream@DU?$char_traits@D@std@@@std@@QAE@XZ 00400000 f   DisplayableObject.obj
 0001:fffff000       __unwindfunclet$??$?6U?$char_traits@D@std@@@std@@YAAAV?$basic_ostream@DU?$char_traits@D@std@@@0@AAV10@PBD@Z$2 00400000 f   DisplayableObject.obj
 0001:fffff000       __unwindfunclet$??0sentry@?$basic_ostream@DU?$char_traits@D@std@@@std@@QAE@AAV12@@Z$0 00400000 f   DisplayableObject.obj
 0002:fffd5000       __unwindtable$??0sentry@?$basic_ostream@DU?$char_traits@D@std@@@std@@QAE@AAV12@@Z 00400000     DisplayableObject.obj
 0000:fffc3000       _volmd                     00400000     DisplayableObject.obj
 0000:fffc3000       _volmd                     00400000     DisplayableObject.obj
 0000:fffc3000       _volmd                     00400000     DisplayableObject.obj
 0000:fffc3000       _volmd                     00400000     DisplayableObject.obj
 0000:fffc3000       _volmd                     00400000     DraggingDemo.obj
 0000:fffc3000       _volmd                     00400000     DraggingDemo.obj
 0000:fffc3000       _volmd                     00400000     DraggingDemo.obj
 0000:fffc3000       _volmd                     00400000     DraggingDemo.obj
 0000:fffc3000       _volmd                     00400000     DraggingDemo.obj
 0000:fffc3000       _volmd                     00400000     DraggingDemo.obj
 0000:fffc3000       _volmd                     00400000     DraggingDemo.obj
 0000:fffc3000       _volmd                     00400000     DraggingDemo.obj
 0000:fffc3000       _volmd                     00400000     DraggingDemo.obj
 0000:fffc3000       _volmd                     00400000     DraggingDemo.obj
 0000:fffc3000       _volmd                     00400000     DraggingDemo.obj
 0000:fffc3000       _volmd                     00400000     DraggingDemo.obj
 0000:fffc3000       _volmd                     00400000     DraggingDemo.obj
 0000:fffc3000       _volmd                     00400000     DraggingDemo.obj
 0000:fffc3000       _volmd                     00400000     DraggingDemo.obj
 0000:fffc3000       _volmd                     00400000     DraggingDemo.obj
 0000:fffc3000       _volmd                     00400000     DraggingDemo.obj
 0000:fffc3000       _volmd                     00400000     DraggingDemo.obj
 0000:fffc3000       _volmd                     00400000     DraggingDemo.obj
 0000:fffc3000       _volmd                     00400000     DraggingDemo.obj
 0000:fffc3000       _volmd                     00400000     DraggingDemo.obj
 0000:fffc3000       _volmd                     00400000     DraggingDemo.obj
 0000:fffc3000       _volmd                     00400000     DraggingDemo.obj
 0000:fffc3000       _volmd                     00400000     DraggingDemo.obj
 0000:fffc3000       _volmd                     00400000     DraggingDemo.obj
 0000:fffc3000       _volmd                     00400000     DraggingDemo.obj
 0000:fffc3000       _volmd                     00400000     DraggingDemo.obj
 0000:fffc3000       _volmd                     00400000     DraggingDemo.obj
 0000:fffc3000       _volmd                     00400000     DraggingDemo.obj
 0000:fffc3000       _volmd                     00400000     DraggingDemo.obj
 0000:fffc3000       _volmd                     00400000     DraggingDemo.obj
 0000:fffc3000       _volmd                     00400000     DraggingDemo.obj
 0000:fffc3000       _volmd                     00400000     DraggingDemo.obj
 0000:fffc3000       _volmd                     00400000     DraggingDemo.obj
 0000:fffc3000       _volmd                     00400000     DraggingDemo.obj
 0000:fffc3000       _volmd                     00400000     DraggingDemo.obj
 0000:fffc3000       _volmd                     00400000     DraggingDemo.obj
 0000:fffc3000       _volmd                     00400000     DraggingDemo.obj
 0000:fffc3000       _volmd                     00400000     DraggingDemo.obj
 0000:fffc3000       _volmd                     00400000     DraggingDemo.obj
 0000:fffc3000       _volmd                     00400000     DraggingDemo.obj
 0000:fffc3000       _volmd                     00400000     DraggingDemo.obj
 0000:fffc3000       _volmd                     00400000     DraggingDemo.obj
 0000:fffc3000       _volmd                     00400000     DraggingDemo.obj
 0002:fffd5000       __catchsym$??$?6U?$char_traits@D@std@@@std@@YAAAV?$basic_ostream@DU?$char_traits@D@std@@@0@AAV10@PBD@Z$3 00400000     DrawingSurface.obj
 0002:fffd5000       __ehfuncinfo$??1_Sentry_base@?$basic_ostream@DU?$char_traits@D@std@@@std@@QAE@XZ 00400000     DrawingSurface.obj
 0002:fffd5000       __ehfuncinfo$??1sentry@?$basic_ostream@DU?$char_traits@D@std@@@std@@QAE@XZ 00400000     DrawingSurface.obj
 0001:fffff000       __ehhandler$??1_Sentry_base@?$basic_ostream@DU?$char_traits@D@std@@@std@@QAE@XZ 00400000 f   DrawingSurface.obj
 0001:fffff000       __ehhandler$??1sentry@?$basic_ostream@DU?$char_traits@D@std@@@std@@QAE@XZ 00400000 f   DrawingSurface.obj
 0001:fffff000       __unwindfunclet$??$?6U?$char_traits@D@std@@@std@@YAAAV?$basic_ostream@DU?$char_traits@D@std@@@0@AAV10@PBD@Z$2 00400000 f   DrawingSurface.obj
 0001:fffff000       __unwindfunclet$??0sentry@?$basic_ostream@DU?$char_traits@D@std@@@std@@QAE@AAV12@@Z$0 00400000 f   DrawingSurface.obj
 0002:fffd5000       __unwindtable$??0sentry@?$basic_ostream@DU?$char_traits@D@std@@@std@@QAE@AAV12@@Z 00400000     DrawingSurface.obj
 0000:fffc3000       _volmd                     00400000     DrawingSurface.obj
 0000:fffc3000       _volmd                     00400000     DrawingSurface.obj
 0000:fffc3000       _volmd                     00400000     DrawingSurface.obj
 0000:fffc3000       _volmd                     00400000     DrawingSurface.obj
 0000:fffc3000       _volmd                     00400000     DrawingSurface.obj
 0002:fffd5000       __catchsym$??$?6U?$char_traits@D@std@@@std@@YAAAV?$basic_ostream@DU?$char_traits@D@std@@@0@AAV10@PBD@Z$3 00400000     FlashingDemo.obj
 0002:fffd5000       __ehfuncinfo$??1_Sentry_base@?$basic_ostream@DU?$char_traits@D@std@@@std@@QAE@XZ 00400000     FlashingDemo.obj
 0002:fffd5000       __ehfuncinfo$??1sentry@?$basic_ostream@DU?$char_traits@D@std@@@std@@QAE@XZ 00400000     FlashingDemo.obj
 0001:fffff000       __ehhandler$??1_Sentry_base@?$basic_ostream@DU?$char_traits@D@std@@@std@@QAE@XZ 00400000 f   FlashingDemo.obj
 0001:fffff000       __ehhandler$??1sentry@?$basic_ostream@DU?$char_traits@D@std@@@std@@QAE@XZ 00400000 f   FlashingDemo.obj
 0001:fffff000       __unwindfunclet$??$?6U?$char_traits@D@std@@@std@@YAAAV?$basic_ostream@DU?$char_traits@D@std@@@0@AAV10@PBD@Z$2 00400000 f   FlashingDemo.obj
 0001:fffff000       __unwindfunclet$??0sentry@?$basic_ostream@DU?$char_traits@D@std@@@std@@QAE@AAV12@@Z$0 00400000 f   FlashingDemo.obj
 0002:fffd5000       __unwindtable$??0sentry@?$basic_ostream@DU?$char_traits@D@std@@@std@@QAE@AAV12@@Z 00400000     FlashingDemo.obj
 0000:fffc3000       _volmd                     00400000     FlashingDemo.obj
 0000:fffc3000       _volmd                     00400000     FlashingDemo.obj
 0000:fffc3000       _volmd                     00400000     FlashingDemo.obj
 0000:fffc3000       _volmd                     00400000     FlashingDemo.obj
 0000:fffc3000       _volmd                     00400000     FlashingDemo.obj
 0000:fffc3000       _volmd                     00400000     FlashingDemo.obj
 0000:fffc3000       _volmd                     00400000     FontManager.obj
 0002:fffd5000       __catchsym$??$?6U?$char_traits@D@std@@@std@@YAAAV?$basic_ostream@DU?$char_traits@D@std@@@0@AAV10@PBD@Z$3 00400000     ImageMappingDemo.obj
 0002:fffd5000       __catchsym$??$_Insert_string@DU?$char_traits@D@std@@I@std@@YAAAV?$basic_ostream@DU?$char_traits@D@std@@@0@AAV10@QBDI@Z$3 00400000     ImageMappingDemo.obj
 0002:fffd5000       __catchsym$??$_Resize_reallocate@U_Value_init_tag@std@@@?$vector@PAVDisplayableObject@@V?$allocator@PAVDisplayableObject@@@std@@@std@@AAEXIABU_Value_init_tag@1@@Z$2 00400000     ImageMappingDemo.obj
 0002:fffd5000       __ehfuncinfo$??$_Deallocate@$07$0A@@std@@YAXPAXI@Z 00400000     ImageMappingDemo.obj
 0002:fffd5000       __ehfuncinfo$??$_Deallocate_plain@V?$allocator@U_Container_proxy@std@@@std@@@std@@YAXAAV?$allocator@U_Container_proxy@std@@@0@QAU_Container_proxy@0@@Z 00400000     ImageMappingDemo.obj
 0002:fffd5000       __ehfuncinfo$??$_Freenode0@V?$allocator@U?$_Tree_node@U?$pair@$$CBV?$basic_string@DU?$char_traits@D@std@@V?$allocator@D@2@@std@@V?$weak_ptr@VRawImageData@@@2@@std@@PAX@std@@@std@@@?$_Tree_node@U?$pair@$$CBV?$basic_string@DU?$char_traits@D@std@@V?$allocator@D@2@@std@@V?$weak_ptr@VRawImageData@@@2@@std@@PAX@std@@SAXAAV?$allocator@U?$_Tree_node@U?$pair@$$CBV?$basic_string@DU?$char_traits@D@std@@V?$allocator@D@2@@std@@V?$weak_ptr@VRawImageData@@@2@@std@@PAX@std@@@1@PAU01@@Z 00400000     ImageMappingDemo.obj
 0002:fffd5000       __ehfuncinfo$??$_Freenode@V?$allocator@U?$_Tree_node@U?$pair@$$CBV?$basic_string@DU?$char_traits@D@std@@V?$allocator@D@2@@std@@V?$weak_ptr@VRawImageData@@@2@@std@@PAX@std@@@std@@@?$_Tree_node@U?$pair@$$CBV?$basic_string@DU?$char_traits@D@std@@V?$allocator@D@2@@std@@V?$weak_ptr@VRawImageData@@@2@@std@@PAX@std@@SAXAAV?$allocator@U?$_Tree_node@U?$pair@$$CBV?$basic_string@DU?$char_traits@D@std@@V?$allocator@D@2@@std@@V?$weak_ptr@VRawImageData@@@2@@std@@PAX@std@@@1@PAU01@@Z 00400000     ImageMappingDemo.obj
 0002:fffd5000       __ehfuncinfo$??0?$basic_string@DU?$char_traits@D@std@@V?$allocator@D@2@@std@@QAE@$$QAV01@@Z 00400000     ImageMappingDemo.obj
 0002:fffd5000       __ehfuncinfo$??1?$_Alloc_construct_ptr@V?$allocator@U?$_Tree_node@U?$pair@$$CBV?$basic_string@DU?$char_traits@D@std@@V?$allocator@D@2@@std@@V?$shared_ptr@VRawImageData@@@2@@std@@PAX@std@@@std@@@std@@QAE@XZ 00400000     ImageMappingDemo.obj
 0002:fffd5000       __ehfuncinfo$??1?$_Alloc_construct_ptr@V?$allocator@U?$_Tree_node@U?$pair@$$CBV?$basic_string@DU?$char_traits@D@std@@V?$allocator@D@2@@std@@V?$weak_ptr@VRawImageData@@@2@@std@@PAX@std@@@std@@@std@@QAE@XZ 00400000     ImageMappingDemo.obj
 0002:fffd5000       __ehfuncinfo$??1?$_Tree_temp_node@V?$allocator@U?$_Tree_node@U?$pair@$$CBV?$basic_string@DU?$char_traits@D@std@@V?$allocator@D@2@@std@@V?$shared_ptr@VRawImageData@@@2@@std@@PAX@std@@@std@@@std@@QAE@XZ 00400000     ImageMappingDemo.obj
 0002:fffd5000       __ehfuncinfo$??1?$_Tree_temp_node@V?$allocator@U?$_Tree_node@U?$pair@$$CBV?$basic_string@DU?$char_traits@D@std@@V?$allocator@D@2@@std@@V?$weak_ptr@VRawImageData@@@2@@std@@PAX@std@@@std@@@std@@QAE@XZ 00400000     ImageMappingDemo.obj
 0002:fffd5000       __ehfuncinfo$??1RawImageData@@QAE@XZ 00400000     ImageMappingDemo.obj
 0002:fffd5000       __ehfuncinfo$??1_Sentry_base@?$basic_ostream@DU?$char_traits@D@std@@@std@@QAE@XZ 00400000     ImageMappingDemo.obj
 0002:fffd5000       __ehfuncinfo$??1sentry@?$basic_ostream@DU?$char_traits@D@std@@@std@@QAE@XZ 00400000     ImageMappingDemo.obj
 0002:fffd5000       __ehfuncinfo$?_Take_contents@?$basic_string@DU?$char_traits@D@std@@V?$allocator@D@2@@std@@AAEXAAV12@@Z 00400000     ImageMappingDemo.obj
 0002:fffd5000       __ehfuncinfo$?_Tidy_deallocate@?$basic_string@DU?$char_traits@D@std@@V?$allocator@D@2@@std@@AAEXXZ 00400000     ImageMappingDemo.obj
 0002:fffd5000       __ehfuncinfo$?getImagePtrbyURL@ImageManager@@QAE?AV?$shared_ptr@VRawImageData@@@std@@V?$basic_string@DU?$char_traits@D@std@@V?$allocator@D@2@@3@_N1@Z 00400000     ImageMappingDemo.obj
 0001:fffff000       __ehhandler$??$_Deallocate@$07$0A@@std@@YAXPAXI@Z 00400000 f   ImageMappingDemo.obj
 0001:fffff000       __ehhandler$??$_Deallocate_plain@V?$allocator@U_Container_proxy@std@@@std@@@std@@YAXAAV?$allocator@U_Container_proxy@std@@@0@QAU_Container_proxy@0@@Z 00400000 f   ImageMappingDemo.obj
 0001:fffff000       __ehhandler$??$_Freenode0@V?$allocator@U?$_Tree_node@U?$pair@$$CBV?$basic_string@DU?$char_traits@D@std@@V?$allocator@D@2@@std@@V?$weak_ptr@VRawImageData@@@2@@std@@PAX@std@@@std@@@?$_Tree_node@U?$pair@$$CBV?$basic_string@DU?$char_traits@D@std@@V?$allocator@D@2@@std@@V?$weak_ptr@VRawImageData@@@2@@std@@PAX@std@@SAXAAV?$allocator@U?$_Tree_node@U?$pair@$$CBV?$basic_string@DU?$char_traits@D@std@@V?$allocator@D@2@@std@@V?$weak_ptr@VRawImageData@@@2@@std@@PAX@std@@@1@PAU01@@Z 00400000 f   ImageMappingDemo.obj
 0001:fffff000       __ehhandler$??$_Freenode@V?$allocator@U?$_Tree_node@U?$pair@$$CBV?$basic_string@DU?$char_traits@D@std@@V?$allocator@D@2@@std@@V?$weak_ptr@VRawImageData@@@2@@std@@PAX@std@@@std@@@?$_Tree_node@U?$pair@$$CBV?$basic_string@DU?$char_traits@D@std@@V?$allocator@D@2@@std@@V?$weak_ptr@VRawImageData@@@2@@std@@PAX@std@@SAXAAV?$allocator@U?$_Tree_node@U?$pair@$$CBV?$basic_string@DU?$char_traits@D@std@@V?$allocator@D@2@@std@@V?$weak_ptr@VRawImageData@@@2@@std@@PAX@std@@@1@PAU01@@Z 00400000 f   ImageMappingDemo.obj
 0001:fffff000       __ehhandler$??$_Resize_reallocate@U_Value_init_tag@std@@@?$vector@PAVDisplayableObject@@V?$allocator@PAVDisplayableObject@@@std@@@std@@AAEXIABU_Value_init_tag@1@@Z 00400000 f   ImageMappingDemo.obj
 0001:fffff000       __ehhandler$??0?$basic_string@DU?$char_traits@D@std@@V?$allocator@D@2@@std@@QAE@$$QAV01@@Z 00400000 f   ImageMappingDemo.obj
 0001:fffff000       __ehhandler$??1?$_Alloc_construct_ptr@V?$allocator@U?$_Tree_node@U?$pair@$$CBV?$basic_string@DU?$char_traits@D@std@@V?$allocator@D@2@@std@@V?$shared_ptr@VRawImageData@@@2@@std@@PAX@std@@@std@@@std@@QAE@XZ 00400000 f   ImageMappingDemo.obj
 0001:fffff000       __ehhandler$??1?$_Alloc_construct_ptr@V?$allocator@U?$_Tree_node@U?$pair@$$CBV?$basic_string@DU?$char_traits@D@std@@V?$allocator@D@2@@std@@V?$weak_ptr@VRawImageData@@@2@@std@@PAX@std@@@std@@@std@@QAE@XZ 00400000 f   ImageMappingDemo.obj
 0001:fffff000       __ehhandler$??1?$_Tree_temp_node@V?$allocator@U?$_Tree_node@U?$pair@$$CBV?$basic_string@DU?$char_traits@D@std@@V?$allocator@D@2@@std@@V?$shared_ptr@VRawImageData@@@2@@std@@PAX@std@@@std@@@std@@QAE@XZ 00400000 f   ImageMappingDemo.obj
 0001:fffff000       __ehhandler$??1?$_Tree_temp_node@V?$allocator@U?$_Tree_node@U?$pair@$$CBV?$basic_string@DU?$char_traits@D@std@@V?$allocator@D@2@@std@@V?$weak_ptr@VRawImageData@@@2@@std@@PAX@std@@@std@@@std@@QAE@XZ 00400000 f   ImageMappingDemo.obj
 0001:fffff000       __ehhandler$??1RawImageData@@QAE@XZ 00400000 f   ImageMappingDemo.obj
 0001:fffff000       __ehhandler$??1_Sentry_base@?$basic_ostream@DU?$char_traits@D@std@@@std@@QAE@XZ 00400000 f   ImageMappingDemo.obj
 0001:fffff000       __ehhandler$??1sentry@?$basic_ostream@DU?$char_traits@D@std@@@std@@QAE@XZ 00400000 f   ImageMappingDemo.obj
 0001:fffff000       __ehhandler$?_Take_contents@?$basic_string@DU?$char_traits@D@std@@V?$allocator@D@2@@std@@AAEXAAV12@@Z 00400000 f   ImageMappingDemo.obj
 0001:fffff000       __ehhandler$?_Tidy_deallocate@?$basic_string@DU?$char_traits@D@std@@V?$allocator@D@2@@std@@AAEXXZ 00400000 f   ImageMappingDemo.obj
 0001:fffff000       __unwindfunclet$??$?0U?$pair@V?$basic_string@DU?$char_traits@D@std@@V?$allocator@D@2@@std@@V?$shared_ptr@VRawImageData@@@2@@std@@@?$_Tree_temp_node@V?$allocator@U?$_Tree_node@U?$pair@$$CBV?$basic_string@DU?$char_traits@D@std@@V?$allocator@D@2@@std@@V?$shared_ptr@VRawImageData@@@2@@std@@PAX@std@@@std@@@std@@QAE@AAV?$allocator@U?$_Tree_node@U?$pair@$$CBV?$basic_string@DU?$char_traits@D@std@@V?$allocator@D@2@@std@@V?$shared_ptr@VRawImageData@@@2@@std@@PAX@std@@@1@PAU?$_Tree_node@U?$pair@$$CBV?$basic_string@DU?$char_traits@D@std@@V?$allocator@D@2@@std@@V?$shared_ptr@VRawImageData@@@2@@std@@PAX@1@$$QAU?$pair@V?$basic_string@DU?$char_traits@D@std@@V?$allocator@D@2@@std@@V?$shared_ptr@VRawImageData@@@2@@1@@Z$0 00400000 f   ImageMappingDemo.obj
 0001:fffff000       __unwindfunclet$??$?0U?$pair@V?$basic_string@DU?$char_traits@D@std@@V?$allocator@D@2@@std@@V?$weak_ptr@VRawImageData@@@2@@std@@@?$_Tree_temp_node@V?$allocator@U?$_Tree_node@U?$pair@$$CBV?$basic_string@DU?$char_traits@D@std@@V?$allocator@D@2@@std@@V?$weak_ptr@VRawImageData@@@2@@std@@PAX@std@@@std@@@std@@QAE@AAV?$allocator@U?$_Tree_node@U?$pair@$$CBV?$basic_string@DU?$char_traits@D@std@@V?$allocator@D@2@@std@@V?$weak_ptr@VRawImageData@@@2@@std@@PAX@std@@@1@PAU?$_Tree_node@U?$pair@$$CBV?$basic_string@DU?$char_traits@D@std@@V?$allocator@D@2@@std@@V?$weak_ptr@VRawImageData@@@2@@std@@PAX@1@$$QAU?$pair@V?$basic_string@DU?$char_traits@D@std@@V?$allocator@D@2@@std@@V?$weak_ptr@VRawImageData@@@2@@1@@Z$0 00400000 f   ImageMappingDemo.obj
 0001:fffff000       __unwindfunclet$??$?0VRawImageData@@$0A@@?$shared_ptr@VRawImageData@@@std@@QAE@PAVRawImageData@@@Z$0 00400000 f   ImageMappingDemo.obj
 0001:fffff000       __unwindfunclet$??$?6U?$char_traits@D@std@@@std@@YAAAV?$basic_ostream@DU?$char_traits@D@std@@@0@AAV10@PBD@Z$2 00400000 f   ImageMappingDemo.obj
 0001:fffff000       __unwindfunclet$??$_Insert_string@DU?$char_traits@D@std@@I@std@@YAAAV?$basic_ostream@DU?$char_traits@D@std@@@0@AAV10@QBDI@Z$2 00400000 f   ImageMappingDemo.obj
 0001:fffff000       __unwindfunclet$??$_Uninitialized_move@PAPAVDisplayableObject@@V?$allocator@PAVDisplayableObject@@@std@@@std@@YAPAPAVDisplayableObject@@QAPAV1@0PAPAV1@AAV?$allocator@PAVDisplayableObject@@@0@@Z$0 00400000 f   ImageMappingDemo.obj
 0001:fffff000       __unwindfunclet$??$_Uninitialized_value_construct_n@V?$allocator@PAVDisplayableObject@@@std@@@std@@YAPAPAVDisplayableObject@@PAPAV1@IAAV?$allocator@PAVDisplayableObject@@@0@@Z$0 00400000 f   ImageMappingDemo.obj
 0001:fffff000       __unwindfunclet$??0?$_Tree_temp_node_alloc@V?$allocator@U?$_Tree_node@U?$pair@$$CBV?$basic_string@DU?$char_traits@D@std@@V?$allocator@D@2@@std@@V?$shared_ptr@VRawImageData@@@2@@std@@PAX@std@@@std@@@std@@QAE@AAV?$allocator@U?$_Tree_node@U?$pair@$$CBV?$basic_string@DU?$char_traits@D@std@@V?$allocator@D@2@@std@@V?$shared_ptr@VRawImageData@@@2@@std@@PAX@std@@@1@@Z$0 00400000 f   ImageMappingDemo.obj
 0001:fffff000       __unwindfunclet$??0?$_Tree_temp_node_alloc@V?$allocator@U?$_Tree_node@U?$pair@$$CBV?$basic_string@DU?$char_traits@D@std@@V?$allocator@D@2@@std@@V?$weak_ptr@VRawImageData@@@2@@std@@PAX@std@@@std@@@std@@QAE@AAV?$allocator@U?$_Tree_node@U?$pair@$$CBV?$basic_string@DU?$char_traits@D@std@@V?$allocator@D@2@@std@@V?$weak_ptr@VRawImageData@@@2@@std@@PAX@std@@@1@@Z$0 00400000 f   ImageMappingDemo.obj
 0001:fffff000       __unwindfunclet$??0?$basic_string@DU?$char_traits@D@std@@V?$allocator@D@2@@std@@QAE@ABV01@@Z$0 00400000 f   ImageMappingDemo.obj
 0001:fffff000       __unwindfunclet$??0?$basic_string@DU?$char_traits@D@std@@V?$allocator@D@2@@std@@QAE@QBD@Z$0 00400000 f   ImageMappingDemo.obj
 0001:fffff000       __unwindfunclet$??0DragableImageObject@@QAE@HHPAVBaseEngine@@V?$basic_string@DU?$char_traits@D@std@@V?$allocator@D@2@@std@@_N2@Z$0 00400000 f   ImageMappingDemo.obj
 0001:fffff000       __unwindfunclet$??0ImageManager@@QAE@XZ$0 00400000 f   ImageMappingDemo.obj
 0001:fffff000       __unwindfunclet$??0RawImageData@@QAE@V?$basic_string@DU?$char_traits@D@std@@V?$allocator@D@2@@std@@@Z$0 00400000 f   ImageMappingDemo.obj
 0001:fffff000       __unwindfunclet$??0sentry@?$basic_ostream@DU?$char_traits@D@std@@@std@@QAE@AAV12@@Z$0 00400000 f   ImageMappingDemo.obj
 0001:fffff000       __unwindfunclet$?_Alloc_sentinel_and_proxy@?$_Tree@V?$_Tmap_traits@V?$basic_string@DU?$char_traits@D@std@@V?$allocator@D@2@@std@@V?$shared_ptr@VRawImageData@@@2@U?$less@V?$basic_string@DU?$char_traits@D@std@@V?$allocator@D@2@@std@@@2@V?$allocator@U?$pair@$$CBV?$basic_string@DU?$char_traits@D@std@@V?$allocator@D@2@@std@@V?$shared_ptr@VRawImageData@@@2@@std@@@2@$0A@@std@@@std@@IAEXXZ$0 00400000 f   ImageMappingDemo.obj
 0001:fffff000       __unwindfunclet$?_Alloc_sentinel_and_proxy@?$_Tree@V?$_Tmap_traits@V?$basic_string@DU?$char_traits@D@std@@V?$allocator@D@2@@std@@V?$weak_ptr@VRawImageData@@@2@U?$less@V?$basic_string@DU?$char_traits@D@std@@V?$allocator@D@2@@std@@@2@V?$allocator@U?$pair@$$CBV?$basic_string@DU?$char_traits@D@std@@V?$allocator@D@2@@std@@V?$weak_ptr@VRawImageData@@@2@@std@@@2@$0A@@std@@@std@@IAEXXZ$0 00400000 f   ImageMappingDemo.obj
 0001:fffff000       __unwindfunclet$?_Orphan_range_locked@?$vector@PAVDisplayableObject@@V?$allocator@PAVDisplayableObject@@@std@@@std@@ABEXPAPAVDisplayableObject@@0@Z$0 00400000 f   ImageMappingDemo.obj
 0001:fffff000       __unwindfunclet$?get@ImageManager@@SAPAV1@XZ$0 00400000 f   ImageMappingDemo.obj
 0001:fffff000       __unwindfunclet$?getImagePtrbyURL@ImageManager@@QAE?AV?$shared_ptr@VRawImageData@@@std@@V?$basic_string@DU?$char_traits@D@std@@V?$allocator@D@2@@3@_N1@Z$0 00400000 f   ImageMappingDemo.obj
 0001:fffff000       __unwindfunclet$?getImagebyURL@ImageManager@@QAE?AVSimpleImage@@V?$basic_string@DU?$char_traits@D@std@@V?$allocator@D@2@@std@@_N1@Z$0 00400000 f   ImageMappingDemo.obj
 0001:fffff000       __unwindfunclet$?loadAsNew@ImageManager@@QAE?AV?$shared_ptr@VRawImageData@@@std@@V?$basic_string@DU?$char_traits@D@std@@V?$allocator@D@2@@3@@Z$0 00400000 f   ImageMappingDemo.obj
 0001:fffff000       __unwindfunclet$?loadImage@RawImageData@@QAE_NV?$basic_string@DU?$char_traits@D@std@@V?$allocator@D@2@@std@@HHHHH_N@Z$0 00400000 f   ImageMappingDemo.obj
 0002:fffd5000       __unwindtable$??$?0U?$pair@V?$basic_string@DU?$char_traits@D@std@@V?$allocator@D@2@@std@@V?$shared_ptr@VRawImageData@@@2@@std@@@?$_Tree_temp_node@V?$allocator@U?$_Tree_node@U?$pair@$$CBV?$basic_string@DU?$char_traits@D@std@@V?$allocator@D@2@@std@@V?$shared_ptr@VRawImageData@@@2@@std@@PAX@std@@@std@@@std@@QAE@AAV?$allocator@U?$_Tree_node@U?$pair@$$CBV?$basic_string@DU?$char_traits@D@std@@V?$allocator@D@2@@std@@V?$shared_ptr@VRawImageData@@@2@@std@@PAX@std@@@1@PAU?$_Tree_node@U?$pair@$$CBV?$basic_string@DU?$char_traits@D@std@@V?$allocator@D@2@@std@@V?$shared_ptr@VRawImageData@@@2@@std@@PAX@1@$$QAU?$pair@V?$basic_string@DU?$char_traits@D@std@@V?$allocator@D@2@@std@@V?$shared_ptr@VRawImageData@@@2@@1@@Z 00400000     ImageMappingDemo.obj
 0002:fffd5000       __unwindtable$??$?0U?$pair@V?$basic_string@DU?$char_traits@D@std@@V?$allocator@D@2@@std@@V?$weak_ptr@VRawImageData@@@2@@std@@@?$_Tree_temp_node@V?$allocator@U?$_Tree_node@U?$pair@$$CBV?$basic_string@DU?$char_traits@D@std@@V?$allocator@D@2@@std@@V?$weak_ptr@VRawImageData@@@2@@std@@PAX@std@@@std@@@std@@QAE@AAV?$allocator@U?$_Tree_node@U?$pair@$$CBV?$basic_string@DU?$char_traits@D@std@@V?$allocator@D@2@@std@@V?$weak_ptr@VRawImageData@@@2@@std@@PAX@std@@@1@PAU?$_Tree_node@U?$pair@$$CBV?$basic_string@DU?$char_traits@D@std@@V?$allocator@D@2@@std@@V?$weak_ptr@VRawImageData@@@2@@std@@PAX@1@$$QAU?$pair@V?$basic_string@DU?$char_traits@D@std@@V?$allocator@D@2@@std@@V?$weak_ptr@VRawImageData@@@2@@1@@Z 00400000     ImageMappingDemo.obj
 0002:fffd5000       __unwindtable$??$?0VRawImageData@@$0A@@?$shared_ptr@VRawImageData@@@std@@QAE@PAVRawImageData@@@Z 00400000     ImageMappingDemo.obj
 0002:fffd5000       __unwindtable$??$_Uninitialized_move@PAPAVDisplayableObject@@V?$allocator@PAVDisplayableObject@@@std@@@std@@YAPAPAVDisplayableObject@@QAPAV1@0PAPAV1@AAV?$allocator@PAVDisplayableObject@@@0@@Z 00400000     ImageMappingDemo.obj
 0002:fffd5000       __unwindtable$??$_Uninitialized_value_construct_n@V?$allocator@PAVDisplayableObject@@@std@@@std@@YAPAPAVDisplayableObject@@PAPAV1@IAAV?$allocator@PAVDisplayableObject@@@0@@Z 00400000     ImageMappingDemo.obj
 0002:fffd5000       __unwindtable$??0?$_Tree_temp_node_alloc@V?$allocator@U?$_Tree_node@U?$pair@$$CBV?$basic_string@DU?$char_traits@D@std@@V?$allocator@D@2@@std@@V?$shared_ptr@VRawImageData@@@2@@std@@PAX@std@@@std@@@std@@QAE@AAV?$allocator@U?$_Tree_node@U?$pair@$$CBV?$basic_string@DU?$char_traits@D@std@@V?$allocator@D@2@@std@@V?$shared_ptr@VRawImageData@@@2@@std@@PAX@std@@@1@@Z 00400000     ImageMappingDemo.obj
 0002:fffd5000       __unwindtable$??0?$_Tree_temp_node_alloc@V?$allocator@U?$_Tree_node@U?$pair@$$CBV?$basic_string@DU?$char_traits@D@std@@V?$allocator@D@2@@std@@V?$weak_ptr@VRawImageData@@@2@@std@@PAX@std@@@std@@@std@@QAE@AAV?$allocator@U?$_Tree_node@U?$pair@$$CBV?$basic_string@DU?$char_traits@D@std@@V?$allocator@D@2@@std@@V?$weak_ptr@VRawImageData@@@2@@std@@PAX@std@@@1@@Z 00400000     ImageMappingDemo.obj
 0002:fffd5000       __unwindtable$??0?$basic_string@DU?$char_traits@D@std@@V?$allocator@D@2@@std@@QAE@ABV01@@Z 00400000     ImageMappingDemo.obj
 0002:fffd5000       __unwindtable$??0?$basic_string@DU?$char_traits@D@std@@V?$allocator@D@2@@std@@QAE@QBD@Z 00400000     ImageMappingDemo.obj
 0002:fffd5000       __unwindtable$??0DragableImageObject@@QAE@HHPAVBaseEngine@@V?$basic_string@DU?$char_traits@D@std@@V?$allocator@D@2@@std@@_N2@Z 00400000     ImageMappingDemo.obj
 0002:fffd5000       __unwindtable$??0ImageManager@@QAE@XZ 00400000     ImageMappingDemo.obj
 0002:fffd5000       __unwindtable$??0RawImageData@@QAE@V?$basic_string@DU?$char_traits@D@std@@V?$allocator@D@2@@std@@@Z 00400000     ImageMappingDemo.obj
 0002:fffd5000       __unwindtable$??0sentry@?$basic_ostream@DU?$char_traits@D@std@@@std@@QAE@AAV12@@Z 00400000     ImageMappingDemo.obj
 0002:fffd5000       __unwindtable$?_Alloc_sentinel_and_proxy@?$_Tree@V?$_Tmap_traits@V?$basic_string@DU?$char_traits@D@std@@V?$allocator@D@2@@std@@V?$shared_ptr@VRawImageData@@@2@U?$less@V?$basic_string@DU?$char_traits@D@std@@V?$allocator@D@2@@std@@@2@V?$allocator@U?$pair@$$CBV?$basic_string@DU?$char_traits@D@std@@V?$allocator@D@2@@std@@V?$shared_ptr@VRawImageData@@@2@@std@@@2@$0A@@std@@@std@@IAEXXZ 00400000     ImageMappingDemo.obj
 0002:fffd5000       __unwindtable$?_Alloc_sentinel_and_proxy@?$_Tree@V?$_Tmap_traits@V?$basic_string@DU?$char_traits@D@std@@V?$allocator@D@2@@std@@V?$weak_ptr@VRawImageData@@@2@U?$less@V?$basic_string@DU?$char_traits@D@std@@V?$allocator@D@2@@std@@@2@V?$allocator@U?$pair@$$CBV?$basic_string@DU?$char_traits@D@std@@V?$allocator@D@2@@std@@V?$weak_ptr@VRawImageData@@@2@@std@@@2@$0A@@std@@@std@@IAEXXZ 00400000     ImageMappingDemo.obj
 0002:fffd5000       __unwindtable$?_Orphan_range_locked@?$vector@PAVDisplayableObject@@V?$allocator@PAVDisplayableObject@@@std@@@std@@ABEXPAPAVDisplayableObject@@0@Z 00400000     ImageMappingDemo.obj
 0002:fffd5000       __unwindtable$?get@ImageManager@@SAPAV1@XZ 00400000     ImageMappingDemo.obj
 0002:fffd5000       __unwindtable$?getImagebyURL@ImageManager@@QAE?AVSimpleImage@@V?$basic_string@DU?$char_traits@D@std@@V?$allocator@D@2@@std@@_N1@Z 00400000     ImageMappingDemo.obj
 0002:fffd5000       __unwindtable$?loadAsNew@ImageManager@@QAE?AV?$shared_ptr@VRawImageData@@@std@@V?$basic_string@DU?$char_traits@D@std@@V?$allocator@D@2@@3@@Z 00400000     ImageMappingDemo.obj
 0002:fffd5000       __unwindtable$?loadImage@RawImageData@@QAE_NV?$basic_string@DU?$char_traits@D@std@@V?$allocator@D@2@@std@@HHHHH_N@Z 00400000     ImageMappingDemo.obj
 0000:fffc3000       _volmd                     00400000     ImageMappingDemo.obj
 0000:fffc3000       _volmd                     00400000     ImageMappingDemo.obj
 0000:fffc3000       _volmd                     00400000     ImageMappingDemo.obj
 0000:fffc3000       _volmd                     00400000     ImageMappingDemo.obj
 0000:fffc3000       _volmd                     00400000     ImageMappingDemo.obj
 0000:fffc3000       _volmd                     00400000     ImageMappingDemo.obj
 0000:fffc3000       _volmd                     00400000     ImageMappingDemo.obj
 0000:fffc3000       _volmd                     00400000     ImageMappingDemo.obj
 0000:fffc3000       _volmd                     00400000     ImageMappingDemo.obj
 0000:fffc3000       _volmd                     00400000     ImageMappingDemo.obj
 0000:fffc3000       _volmd                     00400000     ImageMappingDemo.obj
 0000:fffc3000       _volmd                     00400000     ImageMappingDemo.obj
 0000:fffc3000       _volmd                     00400000     ImageMappingDemo.obj
 0000:fffc3000       _volmd                     00400000     ImageMappingDemo.obj
 0000:fffc3000       _volmd                     00400000     ImageMappingDemo.obj
 0000:fffc3000       _volmd                     00400000     ImageMappingDemo.obj
 0000:fffc3000       _volmd                     00400000     ImageMappingDemo.obj
 0000:fffc3000       _volmd                     00400000     ImageMappingDemo.obj
 0000:fffc3000       _volmd                     00400000     ImageMappingDemo.obj
 0000:fffc3000       _volmd                     00400000     ImageMappingDemo.obj
 0000:fffc3000       _volmd                     00400000     ImageMappingDemo.obj
 0000:fffc3000       _volmd                     00400000     ImageMappingDemo.obj
 0000:fffc3000       _volmd                     00400000     ImageMappingDemo.obj
 0000:fffc3000       _volmd                     00400000     ImageMappingDemo.obj
 0000:fffc3000       _volmd                     00400000     ImageMappingDemo.obj
 0000:fffc3000       _volmd                     00400000     ImageMappingDemo.obj
 0000:fffc3000       _volmd                     00400000     ImageMappingDemo.obj
 0000:fffc3000       _volmd                     00400000     ImageMappingDemo.obj
 0000:fffc3000       _volmd                     00400000     ImageMappingDemo.obj
 0000:fffc3000       _volmd                     00400000     ImageMappingDemo.obj
 0000:fffc3000       _volmd                     00400000     ImageMappingDemo.obj
 0000:fffc3000       _volmd                     00400000     ImageMappingDemo.obj
 0000:fffc3000       _volmd                     00400000     ImageMappingDemo.obj
 0000:fffc3000       _volmd                     00400000     ImageMappingDemo.obj
 0000:fffc3000       _volmd                     00400000     ImageMappingDemo.obj
 0000:fffc3000       _volmd                     00400000     ImageMappingDemo.obj
 0000:fffc3000       _volmd                     00400000     ImageMappingDemo.obj
 0000:fffc3000       _volmd                     00400000     ImageMappingDemo.obj
 0000:fffc3000       _volmd                     00400000     ImageMappingDemo.obj
 0000:fffc3000       _volmd                     00400000     ImageMappingDemo.obj
 0000:fffc3000       _volmd                     00400000     ImageMappingDemo.obj
 0000:fffc3000       _volmd                     00400000     ImageMappingDemo.obj
 0002:fffd5000       __catchsym$??$_Resize_reallocate@U_Value_init_tag@std@@@?$vector@PAVDisplayableObject@@V?$allocator@PAVDisplayableObject@@@std@@@std@@AAEXIABU_Value_init_tag@1@@Z$2 00400000     MazeDemoMain.obj
 0002:fffd5000       __ehfuncinfo$??$_Deallocate@$07$0A@@std@@YAXPAXI@Z 00400000     MazeDemoMain.obj
 0001:fffff000       __ehhandler$??$_Deallocate@$07$0A@@std@@YAXPAXI@Z 00400000 f   MazeDemoMain.obj
 0001:fffff000       __ehhandler$??$_Resize_reallocate@U_Value_init_tag@std@@@?$vector@PAVDisplayableObject@@V?$allocator@PAVDisplayableObject@@@std@@@std@@AAEXIABU_Value_init_tag@1@@Z 00400000 f   MazeDemoMain.obj
 0001:fffff000       __unwindfunclet$??$_Uninitialized_move@PAPAVDisplayableObject@@V?$allocator@PAVDisplayableObject@@@std@@@std@@YAPAPAVDisplayableObject@@QAPAV1@0PAPAV1@AAV?$allocator@PAVDisplayableObject@@@0@@Z$0 00400000 f   MazeDemoMain.obj
 0001:fffff000       __unwindfunclet$??$_Uninitialized_value_construct_n@V?$allocator@PAVDisplayableObject@@@std@@@std@@YAPAPAVDisplayableObject@@PAPAV1@IAAV?$allocator@PAVDisplayableObject@@@0@@Z$0 00400000 f   MazeDemoMain.obj
 0001:fffff000       __unwindfunclet$?_Orphan_range_locked@?$vector@PAVDisplayableObject@@V?$allocator@PAVDisplayableObject@@@std@@@std@@ABEXPAPAVDisplayableObject@@0@Z$0 00400000 f   MazeDemoMain.obj
 0001:fffff000       __unwindfunclet$?setAllObjectsVisible@DisplayableObjectContainer@@QBEX_N@Z$0 00400000 f   MazeDemoMain.obj
 0002:fffd5000       __unwindtable$??$_Uninitialized_move@PAPAVDisplayableObject@@V?$allocator@PAVDisplayableObject@@@std@@@std@@YAPAPAVDisplayableObject@@QAPAV1@0PAPAV1@AAV?$allocator@PAVDisplayableObject@@@0@@Z 00400000     MazeDemoMain.obj
 0002:fffd5000       __unwindtable$??$_Uninitialized_value_construct_n@V?$allocator@PAVDisplayableObject@@@std@@@std@@YAPAPAVDisplayableObject@@PAPAV1@IAAV?$allocator@PAVDisplayableObject@@@0@@Z 00400000     MazeDemoMain.obj
 0002:fffd5000       __unwindtable$?_Orphan_range_locked@?$vector@PAVDisplayableObject@@V?$allocator@PAVDisplayableObject@@@std@@@std@@ABEXPAPAVDisplayableObject@@0@Z 00400000     MazeDemoMain.obj
 0002:fffd5000       __unwindtable$?setAllObjectsVisible@DisplayableObjectContainer@@QBEX_N@Z 00400000     MazeDemoMain.obj
 0000:fffc3000       _volmd                     00400000     MazeDemoMain.obj
 0000:fffc3000       _volmd                     00400000     MazeDemoMain.obj
 0000:fffc3000       _volmd                     00400000     MazeDemoMain.obj
 0000:fffc3000       _volmd                     00400000     MazeDemoMain.obj
 0000:fffc3000       _volmd                     00400000     MazeDemoMain.obj
 0000:fffc3000       _volmd                     00400000     MazeDemoMain.obj
 0000:fffc3000       _volmd                     00400000     MazeDemoMain.obj
 0000:fffc3000       _volmd                     00400000     MazeDemoMain.obj
 0000:fffc3000       _volmd                     00400000     MazeDemoObject.obj
 0002:fffd5000       __ehfuncinfo$??$_Deallocate@$07$0A@@std@@YAXPAXI@Z 00400000     MyTextBar.obj
 0001:fffff000       __ehhandler$??$_Deallocate@$07$0A@@std@@YAXPAXI@Z 00400000 f   MyTextBar.obj
 0000:fffc3000       _volmd                     00400000     MyTextBar.obj
 0000:fffc3000       _volmd                     00400000     MyTextBar.obj
 0002:fffd5000       __catchsym$??$?6U?$char_traits@D@std@@@std@@YAAAV?$basic_ostream@DU?$char_traits@D@std@@@0@AAV10@PBD@Z$3 00400000     Psyjl16Engine.obj
 0002:fffd5000       __catchsym$??$_Insert_string@DU?$char_traits@D@std@@I@std@@YAAAV?$basic_ostream@DU?$char_traits@D@std@@@0@AAV10@QBDI@Z$3 00400000     Psyjl16Engine.obj
 0002:fffd5000       __catchsym$??$_Resize_reallocate@U_Value_init_tag@std@@@?$vector@PAVDisplayableObject@@V?$allocator@PAVDisplayableObject@@@std@@@std@@AAEXIABU_Value_init_tag@1@@Z$2 00400000     Psyjl16Engine.obj
 0002:fffd5000       __ehfuncinfo$??$_Deallocate@$07$0A@@std@@YAXPAXI@Z 00400000     Psyjl16Engine.obj
 0002:fffd5000       __ehfuncinfo$??$_Deallocate_plain@V?$allocator@U_Container_proxy@std@@@std@@@std@@YAXAAV?$allocator@U_Container_proxy@std@@@0@QAU_Container_proxy@0@@Z 00400000     Psyjl16Engine.obj
 0002:fffd5000       __ehfuncinfo$??$_Freenode0@V?$allocator@U?$_Tree_node@U?$pair@$$CBV?$basic_string@DU?$char_traits@D@std@@V?$allocator@D@2@@std@@V?$weak_ptr@VRawImageData@@@2@@std@@PAX@std@@@std@@@?$_Tree_node@U?$pair@$$CBV?$basic_string@DU?$char_traits@D@std@@V?$allocator@D@2@@std@@V?$weak_ptr@VRawImageData@@@2@@std@@PAX@std@@SAXAAV?$allocator@U?$_Tree_node@U?$pair@$$CBV?$basic_string@DU?$char_traits@D@std@@V?$allocator@D@2@@std@@V?$weak_ptr@VRawImageData@@@2@@std@@PAX@std@@@1@PAU01@@Z 00400000     Psyjl16Engine.obj
 0002:fffd5000       __ehfuncinfo$??$_Freenode@V?$allocator@U?$_Tree_node@U?$pair@$$CBV?$basic_string@DU?$char_traits@D@std@@V?$allocator@D@2@@std@@V?$weak_ptr@VRawImageData@@@2@@std@@PAX@std@@@std@@@?$_Tree_node@U?$pair@$$CBV?$basic_string@DU?$char_traits@D@std@@V?$allocator@D@2@@std@@V?$weak_ptr@VRawImageData@@@2@@std@@PAX@std@@SAXAAV?$allocator@U?$_Tree_node@U?$pair@$$CBV?$basic_string@DU?$char_traits@D@std@@V?$allocator@D@2@@std@@V?$weak_ptr@VRawImageData@@@2@@std@@PAX@std@@@1@PAU01@@Z 00400000     Psyjl16Engine.obj
 0002:fffd5000       __ehfuncinfo$??0?$basic_string@DU?$char_traits@D@std@@V?$allocator@D@2@@std@@QAE@$$QAV01@@Z 00400000     Psyjl16Engine.obj
 0002:fffd5000       __ehfuncinfo$??1?$_Alloc_construct_ptr@V?$allocator@U?$_Tree_node@U?$pair@$$CBV?$basic_string@DU?$char_traits@D@std@@V?$allocator@D@2@@std@@V?$shared_ptr@VRawImageData@@@2@@std@@PAX@std@@@std@@@std@@QAE@XZ 00400000     Psyjl16Engine.obj
 0002:fffd5000       __ehfuncinfo$??1?$_Alloc_construct_ptr@V?$allocator@U?$_Tree_node@U?$pair@$$CBV?$basic_string@DU?$char_traits@D@std@@V?$allocator@D@2@@std@@V?$weak_ptr@VRawImageData@@@2@@std@@PAX@std@@@std@@@std@@QAE@XZ 00400000     Psyjl16Engine.obj
 0002:fffd5000       __ehfuncinfo$??1?$_Tree_temp_node@V?$allocator@U?$_Tree_node@U?$pair@$$CBV?$basic_string@DU?$char_traits@D@std@@V?$allocator@D@2@@std@@V?$shared_ptr@VRawImageData@@@2@@std@@PAX@std@@@std@@@std@@QAE@XZ 00400000     Psyjl16Engine.obj
 0002:fffd5000       __ehfuncinfo$??1?$_Tree_temp_node@V?$allocator@U?$_Tree_node@U?$pair@$$CBV?$basic_string@DU?$char_traits@D@std@@V?$allocator@D@2@@std@@V?$weak_ptr@VRawImageData@@@2@@std@@PAX@std@@@std@@@std@@QAE@XZ 00400000     Psyjl16Engine.obj
 0002:fffd5000       __ehfuncinfo$??1RawImageData@@QAE@XZ 00400000     Psyjl16Engine.obj
 0002:fffd5000       __ehfuncinfo$??1_Sentry_base@?$basic_ostream@DU?$char_traits@D@std@@@std@@QAE@XZ 00400000     Psyjl16Engine.obj
 0002:fffd5000       __ehfuncinfo$??1sentry@?$basic_ostream@DU?$char_traits@D@std@@@std@@QAE@XZ 00400000     Psyjl16Engine.obj
 0002:fffd5000       __ehfuncinfo$?_Take_contents@?$basic_string@DU?$char_traits@D@std@@V?$allocator@D@2@@std@@AAEXAAV12@@Z 00400000     Psyjl16Engine.obj
 0002:fffd5000       __ehfuncinfo$?_Tidy_deallocate@?$basic_string@DU?$char_traits@D@std@@V?$allocator@D@2@@std@@AAEXXZ 00400000     Psyjl16Engine.obj
 0002:fffd5000       __ehfuncinfo$?getImagePtrbyURL@ImageManager@@QAE?AV?$shared_ptr@VRawImageData@@@std@@V?$basic_string@DU?$char_traits@D@std@@V?$allocator@D@2@@3@_N1@Z 00400000     Psyjl16Engine.obj
 0001:fffff000       __ehhandler$??$_Deallocate@$07$0A@@std@@YAXPAXI@Z 00400000 f   Psyjl16Engine.obj
 0001:fffff000       __ehhandler$??$_Deallocate_plain@V?$allocator@U_Container_proxy@std@@@std@@@std@@YAXAAV?$allocator@U_Container_proxy@std@@@0@QAU_Container_proxy@0@@Z 00400000 f   Psyjl16Engine.obj
 0001:fffff000       __ehhandler$??$_Freenode0@V?$allocator@U?$_Tree_node@U?$pair@$$CBV?$basic_string@DU?$char_traits@D@std@@V?$allocator@D@2@@std@@V?$weak_ptr@VRawImageData@@@2@@std@@PAX@std@@@std@@@?$_Tree_node@U?$pair@$$CBV?$basic_string@DU?$char_traits@D@std@@V?$allocator@D@2@@std@@V?$weak_ptr@VRawImageData@@@2@@std@@PAX@std@@SAXAAV?$allocator@U?$_Tree_node@U?$pair@$$CBV?$basic_string@DU?$char_traits@D@std@@V?$allocator@D@2@@std@@V?$weak_ptr@VRawImageData@@@2@@std@@PAX@std@@@1@PAU01@@Z 00400000 f   Psyjl16Engine.obj
 0001:fffff000       __ehhandler$??$_Freenode@V?$allocator@U?$_Tree_node@U?$pair@$$CBV?$basic_string@DU?$char_traits@D@std@@V?$allocator@D@2@@std@@V?$weak_ptr@VRawImageData@@@2@@std@@PAX@std@@@std@@@?$_Tree_node@U?$pair@$$CBV?$basic_string@DU?$char_traits@D@std@@V?$allocator@D@2@@std@@V?$weak_ptr@VRawImageData@@@2@@std@@PAX@std@@SAXAAV?$allocator@U?$_Tree_node@U?$pair@$$CBV?$basic_string@DU?$char_traits@D@std@@V?$allocator@D@2@@std@@V?$weak_ptr@VRawImageData@@@2@@std@@PAX@std@@@1@PAU01@@Z 00400000 f   Psyjl16Engine.obj
 0001:fffff000       __ehhandler$??$_Resize_reallocate@U_Value_init_tag@std@@@?$vector@PAVDisplayableObject@@V?$allocator@PAVDisplayableObject@@@std@@@std@@AAEXIABU_Value_init_tag@1@@Z 00400000 f   Psyjl16Engine.obj
 0001:fffff000       __ehhandler$??0?$basic_string@DU?$char_traits@D@std@@V?$allocator@D@2@@std@@QAE@$$QAV01@@Z 00400000 f   Psyjl16Engine.obj
 0001:fffff000       __ehhandler$??1?$_Alloc_construct_ptr@V?$allocator@U?$_Tree_node@U?$pair@$$CBV?$basic_string@DU?$char_traits@D@std@@V?$allocator@D@2@@std@@V?$shared_ptr@VRawImageData@@@2@@std@@PAX@std@@@std@@@std@@QAE@XZ 00400000 f   Psyjl16Engine.obj
 0001:fffff000       __ehhandler$??1?$_Alloc_construct_ptr@V?$allocator@U?$_Tree_node@U?$pair@$$CBV?$basic_string@DU?$char_traits@D@std@@V?$allocator@D@2@@std@@V?$weak_ptr@VRawImageData@@@2@@std@@PAX@std@@@std@@@std@@QAE@XZ 00400000 f   Psyjl16Engine.obj
 0001:fffff000       __ehhandler$??1?$_Tree_temp_node@V?$allocator@U?$_Tree_node@U?$pair@$$CBV?$basic_string@DU?$char_traits@D@std@@V?$allocator@D@2@@std@@V?$shared_ptr@VRawImageData@@@2@@std@@PAX@std@@@std@@@std@@QAE@XZ 00400000 f   Psyjl16Engine.obj
 0001:fffff000       __ehhandler$??1?$_Tree_temp_node@V?$allocator@U?$_Tree_node@U?$pair@$$CBV?$basic_string@DU?$char_traits@D@std@@V?$allocator@D@2@@std@@V?$weak_ptr@VRawImageData@@@2@@std@@PAX@std@@@std@@@std@@QAE@XZ 00400000 f   Psyjl16Engine.obj
 0001:fffff000       __ehhandler$??1RawImageData@@QAE@XZ 00400000 f   Psyjl16Engine.obj
 0001:fffff000       __ehhandler$??1_Sentry_base@?$basic_ostream@DU?$char_traits@D@std@@@std@@QAE@XZ 00400000 f   Psyjl16Engine.obj
 0001:fffff000       __ehhandler$??1sentry@?$basic_ostream@DU?$char_traits@D@std@@@std@@QAE@XZ 00400000 f   Psyjl16Engine.obj
 0001:fffff000       __ehhandler$?_Take_contents@?$basic_string@DU?$char_traits@D@std@@V?$allocator@D@2@@std@@AAEXAAV12@@Z 00400000 f   Psyjl16Engine.obj
 0001:fffff000       __ehhandler$?_Tidy_deallocate@?$basic_string@DU?$char_traits@D@std@@V?$allocator@D@2@@std@@AAEXXZ 00400000 f   Psyjl16Engine.obj
 0001:fffff000       __unwindfunclet$??$?0U?$pair@V?$basic_string@DU?$char_traits@D@std@@V?$allocator@D@2@@std@@V?$shared_ptr@VRawImageData@@@2@@std@@@?$_Tree_temp_node@V?$allocator@U?$_Tree_node@U?$pair@$$CBV?$basic_string@DU?$char_traits@D@std@@V?$allocator@D@2@@std@@V?$shared_ptr@VRawImageData@@@2@@std@@PAX@std@@@std@@@std@@QAE@AAV?$allocator@U?$_Tree_node@U?$pair@$$CBV?$basic_string@DU?$char_traits@D@std@@V?$allocator@D@2@@std@@V?$shared_ptr@VRawImageData@@@2@@std@@PAX@std@@@1@PAU?$_Tree_node@U?$pair@$$CBV?$basic_string@DU?$char_traits@D@std@@V?$allocator@D@2@@std@@V?$shared_ptr@VRawImageData@@@2@@std@@PAX@1@$$QAU?$pair@V?$basic_string@DU?$char_traits@D@std@@V?$allocator@D@2@@std@@V?$shared_ptr@VRawImageData@@@2@@1@@Z$0 00400000 f   Psyjl16Engine.obj
 0001:fffff000       __unwindfunclet$??$?0U?$pair@V?$basic_string@DU?$char_traits@D@std@@V?$allocator@D@2@@std@@V?$weak_ptr@VRawImageData@@@2@@std@@@?$_Tree_temp_node@V?$allocator@U?$_Tree_node@U?$pair@$$CBV?$basic_string@DU?$char_traits@D@std@@V?$allocator@D@2@@std@@V?$weak_ptr@VRawImageData@@@2@@std@@PAX@std@@@std@@@std@@QAE@AAV?$allocator@U?$_Tree_node@U?$pair@$$CBV?$basic_string@DU?$char_traits@D@std@@V?$allocator@D@2@@std@@V?$weak_ptr@VRawImageData@@@2@@std@@PAX@std@@@1@PAU?$_Tree_node@U?$pair@$$CBV?$basic_string@DU?$char_traits@D@std@@V?$allocator@D@2@@std@@V?$weak_ptr@VRawImageData@@@2@@std@@PAX@1@$$QAU?$pair@V?$basic_string@DU?$char_traits@D@std@@V?$allocator@D@2@@std@@V?$weak_ptr@VRawImageData@@@2@@1@@Z$0 00400000 f   Psyjl16Engine.obj
 0001:fffff000       __unwindfunclet$??$?0VRawImageData@@$0A@@?$shared_ptr@VRawImageData@@@std@@QAE@PAVRawImageData@@@Z$0 00400000 f   Psyjl16Engine.obj
 0001:fffff000       __unwindfunclet$??$?6U?$char_traits@D@std@@@std@@YAAAV?$basic_ostream@DU?$char_traits@D@std@@@0@AAV10@PBD@Z$2 00400000 f   Psyjl16Engine.obj
 0001:fffff000       __unwindfunclet$??$_Insert_string@DU?$char_traits@D@std@@I@std@@YAAAV?$basic_ostream@DU?$char_traits@D@std@@@0@AAV10@QBDI@Z$2 00400000 f   Psyjl16Engine.obj
 0001:fffff000       __unwindfunclet$??$_Uninitialized_move@PAPAVDisplayableObject@@V?$allocator@PAVDisplayableObject@@@std@@@std@@YAPAPAVDisplayableObject@@QAPAV1@0PAPAV1@AAV?$allocator@PAVDisplayableObject@@@0@@Z$0 00400000 f   Psyjl16Engine.obj
 0001:fffff000       __unwindfunclet$??$_Uninitialized_value_construct_n@V?$allocator@PAVDisplayableObject@@@std@@@std@@YAPAPAVDisplayableObject@@PAPAV1@IAAV?$allocator@PAVDisplayableObject@@@0@@Z$0 00400000 f   Psyjl16Engine.obj
 0001:fffff000       __unwindfunclet$??0?$_Tree_temp_node_alloc@V?$allocator@U?$_Tree_node@U?$pair@$$CBV?$basic_string@DU?$char_traits@D@std@@V?$allocator@D@2@@std@@V?$shared_ptr@VRawImageData@@@2@@std@@PAX@std@@@std@@@std@@QAE@AAV?$allocator@U?$_Tree_node@U?$pair@$$CBV?$basic_string@DU?$char_traits@D@std@@V?$allocator@D@2@@std@@V?$shared_ptr@VRawImageData@@@2@@std@@PAX@std@@@1@@Z$0 00400000 f   Psyjl16Engine.obj
 0001:fffff000       __unwindfunclet$??0?$_Tree_temp_node_alloc@V?$allocator@U?$_Tree_node@U?$pair@$$CBV?$basic_string@DU?$char_traits@D@std@@V?$allocator@D@2@@std@@V?$weak_ptr@VRawImageData@@@2@@std@@PAX@std@@@std@@@std@@QAE@AAV?$allocator@U?$_Tree_node@U?$pair@$$CBV?$basic_string@DU?$char_traits@D@std@@V?$allocator@D@2@@std@@V?$weak_ptr@VRawImageData@@@2@@std@@PAX@std@@@1@@Z$0 00400000 f   Psyjl16Engine.obj
 0001:fffff000       __unwindfunclet$??0?$basic_string@DU?$char_traits@D@std@@V?$allocator@D@2@@std@@QAE@ABV01@@Z$0 00400000 f   Psyjl16Engine.obj
 0001:fffff000       __unwindfunclet$??0?$basic_string@DU?$char_traits@D@std@@V?$allocator@D@2@@std@@QAE@QBD@Z$0 00400000 f   Psyjl16Engine.obj
 0001:fffff000       __unwindfunclet$??0ImageManager@@QAE@XZ$0 00400000 f   Psyjl16Engine.obj
 0001:fffff000       __unwindfunclet$??0RawImageData@@QAE@V?$basic_string@DU?$char_traits@D@std@@V?$allocator@D@2@@std@@@Z$0 00400000 f   Psyjl16Engine.obj
 0001:fffff000       __unwindfunclet$??0sentry@?$basic_ostream@DU?$char_traits@D@std@@@std@@QAE@AAV12@@Z$0 00400000 f   Psyjl16Engine.obj
 0001:fffff000       __unwindfunclet$?_Alloc_sentinel_and_proxy@?$_Tree@V?$_Tmap_traits@V?$basic_string@DU?$char_traits@D@std@@V?$allocator@D@2@@std@@V?$shared_ptr@VRawImageData@@@2@U?$less@V?$basic_string@DU?$char_traits@D@std@@V?$allocator@D@2@@std@@@2@V?$allocator@U?$pair@$$CBV?$basic_string@DU?$char_traits@D@std@@V?$allocator@D@2@@std@@V?$shared_ptr@VRawImageData@@@2@@std@@@2@$0A@@std@@@std@@IAEXXZ$0 00400000 f   Psyjl16Engine.obj
 0001:fffff000       __unwindfunclet$?_Alloc_sentinel_and_proxy@?$_Tree@V?$_Tmap_traits@V?$basic_string@DU?$char_traits@D@std@@V?$allocator@D@2@@std@@V?$weak_ptr@VRawImageData@@@2@U?$less@V?$basic_string@DU?$char_traits@D@std@@V?$allocator@D@2@@std@@@2@V?$allocator@U?$pair@$$CBV?$basic_string@DU?$char_traits@D@std@@V?$allocator@D@2@@std@@V?$weak_ptr@VRawImageData@@@2@@std@@@2@$0A@@std@@@std@@IAEXXZ$0 00400000 f   Psyjl16Engine.obj
 0001:fffff000       __unwindfunclet$?_Orphan_range_locked@?$vector@PAVDisplayableObject@@V?$allocator@PAVDisplayableObject@@@std@@@std@@ABEXPAPAVDisplayableObject@@0@Z$0 00400000 f   Psyjl16Engine.obj
 0001:fffff000       __unwindfunclet$?get@ImageManager@@SAPAV1@XZ$0 00400000 f   Psyjl16Engine.obj
 0001:fffff000       __unwindfunclet$?getImagePtrbyURL@ImageManager@@QAE?AV?$shared_ptr@VRawImageData@@@std@@V?$basic_string@DU?$char_traits@D@std@@V?$allocator@D@2@@3@_N1@Z$0 00400000 f   Psyjl16Engine.obj
 0001:fffff000       __unwindfunclet$?getImagebyURL@ImageManager@@QAE?AVSimpleImage@@V?$basic_string@DU?$char_traits@D@std@@V?$allocator@D@2@@std@@_N1@Z$0 00400000 f   Psyjl16Engine.obj
 0001:fffff000       __unwindfunclet$?loadAsNew@ImageManager@@QAE?AV?$shared_ptr@VRawImageData@@@std@@V?$basic_string@DU?$char_traits@D@std@@V?$allocator@D@2@@3@@Z$0 00400000 f   Psyjl16Engine.obj
 0001:fffff000       __unwindfunclet$?loadImage@RawImageData@@QAE_NV?$basic_string@DU?$char_traits@D@std@@V?$allocator@D@2@@std@@HHHHH_N@Z$0 00400000 f   Psyjl16Engine.obj
 0002:fffd5000       __unwindtable$??$?0U?$pair@V?$basic_string@DU?$char_traits@D@std@@V?$allocator@D@2@@std@@V?$shared_ptr@VRawImageData@@@2@@std@@@?$_Tree_temp_node@V?$allocator@U?$_Tree_node@U?$pair@$$CBV?$basic_string@DU?$char_traits@D@std@@V?$allocator@D@2@@std@@V?$shared_ptr@VRawImageData@@@2@@std@@PAX@std@@@std@@@std@@QAE@AAV?$allocator@U?$_Tree_node@U?$pair@$$CBV?$basic_string@DU?$char_traits@D@std@@V?$allocator@D@2@@std@@V?$shared_ptr@VRawImageData@@@2@@std@@PAX@std@@@1@PAU?$_Tree_node@U?$pair@$$CBV?$basic_string@DU?$char_traits@D@std@@V?$allocator@D@2@@std@@V?$shared_ptr@VRawImageData@@@2@@std@@PAX@1@$$QAU?$pair@V?$basic_string@DU?$char_traits@D@std@@V?$allocator@D@2@@std@@V?$shared_ptr@VRawImageData@@@2@@1@@Z 00400000     Psyjl16Engine.obj
 0002:fffd5000       __unwindtable$??$?0U?$pair@V?$basic_string@DU?$char_traits@D@std@@V?$allocator@D@2@@std@@V?$weak_ptr@VRawImageData@@@2@@std@@@?$_Tree_temp_node@V?$allocator@U?$_Tree_node@U?$pair@$$CBV?$basic_string@DU?$char_traits@D@std@@V?$allocator@D@2@@std@@V?$weak_ptr@VRawImageData@@@2@@std@@PAX@std@@@std@@@std@@QAE@AAV?$allocator@U?$_Tree_node@U?$pair@$$CBV?$basic_string@DU?$char_traits@D@std@@V?$allocator@D@2@@std@@V?$weak_ptr@VRawImageData@@@2@@std@@PAX@std@@@1@PAU?$_Tree_node@U?$pair@$$CBV?$basic_string@DU?$char_traits@D@std@@V?$allocator@D@2@@std@@V?$weak_ptr@VRawImageData@@@2@@std@@PAX@1@$$QAU?$pair@V?$basic_string@DU?$char_traits@D@std@@V?$allocator@D@2@@std@@V?$weak_ptr@VRawImageData@@@2@@1@@Z 00400000     Psyjl16Engine.obj
 0002:fffd5000       __unwindtable$??$?0VRawImageData@@$0A@@?$shared_ptr@VRawImageData@@@std@@QAE@PAVRawImageData@@@Z 00400000     Psyjl16Engine.obj
 0002:fffd5000       __unwindtable$??$_Uninitialized_move@PAPAVDisplayableObject@@V?$allocator@PAVDisplayableObject@@@std@@@std@@YAPAPAVDisplayableObject@@QAPAV1@0PAPAV1@AAV?$allocator@PAVDisplayableObject@@@0@@Z 00400000     Psyjl16Engine.obj
 0002:fffd5000       __unwindtable$??$_Uninitialized_value_construct_n@V?$allocator@PAVDisplayableObject@@@std@@@std@@YAPAPAVDisplayableObject@@PAPAV1@IAAV?$allocator@PAVDisplayableObject@@@0@@Z 00400000     Psyjl16Engine.obj
 0002:fffd5000       __unwindtable$??0?$_Tree_temp_node_alloc@V?$allocator@U?$_Tree_node@U?$pair@$$CBV?$basic_string@DU?$char_traits@D@std@@V?$allocator@D@2@@std@@V?$shared_ptr@VRawImageData@@@2@@std@@PAX@std@@@std@@@std@@QAE@AAV?$allocator@U?$_Tree_node@U?$pair@$$CBV?$basic_string@DU?$char_traits@D@std@@V?$allocator@D@2@@std@@V?$shared_ptr@VRawImageData@@@2@@std@@PAX@std@@@1@@Z 00400000     Psyjl16Engine.obj
 0002:fffd5000       __unwindtable$??0?$_Tree_temp_node_alloc@V?$allocator@U?$_Tree_node@U?$pair@$$CBV?$basic_string@DU?$char_traits@D@std@@V?$allocator@D@2@@std@@V?$weak_ptr@VRawImageData@@@2@@std@@PAX@std@@@std@@@std@@QAE@AAV?$allocator@U?$_Tree_node@U?$pair@$$CBV?$basic_string@DU?$char_traits@D@std@@V?$allocator@D@2@@std@@V?$weak_ptr@VRawImageData@@@2@@std@@PAX@std@@@1@@Z 00400000     Psyjl16Engine.obj
 0002:fffd5000       __unwindtable$??0?$basic_string@DU?$char_traits@D@std@@V?$allocator@D@2@@std@@QAE@ABV01@@Z 00400000     Psyjl16Engine.obj
 0002:fffd5000       __unwindtable$??0?$basic_string@DU?$char_traits@D@std@@V?$allocator@D@2@@std@@QAE@QBD@Z 00400000     Psyjl16Engine.obj
 0002:fffd5000       __unwindtable$??0ImageManager@@QAE@XZ 00400000     Psyjl16Engine.obj
 0002:fffd5000       __unwindtable$??0RawImageData@@QAE@V?$basic_string@DU?$char_traits@D@std@@V?$allocator@D@2@@std@@@Z 00400000     Psyjl16Engine.obj
 0002:fffd5000       __unwindtable$??0sentry@?$basic_ostream@DU?$char_traits@D@std@@@std@@QAE@AAV12@@Z 00400000     Psyjl16Engine.obj
 0002:fffd5000       __unwindtable$?_Alloc_sentinel_and_proxy@?$_Tree@V?$_Tmap_traits@V?$basic_string@DU?$char_traits@D@std@@V?$allocator@D@2@@std@@V?$shared_ptr@VRawImageData@@@2@U?$less@V?$basic_string@DU?$char_traits@D@std@@V?$allocator@D@2@@std@@@2@V?$allocator@U?$pair@$$CBV?$basic_string@DU?$char_traits@D@std@@V?$allocator@D@2@@std@@V?$shared_ptr@VRawImageData@@@2@@std@@@2@$0A@@std@@@std@@IAEXXZ 00400000     Psyjl16Engine.obj
 0002:fffd5000       __unwindtable$?_Alloc_sentinel_and_proxy@?$_Tree@V?$_Tmap_traits@V?$basic_string@DU?$char_traits@D@std@@V?$allocator@D@2@@std@@V?$weak_ptr@VRawImageData@@@2@U?$less@V?$basic_string@DU?$char_traits@D@std@@V?$allocator@D@2@@std@@@2@V?$allocator@U?$pair@$$CBV?$basic_string@DU?$char_traits@D@std@@V?$allocator@D@2@@std@@V?$weak_ptr@VRawImageData@@@2@@std@@@2@$0A@@std@@@std@@IAEXXZ 00400000     Psyjl16Engine.obj
 0002:fffd5000       __unwindtable$?_Orphan_range_locked@?$vector@PAVDisplayableObject@@V?$allocator@PAVDisplayableObject@@@std@@@std@@ABEXPAPAVDisplayableObject@@0@Z 00400000     Psyjl16Engine.obj
 0002:fffd5000       __unwindtable$?get@ImageManager@@SAPAV1@XZ 00400000     Psyjl16Engine.obj
 0002:fffd5000       __unwindtable$?getImagebyURL@ImageManager@@QAE?AVSimpleImage@@V?$basic_string@DU?$char_traits@D@std@@V?$allocator@D@2@@std@@_N1@Z 00400000     Psyjl16Engine.obj
 0002:fffd5000       __unwindtable$?loadAsNew@ImageManager@@QAE?AV?$shared_ptr@VRawImageData@@@std@@V?$basic_string@DU?$char_traits@D@std@@V?$allocator@D@2@@3@@Z 00400000     Psyjl16Engine.obj
 0002:fffd5000       __unwindtable$?loadImage@RawImageData@@QAE_NV?$basic_string@DU?$char_traits@D@std@@V?$allocator@D@2@@std@@HHHHH_N@Z 00400000     Psyjl16Engine.obj
 0000:fffc3000       _volmd                     00400000     Psyjl16Engine.obj
 0000:fffc3000       _volmd                     00400000     Psyjl16Engine.obj
 0000:fffc3000       _volmd                     00400000     Psyjl16Engine.obj
 0000:fffc3000       _volmd                     00400000     Psyjl16Engine.obj
 0000:fffc3000       _volmd                     00400000     Psyjl16Engine.obj
 0000:fffc3000       _volmd                     00400000     Psyjl16Engine.obj
 0000:fffc3000       _volmd                     00400000     Psyjl16Engine.obj
 0000:fffc3000       _volmd                     00400000     Psyjl16Engine.obj
 0000:fffc3000       _volmd                     00400000     Psyjl16Engine.obj
 0000:fffc3000       _volmd                     00400000     Psyjl16Engine.obj
 0000:fffc3000       _volmd                     00400000     Psyjl16Engine.obj
 0000:fffc3000       _volmd                     00400000     Psyjl16Engine.obj
 0000:fffc3000       _volmd                     00400000     Psyjl16Engine.obj
 0000:fffc3000       _volmd                     00400000     Psyjl16Engine.obj
 0000:fffc3000       _volmd                     00400000     Psyjl16Engine.obj
 0000:fffc3000       _volmd                     00400000     Psyjl16Engine.obj
 0000:fffc3000       _volmd                     00400000     Psyjl16Engine.obj
 0000:fffc3000       _volmd                     00400000     Psyjl16Engine.obj
 0000:fffc3000       _volmd                     00400000     Psyjl16Engine.obj
 0000:fffc3000       _volmd                     00400000     Psyjl16Engine.obj
 0000:fffc3000       _volmd                     00400000     Psyjl16Engine.obj
 0000:fffc3000       _volmd                     00400000     Psyjl16Engine.obj
 0000:fffc3000       _volmd                     00400000     Psyjl16Engine.obj
 0000:fffc3000       _volmd                     00400000     Psyjl16Engine.obj
 0000:fffc3000       _volmd                     00400000     Psyjl16Engine.obj
 0000:fffc3000       _volmd                     00400000     Psyjl16Engine.obj
 0000:fffc3000       _volmd                     00400000     Psyjl16Engine.obj
 0000:fffc3000       _volmd                     00400000     Psyjl16Engine.obj
 0000:fffc3000       _volmd                     00400000     Psyjl16Engine.obj
 0000:fffc3000       _volmd                     00400000     Psyjl16Engine.obj
 0000:fffc3000       _volmd                     00400000     Psyjl16Engine.obj
 0000:fffc3000       _volmd                     00400000     Psyjl16Engine.obj
 0000:fffc3000       _volmd                     00400000     Psyjl16Engine.obj
 0000:fffc3000       _volmd                     00400000     Psyjl16Engine.obj
 0000:fffc3000       _volmd                     00400000     Psyjl16Engine.obj
 0000:fffc3000       _volmd                     00400000     Psyjl16Engine.obj
 0000:fffc3000       _volmd                     00400000     Psyjl16Engine.obj
 0000:fffc3000       _volmd                     00400000     Psyjl16Engine.obj
 0000:fffc3000       _volmd                     00400000     Psyjl16Engine.obj
 0000:fffc3000       _volmd                     00400000     Psyjl16Engine.obj
 0000:fffc3000       _volmd                     00400000     Psyjl16Engine.obj
 0000:fffc3000       _volmd                     00400000     Psyjl16Engine.obj
 0000:fffc3000       _volmd                     00400000     Psyjl16Engine.obj
 0000:fffc3000       _volmd                     00400000     Psyjl16Engine.obj
 0000:fffc3000       _volmd                     00400000     Psyjl16Engine.obj
 0000:fffc3000       _volmd                     00400000     Psyjl16Engine.obj
 0000:fffc3000       _volmd                     00400000     Psyjl16TileManager.obj
 0002:fffd5000       __catchsym$??$?6U?$char_traits@D@std@@@std@@YAAAV?$basic_ostream@DU?$char_traits@D@std@@@0@AAV10@PBD@Z$3 00400000     SimpleDemo.obj
 0002:fffd5000       __catchsym$??$_Resize_reallocate@U_Value_init_tag@std@@@?$vector@PAVDisplayableObject@@V?$allocator@PAVDisplayableObject@@@std@@@std@@AAEXIABU_Value_init_tag@1@@Z$2 00400000     SimpleDemo.obj
 0002:fffd5000       __ehfuncinfo$??$_Deallocate@$07$0A@@std@@YAXPAXI@Z 00400000     SimpleDemo.obj
 0002:fffd5000       __ehfuncinfo$??1_Sentry_base@?$basic_ostream@DU?$char_traits@D@std@@@std@@QAE@XZ 00400000     SimpleDemo.obj
 0002:fffd5000       __ehfuncinfo$??1sentry@?$basic_ostream@DU?$char_traits@D@std@@@std@@QAE@XZ 00400000     SimpleDemo.obj
 0001:fffff000       __ehhandler$??$_Deallocate@$07$0A@@std@@YAXPAXI@Z 00400000 f   SimpleDemo.obj
 0001:fffff000       __ehhandler$??$_Resize_reallocate@U_Value_init_tag@std@@@?$vector@PAVDisplayableObject@@V?$allocator@PAVDisplayableObject@@@std@@@std@@AAEXIABU_Value_init_tag@1@@Z 00400000 f   SimpleDemo.obj
 0001:fffff000       __ehhandler$??1_Sentry_base@?$basic_ostream@DU?$char_traits@D@std@@@std@@QAE@XZ 00400000 f   SimpleDemo.obj
 0001:fffff000       __ehhandler$??1sentry@?$basic_ostream@DU?$char_traits@D@std@@@std@@QAE@XZ 00400000 f   SimpleDemo.obj
 0001:fffff000       __unwindfunclet$??$?6U?$char_traits@D@std@@@std@@YAAAV?$basic_ostream@DU?$char_traits@D@std@@@0@AAV10@PBD@Z$2 00400000 f   SimpleDemo.obj
 0001:fffff000       __unwindfunclet$??$_Uninitialized_move@PAPAVDisplayableObject@@V?$allocator@PAVDisplayableObject@@@std@@@std@@YAPAPAVDisplayableObject@@QAPAV1@0PAPAV1@AAV?$allocator@PAVDisplayableObject@@@0@@Z$0 00400000 f   SimpleDemo.obj
 0001:fffff000       __unwindfunclet$??$_Uninitialized_value_construct_n@V?$allocator@PAVDisplayableObject@@@std@@@std@@YAPAPAVDisplayableObject@@PAPAV1@IAAV?$allocator@PAVDisplayableObject@@@0@@Z$0 00400000 f   SimpleDemo.obj
 0001:fffff000       __unwindfunclet$??0sentry@?$basic_ostream@DU?$char_traits@D@std@@@std@@QAE@AAV12@@Z$0 00400000 f   SimpleDemo.obj
 0001:fffff000       __unwindfunclet$?_Orphan_range_locked@?$vector@PAVDisplayableObject@@V?$allocator@PAVDisplayableObject@@@std@@@std@@ABEXPAPAVDisplayableObject@@0@Z$0 00400000 f   SimpleDemo.obj
 0002:fffd5000       __unwindtable$??$_Uninitialized_move@PAPAVDisplayableObject@@V?$allocator@PAVDisplayableObject@@@std@@@std@@YAPAPAVDisplayableObject@@QAPAV1@0PAPAV1@AAV?$allocator@PAVDisplayableObject@@@0@@Z 00400000     SimpleDemo.obj
 0002:fffd5000       __unwindtable$??$_Uninitialized_value_construct_n@V?$allocator@PAVDisplayableObject@@@std@@@std@@YAPAPAVDisplayableObject@@PAPAV1@IAAV?$allocator@PAVDisplayableObject@@@0@@Z 00400000     SimpleDemo.obj
 0002:fffd5000       __unwindtable$??0sentry@?$basic_ostream@DU?$char_traits@D@std@@@std@@QAE@AAV12@@Z 00400000     SimpleDemo.obj
 0002:fffd5000       __unwindtable$?_Orphan_range_locked@?$vector@PAVDisplayableObject@@V?$allocator@PAVDisplayableObject@@@std@@@std@@ABEXPAPAVDisplayableObject@@0@Z 00400000     SimpleDemo.obj
 0000:fffc3000       _volmd                     00400000     SimpleDemo.obj
 0000:fffc3000       _volmd                     00400000     SimpleDemo.obj
 0000:fffc3000       _volmd                     00400000     SimpleDemo.obj
 0000:fffc3000       _volmd                     00400000     SimpleDemo.obj
 0000:fffc3000       _volmd                     00400000     SimpleDemo.obj
 0000:fffc3000       _volmd                     00400000     SimpleDemo.obj
 0000:fffc3000       _volmd                     00400000     SimpleDemo.obj
 0000:fffc3000       _volmd                     00400000     SimpleDemo.obj
 0000:fffc3000       _volmd                     00400000     SimpleDemo.obj
 0000:fffc3000       _volmd                     00400000     SimpleDemo.obj
 0000:fffc3000       _volmd                     00400000     SimpleDemo.obj
 0000:fffc3000       _volmd                     00400000     SimpleDemo.obj
 0002:fffd5000       __catchsym$??$?6U?$char_traits@D@std@@@std@@YAAAV?$basic_ostream@DU?$char_traits@D@std@@@0@AAV10@PBD@Z$3 00400000     SimpleImage.obj
 0002:fffd5000       __ehfuncinfo$??1_Sentry_base@?$basic_ostream@DU?$char_traits@D@std@@@std@@QAE@XZ 00400000     SimpleImage.obj
 0002:fffd5000       __ehfuncinfo$??1sentry@?$basic_ostream@DU?$char_traits@D@std@@@std@@QAE@XZ 00400000     SimpleImage.obj
 0001:fffff000       __ehhandler$??1_Sentry_base@?$basic_ostream@DU?$char_traits@D@std@@@std@@QAE@XZ 00400000 f   SimpleImage.obj
 0001:fffff000       __ehhandler$??1sentry@?$basic_ostream@DU?$char_traits@D@std@@@std@@QAE@XZ 00400000 f   SimpleImage.obj
 0001:fffff000       __unwindfunclet$??$?6U?$char_traits@D@std@@@std@@YAAAV?$basic_ostream@DU?$char_traits@D@std@@@0@AAV10@PBD@Z$2 00400000 f   SimpleImage.obj
 0001:fffff000       __unwindfunclet$??0sentry@?$basic_ostream@DU?$char_traits@D@std@@@std@@QAE@AAV12@@Z$0 00400000 f   SimpleImage.obj
 0002:fffd5000       __unwindtable$??0sentry@?$basic_ostream@DU?$char_traits@D@std@@@std@@QAE@AAV12@@Z 00400000     SimpleImage.obj
 0000:fffc3000       _volmd                     00400000     SimpleImage.obj
 0000:fffc3000       _volmd                     00400000     SimpleImage.obj
 0000:fffc3000       _volmd                     00400000     SimpleImage.obj
 0000:fffc3000       _volmd                     00400000     SimpleImage.obj
 0000:fffc3000       _volmd                     00400000     SimpleImage.obj
 0002:fffd5000       __catchsym$??$?6U?$char_traits@D@std@@@std@@YAAAV?$basic_ostream@DU?$char_traits@D@std@@@0@AAV10@PBD@Z$3 00400000     StarfieldDemo.obj
 0002:fffd5000       __ehfuncinfo$??1_Sentry_base@?$basic_ostream@DU?$char_traits@D@std@@@std@@QAE@XZ 00400000     StarfieldDemo.obj
 0002:fffd5000       __ehfuncinfo$??1sentry@?$basic_ostream@DU?$char_traits@D@std@@@std@@QAE@XZ 00400000     StarfieldDemo.obj
 0001:fffff000       __ehhandler$??1_Sentry_base@?$basic_ostream@DU?$char_traits@D@std@@@std@@QAE@XZ 00400000 f   StarfieldDemo.obj
 0001:fffff000       __ehhandler$??1sentry@?$basic_ostream@DU?$char_traits@D@std@@@std@@QAE@XZ 00400000 f   StarfieldDemo.obj
 0001:fffff000       __unwindfunclet$??$?6U?$char_traits@D@std@@@std@@YAAAV?$basic_ostream@DU?$char_traits@D@std@@@0@AAV10@PBD@Z$2 00400000 f   StarfieldDemo.obj
 0001:fffff000       __unwindfunclet$??0sentry@?$basic_ostream@DU?$char_traits@D@std@@@std@@QAE@AAV12@@Z$0 00400000 f   StarfieldDemo.obj
 0002:fffd5000       __unwindtable$??0sentry@?$basic_ostream@DU?$char_traits@D@std@@@std@@QAE@AAV12@@Z 00400000     StarfieldDemo.obj
 0000:fffc3000       _volmd                     00400000     StarfieldDemo.obj
 0000:fffc3000       _volmd                     00400000     StarfieldDemo.obj
 0000:fffc3000       _volmd                     00400000     StarfieldDemo.obj
 0000:fffc3000       _volmd                     00400000     StarfieldDemo.obj
 0000:fffc3000       _volmd                     00400000     StarfieldDemo.obj
 0002:fffd5000       __catchsym$??$?6U?$char_traits@D@std@@@std@@YAAAV?$basic_ostream@DU?$char_traits@D@std@@@0@AAV10@PBD@Z$3 00400000     ZoomingDemo.obj
 0002:fffd5000       __catchsym$??$_Insert_string@DU?$char_traits@D@std@@I@std@@YAAAV?$basic_ostream@DU?$char_traits@D@std@@@0@AAV10@QBDI@Z$3 00400000     ZoomingDemo.obj
 0002:fffd5000       __catchsym$??$_Resize_reallocate@U_Value_init_tag@std@@@?$vector@PAVDisplayableObject@@V?$allocator@PAVDisplayableObject@@@std@@@std@@AAEXIABU_Value_init_tag@1@@Z$2 00400000     ZoomingDemo.obj
 0002:fffd5000       __ehfuncinfo$??$_Deallocate@$07$0A@@std@@YAXPAXI@Z 00400000     ZoomingDemo.obj
 0002:fffd5000       __ehfuncinfo$??$_Deallocate_plain@V?$allocator@U_Container_proxy@std@@@std@@@std@@YAXAAV?$allocator@U_Container_proxy@std@@@0@QAU_Container_proxy@0@@Z 00400000     ZoomingDemo.obj
 0002:fffd5000       __ehfuncinfo$??$_Freenode0@V?$allocator@U?$_Tree_node@U?$pair@$$CBV?$basic_string@DU?$char_traits@D@std@@V?$allocator@D@2@@std@@V?$weak_ptr@VRawImageData@@@2@@std@@PAX@std@@@std@@@?$_Tree_node@U?$pair@$$CBV?$basic_string@DU?$char_traits@D@std@@V?$allocator@D@2@@std@@V?$weak_ptr@VRawImageData@@@2@@std@@PAX@std@@SAXAAV?$allocator@U?$_Tree_node@U?$pair@$$CBV?$basic_string@DU?$char_traits@D@std@@V?$allocator@D@2@@std@@V?$weak_ptr@VRawImageData@@@2@@std@@PAX@std@@@1@PAU01@@Z 00400000     ZoomingDemo.obj
 0002:fffd5000       __ehfuncinfo$??$_Freenode@V?$allocator@U?$_Tree_node@U?$pair@$$CBV?$basic_string@DU?$char_traits@D@std@@V?$allocator@D@2@@std@@V?$weak_ptr@VRawImageData@@@2@@std@@PAX@std@@@std@@@?$_Tree_node@U?$pair@$$CBV?$basic_string@DU?$char_traits@D@std@@V?$allocator@D@2@@std@@V?$weak_ptr@VRawImageData@@@2@@std@@PAX@std@@SAXAAV?$allocator@U?$_Tree_node@U?$pair@$$CBV?$basic_string@DU?$char_traits@D@std@@V?$allocator@D@2@@std@@V?$weak_ptr@VRawImageData@@@2@@std@@PAX@std@@@1@PAU01@@Z 00400000     ZoomingDemo.obj
 0002:fffd5000       __ehfuncinfo$??0?$basic_string@DU?$char_traits@D@std@@V?$allocator@D@2@@std@@QAE@$$QAV01@@Z 00400000     ZoomingDemo.obj
 0002:fffd5000       __ehfuncinfo$??1?$_Alloc_construct_ptr@V?$allocator@U?$_Tree_node@U?$pair@$$CBV?$basic_string@DU?$char_traits@D@std@@V?$allocator@D@2@@std@@V?$shared_ptr@VRawImageData@@@2@@std@@PAX@std@@@std@@@std@@QAE@XZ 00400000     ZoomingDemo.obj
 0002:fffd5000       __ehfuncinfo$??1?$_Alloc_construct_ptr@V?$allocator@U?$_Tree_node@U?$pair@$$CBV?$basic_string@DU?$char_traits@D@std@@V?$allocator@D@2@@std@@V?$weak_ptr@VRawImageData@@@2@@std@@PAX@std@@@std@@@std@@QAE@XZ 00400000     ZoomingDemo.obj
 0002:fffd5000       __ehfuncinfo$??1?$_Tree_temp_node@V?$allocator@U?$_Tree_node@U?$pair@$$CBV?$basic_string@DU?$char_traits@D@std@@V?$allocator@D@2@@std@@V?$shared_ptr@VRawImageData@@@2@@std@@PAX@std@@@std@@@std@@QAE@XZ 00400000     ZoomingDemo.obj
 0002:fffd5000       __ehfuncinfo$??1?$_Tree_temp_node@V?$allocator@U?$_Tree_node@U?$pair@$$CBV?$basic_string@DU?$char_traits@D@std@@V?$allocator@D@2@@std@@V?$weak_ptr@VRawImageData@@@2@@std@@PAX@std@@@std@@@std@@QAE@XZ 00400000     ZoomingDemo.obj
 0002:fffd5000       __ehfuncinfo$??1RawImageData@@QAE@XZ 00400000     ZoomingDemo.obj
 0002:fffd5000       __ehfuncinfo$??1_Sentry_base@?$basic_ostream@DU?$char_traits@D@std@@@std@@QAE@XZ 00400000     ZoomingDemo.obj
 0002:fffd5000       __ehfuncinfo$??1sentry@?$basic_ostream@DU?$char_traits@D@std@@@std@@QAE@XZ 00400000     ZoomingDemo.obj
 0002:fffd5000       __ehfuncinfo$?_Take_contents@?$basic_string@DU?$char_traits@D@std@@V?$allocator@D@2@@std@@AAEXAAV12@@Z 00400000     ZoomingDemo.obj
 0002:fffd5000       __ehfuncinfo$?_Tidy_deallocate@?$basic_string@DU?$char_traits@D@std@@V?$allocator@D@2@@std@@AAEXXZ 00400000     ZoomingDemo.obj
 0002:fffd5000       __ehfuncinfo$?getImagePtrbyURL@ImageManager@@QAE?AV?$shared_ptr@VRawImageData@@@std@@V?$basic_string@DU?$char_traits@D@std@@V?$allocator@D@2@@3@_N1@Z 00400000     ZoomingDemo.obj
 0001:fffff000       __ehhandler$??$_Deallocate@$07$0A@@std@@YAXPAXI@Z 00400000 f   ZoomingDemo.obj
 0001:fffff000       __ehhandler$??$_Deallocate_plain@V?$allocator@U_Container_proxy@std@@@std@@@std@@YAXAAV?$allocator@U_Container_proxy@std@@@0@QAU_Container_proxy@0@@Z 00400000 f   ZoomingDemo.obj
 0001:fffff000       __ehhandler$??$_Freenode0@V?$allocator@U?$_Tree_node@U?$pair@$$CBV?$basic_string@DU?$char_traits@D@std@@V?$allocator@D@2@@std@@V?$weak_ptr@VRawImageData@@@2@@std@@PAX@std@@@std@@@?$_Tree_node@U?$pair@$$CBV?$basic_string@DU?$char_traits@D@std@@V?$allocator@D@2@@std@@V?$weak_ptr@VRawImageData@@@2@@std@@PAX@std@@SAXAAV?$allocator@U?$_Tree_node@U?$pair@$$CBV?$basic_string@DU?$char_traits@D@std@@V?$allocator@D@2@@std@@V?$weak_ptr@VRawImageData@@@2@@std@@PAX@std@@@1@PAU01@@Z 00400000 f   ZoomingDemo.obj
 0001:fffff000       __ehhandler$??$_Freenode@V?$allocator@U?$_Tree_node@U?$pair@$$CBV?$basic_string@DU?$char_traits@D@std@@V?$allocator@D@2@@std@@V?$weak_ptr@VRawImageData@@@2@@std@@PAX@std@@@std@@@?$_Tree_node@U?$pair@$$CBV?$basic_string@DU?$char_traits@D@std@@V?$allocator@D@2@@std@@V?$weak_ptr@VRawImageData@@@2@@std@@PAX@std@@SAXAAV?$allocator@U?$_Tree_node@U?$pair@$$CBV?$basic_string@DU?$char_traits@D@std@@V?$allocator@D@2@@std@@V?$weak_ptr@VRawImageData@@@2@@std@@PAX@std@@@1@PAU01@@Z 00400000 f   ZoomingDemo.obj
 0001:fffff000       __ehhandler$??$_Resize_reallocate@U_Value_init_tag@std@@@?$vector@PAVDisplayableObject@@V?$allocator@PAVDisplayableObject@@@std@@@std@@AAEXIABU_Value_init_tag@1@@Z 00400000 f   ZoomingDemo.obj
 0001:fffff000       __ehhandler$??0?$basic_string@DU?$char_traits@D@std@@V?$allocator@D@2@@std@@QAE@$$QAV01@@Z 00400000 f   ZoomingDemo.obj
 0001:fffff000       __ehhandler$??1?$_Alloc_construct_ptr@V?$allocator@U?$_Tree_node@U?$pair@$$CBV?$basic_string@DU?$char_traits@D@std@@V?$allocator@D@2@@std@@V?$shared_ptr@VRawImageData@@@2@@std@@PAX@std@@@std@@@std@@QAE@XZ 00400000 f   ZoomingDemo.obj
 0001:fffff000       __ehhandler$??1?$_Alloc_construct_ptr@V?$allocator@U?$_Tree_node@U?$pair@$$CBV?$basic_string@DU?$char_traits@D@std@@V?$allocator@D@2@@std@@V?$weak_ptr@VRawImageData@@@2@@std@@PAX@std@@@std@@@std@@QAE@XZ 00400000 f   ZoomingDemo.obj
 0001:fffff000       __ehhandler$??1?$_Tree_temp_node@V?$allocator@U?$_Tree_node@U?$pair@$$CBV?$basic_string@DU?$char_traits@D@std@@V?$allocator@D@2@@std@@V?$shared_ptr@VRawImageData@@@2@@std@@PAX@std@@@std@@@std@@QAE@XZ 00400000 f   ZoomingDemo.obj
 0001:fffff000       __ehhandler$??1?$_Tree_temp_node@V?$allocator@U?$_Tree_node@U?$pair@$$CBV?$basic_string@DU?$char_traits@D@std@@V?$allocator@D@2@@std@@V?$weak_ptr@VRawImageData@@@2@@std@@PAX@std@@@std@@@std@@QAE@XZ 00400000 f   ZoomingDemo.obj
 0001:fffff000       __ehhandler$??1RawImageData@@QAE@XZ 00400000 f   ZoomingDemo.obj
 0001:fffff000       __ehhandler$??1_Sentry_base@?$basic_ostream@DU?$char_traits@D@std@@@std@@QAE@XZ 00400000 f   ZoomingDemo.obj
 0001:fffff000       __ehhandler$??1sentry@?$basic_ostream@DU?$char_traits@D@std@@@std@@QAE@XZ 00400000 f   ZoomingDemo.obj
 0001:fffff000       __ehhandler$?_Take_contents@?$basic_string@DU?$char_traits@D@std@@V?$allocator@D@2@@std@@AAEXAAV12@@Z 00400000 f   ZoomingDemo.obj
 0001:fffff000       __ehhandler$?_Tidy_deallocate@?$basic_string@DU?$char_traits@D@std@@V?$allocator@D@2@@std@@AAEXXZ 00400000 f   ZoomingDemo.obj
 0001:fffff000       __unwindfunclet$??$?0U?$pair@V?$basic_string@DU?$char_traits@D@std@@V?$allocator@D@2@@std@@V?$shared_ptr@VRawImageData@@@2@@std@@@?$_Tree_temp_node@V?$allocator@U?$_Tree_node@U?$pair@$$CBV?$basic_string@DU?$char_traits@D@std@@V?$allocator@D@2@@std@@V?$shared_ptr@VRawImageData@@@2@@std@@PAX@std@@@std@@@std@@QAE@AAV?$allocator@U?$_Tree_node@U?$pair@$$CBV?$basic_string@DU?$char_traits@D@std@@V?$allocator@D@2@@std@@V?$shared_ptr@VRawImageData@@@2@@std@@PAX@std@@@1@PAU?$_Tree_node@U?$pair@$$CBV?$basic_string@DU?$char_traits@D@std@@V?$allocator@D@2@@std@@V?$shared_ptr@VRawImageData@@@2@@std@@PAX@1@$$QAU?$pair@V?$basic_string@DU?$char_traits@D@std@@V?$allocator@D@2@@std@@V?$shared_ptr@VRawImageData@@@2@@1@@Z$0 00400000 f   ZoomingDemo.obj
 0001:fffff000       __unwindfunclet$??$?0U?$pair@V?$basic_string@DU?$char_traits@D@std@@V?$allocator@D@2@@std@@V?$weak_ptr@VRawImageData@@@2@@std@@@?$_Tree_temp_node@V?$allocator@U?$_Tree_node@U?$pair@$$CBV?$basic_string@DU?$char_traits@D@std@@V?$allocator@D@2@@std@@V?$weak_ptr@VRawImageData@@@2@@std@@PAX@std@@@std@@@std@@QAE@AAV?$allocator@U?$_Tree_node@U?$pair@$$CBV?$basic_string@DU?$char_traits@D@std@@V?$allocator@D@2@@std@@V?$weak_ptr@VRawImageData@@@2@@std@@PAX@std@@@1@PAU?$_Tree_node@U?$pair@$$CBV?$basic_string@DU?$char_traits@D@std@@V?$allocator@D@2@@std@@V?$weak_ptr@VRawImageData@@@2@@std@@PAX@1@$$QAU?$pair@V?$basic_string@DU?$char_traits@D@std@@V?$allocator@D@2@@std@@V?$weak_ptr@VRawImageData@@@2@@1@@Z$0 00400000 f   ZoomingDemo.obj
 0001:fffff000       __unwindfunclet$??$?0VRawImageData@@$0A@@?$shared_ptr@VRawImageData@@@std@@QAE@PAVRawImageData@@@Z$0 00400000 f   ZoomingDemo.obj
 0001:fffff000       __unwindfunclet$??$?6U?$char_traits@D@std@@@std@@YAAAV?$basic_ostream@DU?$char_traits@D@std@@@0@AAV10@PBD@Z$2 00400000 f   ZoomingDemo.obj
 0001:fffff000       __unwindfunclet$??$_Insert_string@DU?$char_traits@D@std@@I@std@@YAAAV?$basic_ostream@DU?$char_traits@D@std@@@0@AAV10@QBDI@Z$2 00400000 f   ZoomingDemo.obj
 0001:fffff000       __unwindfunclet$??$_Uninitialized_move@PAPAVDisplayableObject@@V?$allocator@PAVDisplayableObject@@@std@@@std@@YAPAPAVDisplayableObject@@QAPAV1@0PAPAV1@AAV?$allocator@PAVDisplayableObject@@@0@@Z$0 00400000 f   ZoomingDemo.obj
 0001:fffff000       __unwindfunclet$??$_Uninitialized_value_construct_n@V?$allocator@PAVDisplayableObject@@@std@@@std@@YAPAPAVDisplayableObject@@PAPAV1@IAAV?$allocator@PAVDisplayableObject@@@0@@Z$0 00400000 f   ZoomingDemo.obj
 0001:fffff000       __unwindfunclet$??0?$_Tree_temp_node_alloc@V?$allocator@U?$_Tree_node@U?$pair@$$CBV?$basic_string@DU?$char_traits@D@std@@V?$allocator@D@2@@std@@V?$shared_ptr@VRawImageData@@@2@@std@@PAX@std@@@std@@@std@@QAE@AAV?$allocator@U?$_Tree_node@U?$pair@$$CBV?$basic_string@DU?$char_traits@D@std@@V?$allocator@D@2@@std@@V?$shared_ptr@VRawImageData@@@2@@std@@PAX@std@@@1@@Z$0 00400000 f   ZoomingDemo.obj
 0001:fffff000       __unwindfunclet$??0?$_Tree_temp_node_alloc@V?$allocator@U?$_Tree_node@U?$pair@$$CBV?$basic_string@DU?$char_traits@D@std@@V?$allocator@D@2@@std@@V?$weak_ptr@VRawImageData@@@2@@std@@PAX@std@@@std@@@std@@QAE@AAV?$allocator@U?$_Tree_node@U?$pair@$$CBV?$basic_string@DU?$char_traits@D@std@@V?$allocator@D@2@@std@@V?$weak_ptr@VRawImageData@@@2@@std@@PAX@std@@@1@@Z$0 00400000 f   ZoomingDemo.obj
 0001:fffff000       __unwindfunclet$??0?$basic_string@DU?$char_traits@D@std@@V?$allocator@D@2@@std@@QAE@ABV01@@Z$0 00400000 f   ZoomingDemo.obj
 0001:fffff000       __unwindfunclet$??0?$basic_string@DU?$char_traits@D@std@@V?$allocator@D@2@@std@@QAE@QBD@Z$0 00400000 f   ZoomingDemo.obj
 0001:fffff000       __unwindfunclet$??0DragableImageObject@@QAE@HHPAVBaseEngine@@V?$basic_string@DU?$char_traits@D@std@@V?$allocator@D@2@@std@@_N2@Z$0 00400000 f   ZoomingDemo.obj
 0001:fffff000       __unwindfunclet$??0DragableObject@@QAE@HHPAVBaseEngine@@HH_N1@Z$0 00400000 f   ZoomingDemo.obj
 0001:fffff000       __unwindfunclet$??0ImageManager@@QAE@XZ$0 00400000 f   ZoomingDemo.obj
 0001:fffff000       __unwindfunclet$??0RawImageData@@QAE@V?$basic_string@DU?$char_traits@D@std@@V?$allocator@D@2@@std@@@Z$0 00400000 f   ZoomingDemo.obj
 0001:fffff000       __unwindfunclet$??0sentry@?$basic_ostream@DU?$char_traits@D@std@@@std@@QAE@AAV12@@Z$0 00400000 f   ZoomingDemo.obj
 0001:fffff000       __unwindfunclet$?_Alloc_sentinel_and_proxy@?$_Tree@V?$_Tmap_traits@V?$basic_string@DU?$char_traits@D@std@@V?$allocator@D@2@@std@@V?$shared_ptr@VRawImageData@@@2@U?$less@V?$basic_string@DU?$char_traits@D@std@@V?$allocator@D@2@@std@@@2@V?$allocator@U?$pair@$$CBV?$basic_string@DU?$char_traits@D@std@@V?$allocator@D@2@@std@@V?$shared_ptr@VRawImageData@@@2@@std@@@2@$0A@@std@@@std@@IAEXXZ$0 00400000 f   ZoomingDemo.obj
 0001:fffff000       __unwindfunclet$?_Alloc_sentinel_and_proxy@?$_Tree@V?$_Tmap_traits@V?$basic_string@DU?$char_traits@D@std@@V?$allocator@D@2@@std@@V?$weak_ptr@VRawImageData@@@2@U?$less@V?$basic_string@DU?$char_traits@D@std@@V?$allocator@D@2@@std@@@2@V?$allocator@U?$pair@$$CBV?$basic_string@DU?$char_traits@D@std@@V?$allocator@D@2@@std@@V?$weak_ptr@VRawImageData@@@2@@std@@@2@$0A@@std@@@std@@IAEXXZ$0 00400000 f   ZoomingDemo.obj
 0001:fffff000       __unwindfunclet$?_Orphan_range_locked@?$vector@PAVDisplayableObject@@V?$allocator@PAVDisplayableObject@@@std@@@std@@ABEXPAPAVDisplayableObject@@0@Z$0 00400000 f   ZoomingDemo.obj
 0001:fffff000       __unwindfunclet$?get@ImageManager@@SAPAV1@XZ$0 00400000 f   ZoomingDemo.obj
 0001:fffff000       __unwindfunclet$?getImagePtrbyURL@ImageManager@@QAE?AV?$shared_ptr@VRawImageData@@@std@@V?$basic_string@DU?$char_traits@D@std@@V?$allocator@D@2@@3@_N1@Z$0 00400000 f   ZoomingDemo.obj
 0001:fffff000       __unwindfunclet$?getImagebyURL@ImageManager@@QAE?AVSimpleImage@@V?$basic_string@DU?$char_traits@D@std@@V?$allocator@D@2@@std@@_N1@Z$0 00400000 f   ZoomingDemo.obj
 0001:fffff000       __unwindfunclet$?loadAsNew@ImageManager@@QAE?AV?$shared_ptr@VRawImageData@@@std@@V?$basic_string@DU?$char_traits@D@std@@V?$allocator@D@2@@3@@Z$0 00400000 f   ZoomingDemo.obj
 0001:fffff000       __unwindfunclet$?loadImage@RawImageData@@QAE_NV?$basic_string@DU?$char_traits@D@std@@V?$allocator@D@2@@std@@HHHHH_N@Z$0 00400000 f   ZoomingDemo.obj
 0002:fffd5000       __unwindtable$??$?0U?$pair@V?$basic_string@DU?$char_traits@D@std@@V?$allocator@D@2@@std@@V?$shared_ptr@VRawImageData@@@2@@std@@@?$_Tree_temp_node@V?$allocator@U?$_Tree_node@U?$pair@$$CBV?$basic_string@DU?$char_traits@D@std@@V?$allocator@D@2@@std@@V?$shared_ptr@VRawImageData@@@2@@std@@PAX@std@@@std@@@std@@QAE@AAV?$allocator@U?$_Tree_node@U?$pair@$$CBV?$basic_string@DU?$char_traits@D@std@@V?$allocator@D@2@@std@@V?$shared_ptr@VRawImageData@@@2@@std@@PAX@std@@@1@PAU?$_Tree_node@U?$pair@$$CBV?$basic_string@DU?$char_traits@D@std@@V?$allocator@D@2@@std@@V?$shared_ptr@VRawImageData@@@2@@std@@PAX@1@$$QAU?$pair@V?$basic_string@DU?$char_traits@D@std@@V?$allocator@D@2@@std@@V?$shared_ptr@VRawImageData@@@2@@1@@Z 00400000     ZoomingDemo.obj
 0002:fffd5000       __unwindtable$??$?0U?$pair@V?$basic_string@DU?$char_traits@D@std@@V?$allocator@D@2@@std@@V?$weak_ptr@VRawImageData@@@2@@std@@@?$_Tree_temp_node@V?$allocator@U?$_Tree_node@U?$pair@$$CBV?$basic_string@DU?$char_traits@D@std@@V?$allocator@D@2@@std@@V?$weak_ptr@VRawImageData@@@2@@std@@PAX@std@@@std@@@std@@QAE@AAV?$allocator@U?$_Tree_node@U?$pair@$$CBV?$basic_string@DU?$char_traits@D@std@@V?$allocator@D@2@@std@@V?$weak_ptr@VRawImageData@@@2@@std@@PAX@std@@@1@PAU?$_Tree_node@U?$pair@$$CBV?$basic_string@DU?$char_traits@D@std@@V?$allocator@D@2@@std@@V?$weak_ptr@VRawImageData@@@2@@std@@PAX@1@$$QAU?$pair@V?$basic_string@DU?$char_traits@D@std@@V?$allocator@D@2@@std@@V?$weak_ptr@VRawImageData@@@2@@1@@Z 00400000     ZoomingDemo.obj
 0002:fffd5000       __unwindtable$??$?0VRawImageData@@$0A@@?$shared_ptr@VRawImageData@@@std@@QAE@PAVRawImageData@@@Z 00400000     ZoomingDemo.obj
 0002:fffd5000       __unwindtable$??$_Uninitialized_move@PAPAVDisplayableObject@@V?$allocator@PAVDisplayableObject@@@std@@@std@@YAPAPAVDisplayableObject@@QAPAV1@0PAPAV1@AAV?$allocator@PAVDisplayableObject@@@0@@Z 00400000     ZoomingDemo.obj
 0002:fffd5000       __unwindtable$??$_Uninitialized_value_construct_n@V?$allocator@PAVDisplayableObject@@@std@@@std@@YAPAPAVDisplayableObject@@PAPAV1@IAAV?$allocator@PAVDisplayableObject@@@0@@Z 00400000     ZoomingDemo.obj
 0002:fffd5000       __unwindtable$??0?$_Tree_temp_node_alloc@V?$allocator@U?$_Tree_node@U?$pair@$$CBV?$basic_string@DU?$char_traits@D@std@@V?$allocator@D@2@@std@@V?$shared_ptr@VRawImageData@@@2@@std@@PAX@std@@@std@@@std@@QAE@AAV?$allocator@U?$_Tree_node@U?$pair@$$CBV?$basic_string@DU?$char_traits@D@std@@V?$allocator@D@2@@std@@V?$shared_ptr@VRawImageData@@@2@@std@@PAX@std@@@1@@Z 00400000     ZoomingDemo.obj
 0002:fffd5000       __unwindtable$??0?$_Tree_temp_node_alloc@V?$allocator@U?$_Tree_node@U?$pair@$$CBV?$basic_string@DU?$char_traits@D@std@@V?$allocator@D@2@@std@@V?$weak_ptr@VRawImageData@@@2@@std@@PAX@std@@@std@@@std@@QAE@AAV?$allocator@U?$_Tree_node@U?$pair@$$CBV?$basic_string@DU?$char_traits@D@std@@V?$allocator@D@2@@std@@V?$weak_ptr@VRawImageData@@@2@@std@@PAX@std@@@1@@Z 00400000     ZoomingDemo.obj
 0002:fffd5000       __unwindtable$??0?$basic_string@DU?$char_traits@D@std@@V?$allocator@D@2@@std@@QAE@ABV01@@Z 00400000     ZoomingDemo.obj
 0002:fffd5000       __unwindtable$??0?$basic_string@DU?$char_traits@D@std@@V?$allocator@D@2@@std@@QAE@QBD@Z 00400000     ZoomingDemo.obj
 0002:fffd5000       __unwindtable$??0DragableImageObject@@QAE@HHPAVBaseEngine@@V?$basic_string@DU?$char_traits@D@std@@V?$allocator@D@2@@std@@_N2@Z 00400000     ZoomingDemo.obj
 0002:fffd5000       __unwindtable$??0DragableObject@@QAE@HHPAVBaseEngine@@HH_N1@Z 00400000     ZoomingDemo.obj
 0002:fffd5000       __unwindtable$??0ImageManager@@QAE@XZ 00400000     ZoomingDemo.obj
 0002:fffd5000       __unwindtable$??0RawImageData@@QAE@V?$basic_string@DU?$char_traits@D@std@@V?$allocator@D@2@@std@@@Z 00400000     ZoomingDemo.obj
 0002:fffd5000       __unwindtable$??0sentry@?$basic_ostream@DU?$char_traits@D@std@@@std@@QAE@AAV12@@Z 00400000     ZoomingDemo.obj
 0002:fffd5000       __unwindtable$?_Alloc_sentinel_and_proxy@?$_Tree@V?$_Tmap_traits@V?$basic_string@DU?$char_traits@D@std@@V?$allocator@D@2@@std@@V?$shared_ptr@VRawImageData@@@2@U?$less@V?$basic_string@DU?$char_traits@D@std@@V?$allocator@D@2@@std@@@2@V?$allocator@U?$pair@$$CBV?$basic_string@DU?$char_traits@D@std@@V?$allocator@D@2@@std@@V?$shared_ptr@VRawImageData@@@2@@std@@@2@$0A@@std@@@std@@IAEXXZ 00400000     ZoomingDemo.obj
 0002:fffd5000       __unwindtable$?_Alloc_sentinel_and_proxy@?$_Tree@V?$_Tmap_traits@V?$basic_string@DU?$char_traits@D@std@@V?$allocator@D@2@@std@@V?$weak_ptr@VRawImageData@@@2@U?$less@V?$basic_string@DU?$char_traits@D@std@@V?$allocator@D@2@@std@@@2@V?$allocator@U?$pair@$$CBV?$basic_string@DU?$char_traits@D@std@@V?$allocator@D@2@@std@@V?$weak_ptr@VRawImageData@@@2@@std@@@2@$0A@@std@@@std@@IAEXXZ 00400000     ZoomingDemo.obj
 0002:fffd5000       __unwindtable$?_Orphan_range_locked@?$vector@PAVDisplayableObject@@V?$allocator@PAVDisplayableObject@@@std@@@std@@ABEXPAPAVDisplayableObject@@0@Z 00400000     ZoomingDemo.obj
 0002:fffd5000       __unwindtable$?get@ImageManager@@SAPAV1@XZ 00400000     ZoomingDemo.obj
 0002:fffd5000       __unwindtable$?getImagebyURL@ImageManager@@QAE?AVSimpleImage@@V?$basic_string@DU?$char_traits@D@std@@V?$allocator@D@2@@std@@_N1@Z 00400000     ZoomingDemo.obj
 0002:fffd5000       __unwindtable$?loadAsNew@ImageManager@@QAE?AV?$shared_ptr@VRawImageData@@@std@@V?$basic_string@DU?$char_traits@D@std@@V?$allocator@D@2@@3@@Z 00400000     ZoomingDemo.obj
 0002:fffd5000       __unwindtable$?loadImage@RawImageData@@QAE_NV?$basic_string@DU?$char_traits@D@std@@V?$allocator@D@2@@std@@HHHHH_N@Z 00400000     ZoomingDemo.obj
 0000:fffc3000       _volmd                     00400000     ZoomingDemo.obj
 0000:fffc3000       _volmd                     00400000     ZoomingDemo.obj
 0000:fffc3000       _volmd                     00400000     ZoomingDemo.obj
 0000:fffc3000       _volmd                     00400000     ZoomingDemo.obj
 0000:fffc3000       _volmd                     00400000     ZoomingDemo.obj
 0000:fffc3000       _volmd                     00400000     ZoomingDemo.obj
 0000:fffc3000       _volmd                     00400000     ZoomingDemo.obj
 0000:fffc3000       _volmd                     00400000     ZoomingDemo.obj
 0000:fffc3000       _volmd                     00400000     ZoomingDemo.obj
 0000:fffc3000       _volmd                     00400000     ZoomingDemo.obj
 0000:fffc3000       _volmd                     00400000     ZoomingDemo.obj
 0000:fffc3000       _volmd                     00400000     ZoomingDemo.obj
 0000:fffc3000       _volmd                     00400000     ZoomingDemo.obj
 0000:fffc3000       _volmd                     00400000     ZoomingDemo.obj
 0000:fffc3000       _volmd                     00400000     ZoomingDemo.obj
 0000:fffc3000       _volmd                     00400000     ZoomingDemo.obj
 0000:fffc3000       _volmd                     00400000     ZoomingDemo.obj
 0000:fffc3000       _volmd                     00400000     ZoomingDemo.obj
 0000:fffc3000       _volmd                     00400000     ZoomingDemo.obj
 0000:fffc3000       _volmd                     00400000     ZoomingDemo.obj
 0000:fffc3000       _volmd                     00400000     ZoomingDemo.obj
 0000:fffc3000       _volmd                     00400000     ZoomingDemo.obj
 0000:fffc3000       _volmd                     00400000     ZoomingDemo.obj
 0000:fffc3000       _volmd                     00400000     ZoomingDemo.obj
 0000:fffc3000       _volmd                     00400000     ZoomingDemo.obj
 0000:fffc3000       _volmd                     00400000     ZoomingDemo.obj
 0000:fffc3000       _volmd                     00400000     ZoomingDemo.obj
 0000:fffc3000       _volmd                     00400000     ZoomingDemo.obj
 0000:fffc3000       _volmd                     00400000     ZoomingDemo.obj
 0000:fffc3000       _volmd                     00400000     ZoomingDemo.obj
 0000:fffc3000       _volmd                     00400000     ZoomingDemo.obj
 0000:fffc3000       _volmd                     00400000     ZoomingDemo.obj
 0000:fffc3000       _volmd                     00400000     ZoomingDemo.obj
 0000:fffc3000       _volmd                     00400000     ZoomingDemo.obj
 0000:fffc3000       _volmd                     00400000     ZoomingDemo.obj
 0000:fffc3000       _volmd                     00400000     ZoomingDemo.obj
 0000:fffc3000       _volmd                     00400000     ZoomingDemo.obj
 0000:fffc3000       _volmd                     00400000     ZoomingDemo.obj
 0000:fffc3000       _volmd                     00400000     ZoomingDemo.obj
 0000:fffc3000       _volmd                     00400000     ZoomingDemo.obj
 0000:fffc3000       _volmd                     00400000     ZoomingDemo.obj
 0000:fffc3000       _volmd                     00400000     ZoomingDemo.obj
 0000:fffc3000       _volmd                     00400000     ZoomingDemo.obj
 0002:fffd5000       __ehfuncinfo$??$_Deallocate@$07$0A@@std@@YAXPAXI@Z 00400000     mainfunction.obj
 0002:fffd5000       __ehfuncinfo$??$_Deallocate_plain@V?$allocator@U_Container_proxy@std@@@std@@@std@@YAXAAV?$allocator@U_Container_proxy@std@@@0@QAU_Container_proxy@0@@Z 00400000     mainfunction.obj
 0002:fffd5000       __ehfuncinfo$??$_Freenode0@V?$allocator@U?$_Tree_node@U?$pair@$$CBV?$basic_string@DU?$char_traits@D@std@@V?$allocator@D@2@@std@@V?$weak_ptr@VRawImageData@@@2@@std@@PAX@std@@@std@@@?$_Tree_node@U?$pair@$$CBV?$basic_string@DU?$char_traits@D@std@@V?$allocator@D@2@@std@@V?$weak_ptr@VRawImageData@@@2@@std@@PAX@std@@SAXAAV?$allocator@U?$_Tree_node@U?$pair@$$CBV?$basic_string@DU?$char_traits@D@std@@V?$allocator@D@2@@std@@V?$weak_ptr@VRawImageData@@@2@@std@@PAX@std@@@1@PAU01@@Z 00400000     mainfunction.obj
 0002:fffd5000       __ehfuncinfo$??$_Freenode@V?$allocator@U?$_Tree_node@U?$pair@$$CBV?$basic_string@DU?$char_traits@D@std@@V?$allocator@D@2@@std@@V?$weak_ptr@VRawImageData@@@2@@std@@PAX@std@@@std@@@?$_Tree_node@U?$pair@$$CBV?$basic_string@DU?$char_traits@D@std@@V?$allocator@D@2@@std@@V?$weak_ptr@VRawImageData@@@2@@std@@PAX@std@@SAXAAV?$allocator@U?$_Tree_node@U?$pair@$$CBV?$basic_string@DU?$char_traits@D@std@@V?$allocator@D@2@@std@@V?$weak_ptr@VRawImageData@@@2@@std@@PAX@std@@@1@PAU01@@Z 00400000     mainfunction.obj
 0002:fffd5000       __ehfuncinfo$?_Tidy_deallocate@?$basic_string@DU?$char_traits@D@std@@V?$allocator@D@2@@std@@AAEXXZ 00400000     mainfunction.obj
 0001:fffff000       __ehhandler$??$_Deallocate@$07$0A@@std@@YAXPAXI@Z 00400000 f   mainfunction.obj
 0001:fffff000       __ehhandler$??$_Deallocate_plain@V?$allocator@U_Container_proxy@std@@@std@@@std@@YAXAAV?$allocator@U_Container_proxy@std@@@0@QAU_Container_proxy@0@@Z 00400000 f   mainfunction.obj
 0001:fffff000       __ehhandler$??$_Freenode0@V?$allocator@U?$_Tree_node@U?$pair@$$CBV?$basic_string@DU?$char_traits@D@std@@V?$allocator@D@2@@std@@V?$weak_ptr@VRawImageData@@@2@@std@@PAX@std@@@std@@@?$_Tree_node@U?$pair@$$CBV?$basic_string@DU?$char_traits@D@std@@V?$allocator@D@2@@std@@V?$weak_ptr@VRawImageData@@@2@@std@@PAX@std@@SAXAAV?$allocator@U?$_Tree_node@U?$pair@$$CBV?$basic_string@DU?$char_traits@D@std@@V?$allocator@D@2@@std@@V?$weak_ptr@VRawImageData@@@2@@std@@PAX@std@@@1@PAU01@@Z 00400000 f   mainfunction.obj
 0001:fffff000       __ehhandler$??$_Freenode@V?$allocator@U?$_Tree_node@U?$pair@$$CBV?$basic_string@DU?$char_traits@D@std@@V?$allocator@D@2@@std@@V?$weak_ptr@VRawImageData@@@2@@std@@PAX@std@@@std@@@?$_Tree_node@U?$pair@$$CBV?$basic_string@DU?$char_traits@D@std@@V?$allocator@D@2@@std@@V?$weak_ptr@VRawImageData@@@2@@std@@PAX@std@@SAXAAV?$allocator@U?$_Tree_node@U?$pair@$$CBV?$basic_string@DU?$char_traits@D@std@@V?$allocator@D@2@@std@@V?$weak_ptr@VRawImageData@@@2@@std@@PAX@std@@@1@PAU01@@Z 00400000 f   mainfunction.obj
 0001:fffff000       __ehhandler$?_Tidy_deallocate@?$basic_string@DU?$char_traits@D@std@@V?$allocator@D@2@@std@@AAEXXZ 00400000 f   mainfunction.obj
 0000:fffc3000       _volmd                     00400000     mainfunction.obj
 0000:fffc3000       _volmd                     00400000     mainfunction.obj
 0000:fffc3000       _volmd                     00400000     mainfunction.obj
 0000:fffc3000       _volmd                     00400000     mainfunction.obj
 0000:fffc3000       _volmd                     00400000     mainfunction.obj
 0000:fffc3000       _volmd                     00400000     mainfunction.obj
 0000:fffc3000       _volmd                     00400000     mainfunction.obj
 0000:fffc3000       _volmd                     00400000     mainfunction.obj
 0000:fffc3000       _volmd                     00400000     mainfunction.obj
 0000:fffc3000       _volmd                     00400000     mainfunction.obj
 0000:fffc3000       _volmd                     00400000     mainfunction.obj
 0000:fffc1000       .debug$S                   00400000     SDL2:SDL2.dll
 0000:fffc1000       .debug$S                   00400000     SDL2:SDL2.dll
 0000:fffc1000       .debug$S                   00400000     SDL2:SDL2.dll
 0000:fffc1000       .debug$S                   00400000     SDL2:SDL2.dll
 0000:fffc1000       .debug$S                   00400000     SDL2:SDL2.dll
 0000:fffc1000       .debug$S                   00400000     SDL2:SDL2.dll
 0000:fffc1000       .debug$S                   00400000     SDL2:SDL2.dll
 0000:fffc1000       .debug$S                   00400000     SDL2:SDL2.dll
 0000:fffc1000       .debug$S                   00400000     SDL2:SDL2.dll
 0000:fffc1000       .debug$S                   00400000     SDL2:SDL2.dll
 0000:fffc1000       .debug$S                   00400000     SDL2:SDL2.dll
 0000:fffc1000       .debug$S                   00400000     SDL2:SDL2.dll
 0000:fffc1000       .debug$S                   00400000     SDL2:SDL2.dll
 0000:fffc1000       .debug$S                   00400000     SDL2:SDL2.dll
 0000:fffc1000       .debug$S                   00400000     SDL2:SDL2.dll
 0000:fffc1000       .debug$S                   00400000     SDL2:SDL2.dll
 0000:fffc1000       .debug$S                   00400000     SDL2:SDL2.dll
 0000:fffc1000       .debug$S                   00400000     SDL2:SDL2.dll
 0000:fffc1000       .debug$S                   00400000     SDL2:SDL2.dll
 0000:fffc1000       .debug$S                   00400000     SDL2:SDL2.dll
 0000:fffc1000       .debug$S                   00400000     SDL2:SDL2.dll
 0000:fffc1000       .debug$S                   00400000     SDL2:SDL2.dll
 0000:fffc1000       .debug$S                   00400000     SDL2_image:SDL2_image.dll
 0000:fffc1000       .debug$S                   00400000     SDL2_ttf:SDL2_ttf.dll
 0000:fffc1000       .debug$S                   00400000     SDL2_ttf:SDL2_ttf.dll
 0000:fffc1000       .debug$S                   00400000     SDL2_ttf:SDL2_ttf.dll
 0000:fffc1000       .debug$S                   00400000     SDL2_ttf:SDL2_ttf.dll
 0000:fffc1000       .debug$S                   00400000     SDL2_ttf:SDL2_ttf.dll
 0000:fffc3000       __guard_fids___except_handler4 00400000     MSVCRTD:chandler4gs.obj
 0000:fffc3000       __guard_fids_?pre_c_initialization@@YAHXZ 00400000     MSVCRTD:exe_main.obj
 0000:fffc3000       __guard_fids__             00400000     MSVCRTD:exe_main.obj
 0000:fffc3000       __guard_fids__             00400000     MSVCRTD:guard_support.obj
 0000:fffc3000       __guard_fids__             00400000     MSVCRTD:guard_support.obj
 0000:fffc3000       __guard_fids___guard_icall_checks_enforced 00400000     MSVCRTD:guard_support.obj
 0000:fffc3000       __guard_fids__             00400000     MSVCRTD:std_type_info_static.obj
 0000:fffc3000       __guard_fids__             00400000     MSVCRTD:throw_bad_alloc.obj
 0000:fffc3000       __guard_fids__             00400000     MSVCRTD:throw_bad_alloc.obj
 0000:fffc3000       __guard_fids__             00400000     MSVCRTD:throw_bad_alloc.obj
 0000:fffc3000       __guard_fids__             00400000     MSVCRTD:throw_bad_alloc.obj
 0000:fffc3000       __guard_fids__             00400000     MSVCRTD:throw_bad_alloc.obj
 0000:fffc3000       __guard_fids__             00400000     MSVCRTD:throw_bad_alloc.obj
 0000:fffc3000       __guard_fids__             00400000     MSVCRTD:throw_bad_alloc.obj
 0000:fffc3000       __guard_fids__             00400000     MSVCRTD:throw_bad_alloc.obj
 0000:fffc3000       __guard_fids____scrt_set_unhandled_exception_filter 00400000     MSVCRTD:utility_desktop.obj
 0000:fffc1000       .debug$S                   00400000     msvcprtd:MSVCP140D.dll
 0000:fffc1000       .debug$S                   00400000     msvcprtd:MSVCP140D.dll
 0000:fffc1000       .debug$S                   00400000     msvcprtd:MSVCP140D.dll
 0000:fffc1000       .debug$S                   00400000     msvcprtd:MSVCP140D.dll
 0000:fffc1000       .debug$S                   00400000     msvcprtd:MSVCP140D.dll
 0000:fffc1000       .debug$S                   00400000     msvcprtd:MSVCP140D.dll
 0000:fffc1000       .debug$S                   00400000     msvcprtd:MSVCP140D.dll
 0000:fffc1000       .debug$S                   00400000     msvcprtd:MSVCP140D.dll
 0000:fffc1000       .debug$S                   00400000     msvcprtd:MSVCP140D.dll
 0000:fffc1000       .debug$S                   00400000     msvcprtd:MSVCP140D.dll
 0000:fffc1000       .debug$S                   00400000     msvcprtd:MSVCP140D.dll
 0000:fffc1000       .debug$S                   00400000     msvcprtd:MSVCP140D.dll
 0000:fffc1000       .debug$S                   00400000     msvcprtd:MSVCP140D.dll
 0000:fffc1000       .debug$S                   00400000     msvcprtd:MSVCP140D.dll
 0000:fffc1000       .debug$S                   00400000     msvcprtd:MSVCP140D.dll
 0000:fffc1000       .debug$S                   00400000     msvcprtd:MSVCP140D.dll
 0000:fffc1000       .debug$S                   00400000     msvcprtd:MSVCP140D.dll
 0000:fffc1000       .debug$S                   00400000     msvcprtd:MSVCP140D.dll
 0000:fffc1000       .debug$S                   00400000     msvcprtd:MSVCP140D.dll
 0000:fffc1000       .debug$S                   00400000     msvcprtd:MSVCP140D.dll
 0000:fffc1000       .debug$S                   00400000     msvcprtd:MSVCP140D.dll
 0000:fffc1000       .debug$S                   00400000     vcruntimed:VCRUNTIME140D.dll
 0000:fffc1000       .debug$S                   00400000     vcruntimed:VCRUNTIME140D.dll
 0000:fffc1000       .debug$S                   00400000     vcruntimed:VCRUNTIME140D.dll
 0000:fffc1000       .debug$S                   00400000     vcruntimed:VCRUNTIME140D.dll
 0000:fffc1000       .debug$S                   00400000     vcruntimed:VCRUNTIME140D.dll
 0000:fffc1000       .debug$S                   00400000     vcruntimed:VCRUNTIME140D.dll
 0000:fffc1000       .debug$S                   00400000     vcruntimed:VCRUNTIME140D.dll
 0000:fffc1000       .debug$S                   00400000     vcruntimed:VCRUNTIME140D.dll
 0000:fffc1000       .debug$S                   00400000     vcruntimed:VCRUNTIME140D.dll
 0000:fffc1000       .debug$S                   00400000     vcruntimed:VCRUNTIME140D.dll
 0000:fffc1000       .debug$S                   00400000     vcruntimed:VCRUNTIME140D.dll
 0000:fffc1000       .debug$S                   00400000     vcruntimed:VCRUNTIME140D.dll
 0000:fffc1000       .debug$S                   00400000     vcruntimed:VCRUNTIME140D.dll
 0000:fffc1000       .debug$S                   00400000     vcruntimed:VCRUNTIME140D.dll
 0000:fffc1000       .debug$S                   00400000     ucrtd:ucrtbased.dll
 0000:fffc1000       .debug$S                   00400000     ucrtd:ucrtbased.dll
 0000:fffc1000       .debug$S                   00400000     ucrtd:ucrtbased.dll
 0000:fffc1000       .debug$S                   00400000     ucrtd:ucrtbased.dll
 0000:fffc1000       .debug$S                   00400000     ucrtd:ucrtbased.dll
 0000:fffc1000       .debug$S                   00400000     ucrtd:ucrtbased.dll
 0000:fffc1000       .debug$S                   00400000     ucrtd:ucrtbased.dll
 0000:fffc1000       .debug$S                   00400000     ucrtd:ucrtbased.dll
 0000:fffc1000       .debug$S                   00400000     ucrtd:ucrtbased.dll
 0000:fffc1000       .debug$S                   00400000     ucrtd:ucrtbased.dll
 0000:fffc1000       .debug$S                   00400000     ucrtd:ucrtbased.dll
 0000:fffc1000       .debug$S                   00400000     ucrtd:ucrtbased.dll
 0000:fffc1000       .debug$S                   00400000     ucrtd:ucrtbased.dll
 0000:fffc1000       .debug$S                   00400000     ucrtd:ucrtbased.dll
 0000:fffc1000       .debug$S                   00400000     ucrtd:ucrtbased.dll
 0000:fffc1000       .debug$S                   00400000     ucrtd:ucrtbased.dll
 0000:fffc1000       .debug$S                   00400000     ucrtd:ucrtbased.dll
 0000:fffc1000       .debug$S                   00400000     ucrtd:ucrtbased.dll
 0000:fffc1000       .debug$S                   00400000     ucrtd:ucrtbased.dll
 0000:fffc1000       .debug$S                   00400000     ucrtd:ucrtbased.dll
 0000:fffc1000       .debug$S                   00400000     ucrtd:ucrtbased.dll
 0000:fffc1000       .debug$S                   00400000     ucrtd:ucrtbased.dll
 0000:fffc1000       .debug$S                   00400000     ucrtd:ucrtbased.dll
 0000:fffc1000       .debug$S                   00400000     ucrtd:ucrtbased.dll
 0000:fffc1000       .debug$S                   00400000     ucrtd:ucrtbased.dll
 0000:fffc1000       .debug$S                   00400000     ucrtd:ucrtbased.dll
 0000:fffc1000       .debug$S                   00400000     ucrtd:ucrtbased.dll
 0000:fffc1000       .debug$S                   00400000     ucrtd:ucrtbased.dll
 0000:fffc1000       .debug$S                   00400000     ucrtd:ucrtbased.dll
 0000:fffc1000       .debug$S                   00400000     ucrtd:ucrtbased.dll
 0000:fffc1000       .debug$S                   00400000     ucrtd:ucrtbased.dll
 0000:fffc1000       .debug$S                   00400000     ucrtd:ucrtbased.dll
 0000:fffc1000       .debug$S                   00400000     ucrtd:ucrtbased.dll
 0000:fffc1000       .debug$S                   00400000     ucrtd:ucrtbased.dll
 0000:fffc1000       .debug$S                   00400000     ucrtd:ucrtbased.dll
 0000:fffc1000       .debug$S                   00400000     ucrtd:ucrtbased.dll
 0000:fffc1000       .debug$S                   00400000     ucrtd:ucrtbased.dll
 0000:fffc1000       .debug$S                   00400000     ucrtd:ucrtbased.dll
 0000:fffc1000       .debug$S                   00400000     ucrtd:ucrtbased.dll
 0000:fffc1000       .debug$S                   00400000     ucrtd:ucrtbased.dll
 0000:fffc1000       .debug$S                   00400000     ucrtd:ucrtbased.dll
 0000:fffc1000       .debug$S                   00400000     ucrtd:ucrtbased.dll
 0000:fffc1000       .debug$S                   00400000     ucrtd:ucrtbased.dll
 0000:fffc1000       .debug$S                   00400000     ucrtd:ucrtbased.dll
 0000:fffc1000       .debug$S                   00400000     ucrtd:ucrtbased.dll
 0000:fffc1000       .debug$S                   00400000     ucrtd:ucrtbased.dll
 0000:fffc1000       .debug$S                   00400000     ucrtd:ucrtbased.dll
 0000:fffc1000       .debug$S                   00400000     kernel32:KERNEL32.dll
 0000:fffc1000       .debug$S                   00400000     kernel32:KERNEL32.dll
 0000:fffc1000       .debug$S                   00400000     kernel32:KERNEL32.dll
 0000:fffc1000       .debug$S                   00400000     kernel32:KERNEL32.dll
 0000:fffc1000       .debug$S                   00400000     kernel32:KERNEL32.dll
 0000:fffc1000       .debug$S                   00400000     kernel32:KERNEL32.dll
 0000:fffc1000       .debug$S                   00400000     kernel32:KERNEL32.dll
 0000:fffc1000       .debug$S                   00400000     kernel32:KERNEL32.dll
 0000:fffc1000       .debug$S                   00400000     kernel32:KERNEL32.dll
 0000:fffc1000       .debug$S                   00400000     kernel32:KERNEL32.dll
 0000:fffc1000       .debug$S                   00400000     kernel32:KERNEL32.dll
 0000:fffc1000       .debug$S                   00400000     kernel32:KERNEL32.dll
 0000:fffc1000       .debug$S                   00400000     kernel32:KERNEL32.dll
 0000:fffc1000       .debug$S                   00400000     kernel32:KERNEL32.dll
 0000:fffc1000       .debug$S                   00400000     kernel32:KERNEL32.dll
 0000:fffc1000       .debug$S                   00400000     kernel32:KERNEL32.dll
 0000:fffc1000       .debug$S                   00400000     kernel32:KERNEL32.dll
 0000:fffc3004       __guard_fids__             00400004     MSVCRTD:exe_main.obj
 0002:fffd5008       __ehfuncinfo$??$_Uninitialized_value_construct_n@V?$allocator@PAVDisplayableObject@@@std@@@std@@YAPAPAVDisplayableObject@@PAPAV1@IAAV?$allocator@PAVDisplayableObject@@@0@@Z 00400008     BaseEngine.obj
 0002:fffd5008       __ehfuncinfo$??0sentry@?$basic_ostream@DU?$char_traits@D@std@@@std@@QAE@AAV12@@Z 00400008     BouncingBall.obj
 0002:fffd5008       __ehfuncinfo$??$_Uninitialized_move@PAPAVDisplayableObject@@V?$allocator@PAVDisplayableObject@@@std@@@std@@YAPAPAVDisplayableObject@@QAPAV1@0PAPAV1@AAV?$allocator@PAVDisplayableObject@@@0@@Z 00400008     BouncingBallMain.obj
 0002:fffd5008       __ehfuncinfo$??$_Uninitialized_value_construct_n@V?$allocator@PAVDisplayableObject@@@std@@@std@@YAPAPAVDisplayableObject@@PAPAV1@IAAV?$allocator@PAVDisplayableObject@@@0@@Z 00400008     BouncingBallMain.obj
 0002:fffd5008       __ehfuncinfo$??0sentry@?$basic_ostream@DU?$char_traits@D@std@@@std@@QAE@AAV12@@Z 00400008     BouncingBallMain.obj
 0002:fffd5008       __ehfuncinfo$?_Orphan_range_locked@?$vector@PAVDisplayableObject@@V?$allocator@PAVDisplayableObject@@@std@@@std@@ABEXPAPAVDisplayableObject@@0@Z 00400008     BouncingBallMain.obj
 0002:fffd5008       __ehfuncinfo$??0sentry@?$basic_ostream@DU?$char_traits@D@std@@@std@@QAE@AAV12@@Z 00400008     DisplayableObject.obj
 0002:fffd5008       __ehfuncinfo$??0sentry@?$basic_ostream@DU?$char_traits@D@std@@@std@@QAE@AAV12@@Z 00400008     DrawingSurface.obj
 0002:fffd5008       __ehfuncinfo$??0sentry@?$basic_ostream@DU?$char_traits@D@std@@@std@@QAE@AAV12@@Z 00400008     FlashingDemo.obj
 0002:fffd5008       __ehfuncinfo$??$?0U?$pair@V?$basic_string@DU?$char_traits@D@std@@V?$allocator@D@2@@std@@V?$shared_ptr@VRawImageData@@@2@@std@@@?$_Tree_temp_node@V?$allocator@U?$_Tree_node@U?$pair@$$CBV?$basic_string@DU?$char_traits@D@std@@V?$allocator@D@2@@std@@V?$shared_ptr@VRawImageData@@@2@@std@@PAX@std@@@std@@@std@@QAE@AAV?$allocator@U?$_Tree_node@U?$pair@$$CBV?$basic_string@DU?$char_traits@D@std@@V?$allocator@D@2@@std@@V?$shared_ptr@VRawImageData@@@2@@std@@PAX@std@@@1@PAU?$_Tree_node@U?$pair@$$CBV?$basic_string@DU?$char_traits@D@std@@V?$allocator@D@2@@std@@V?$shared_ptr@VRawImageData@@@2@@std@@PAX@1@$$QAU?$pair@V?$basic_string@DU?$char_traits@D@std@@V?$allocator@D@2@@std@@V?$shared_ptr@VRawImageData@@@2@@1@@Z 00400008     ImageMappingDemo.obj
 0002:fffd5008       __ehfuncinfo$??$?0U?$pair@V?$basic_string@DU?$char_traits@D@std@@V?$allocator@D@2@@std@@V?$weak_ptr@VRawImageData@@@2@@std@@@?$_Tree_temp_node@V?$allocator@U?$_Tree_node@U?$pair@$$CBV?$basic_string@DU?$char_traits@D@std@@V?$allocator@D@2@@std@@V?$weak_ptr@VRawImageData@@@2@@std@@PAX@std@@@std@@@std@@QAE@AAV?$allocator@U?$_Tree_node@U?$pair@$$CBV?$basic_string@DU?$char_traits@D@std@@V?$allocator@D@2@@std@@V?$weak_ptr@VRawImageData@@@2@@std@@PAX@std@@@1@PAU?$_Tree_node@U?$pair@$$CBV?$basic_string@DU?$char_traits@D@std@@V?$allocator@D@2@@std@@V?$weak_ptr@VRawImageData@@@2@@std@@PAX@1@$$QAU?$pair@V?$basic_string@DU?$char_traits@D@std@@V?$allocator@D@2@@std@@V?$weak_ptr@VRawImageData@@@2@@1@@Z 00400008     ImageMappingDemo.obj
 0002:fffd5008       __ehfuncinfo$??$_Uninitialized_move@PAPAVDisplayableObject@@V?$allocator@PAVDisplayableObject@@@std@@@std@@YAPAPAVDisplayableObject@@QAPAV1@0PAPAV1@AAV?$allocator@PAVDisplayableObject@@@0@@Z 00400008     ImageMappingDemo.obj
 0002:fffd5008       __ehfuncinfo$??$_Uninitialized_value_construct_n@V?$allocator@PAVDisplayableObject@@@std@@@std@@YAPAPAVDisplayableObject@@PAPAV1@IAAV?$allocator@PAVDisplayableObject@@@0@@Z 00400008     ImageMappingDemo.obj
 0002:fffd5008       __ehfuncinfo$??0?$_Tree_temp_node_alloc@V?$allocator@U?$_Tree_node@U?$pair@$$CBV?$basic_string@DU?$char_traits@D@std@@V?$allocator@D@2@@std@@V?$shared_ptr@VRawImageData@@@2@@std@@PAX@std@@@std@@@std@@QAE@AAV?$allocator@U?$_Tree_node@U?$pair@$$CBV?$basic_string@DU?$char_traits@D@std@@V?$allocator@D@2@@std@@V?$shared_ptr@VRawImageData@@@2@@std@@PAX@std@@@1@@Z 00400008     ImageMappingDemo.obj
 0002:fffd5008       __ehfuncinfo$??0?$_Tree_temp_node_alloc@V?$allocator@U?$_Tree_node@U?$pair@$$CBV?$basic_string@DU?$char_traits@D@std@@V?$allocator@D@2@@std@@V?$weak_ptr@VRawImageData@@@2@@std@@PAX@std@@@std@@@std@@QAE@AAV?$allocator@U?$_Tree_node@U?$pair@$$CBV?$basic_string@DU?$char_traits@D@std@@V?$allocator@D@2@@std@@V?$weak_ptr@VRawImageData@@@2@@std@@PAX@std@@@1@@Z 00400008     ImageMappingDemo.obj
 0002:fffd5008       __ehfuncinfo$??0ImageManager@@QAE@XZ 00400008     ImageMappingDemo.obj
 0002:fffd5008       __ehfuncinfo$??0RawImageData@@QAE@V?$basic_string@DU?$char_traits@D@std@@V?$allocator@D@2@@std@@@Z 00400008     ImageMappingDemo.obj
 0002:fffd5008       __ehfuncinfo$??0sentry@?$basic_ostream@DU?$char_traits@D@std@@@std@@QAE@AAV12@@Z 00400008     ImageMappingDemo.obj
 0002:fffd5008       __ehfuncinfo$?_Alloc_sentinel_and_proxy@?$_Tree@V?$_Tmap_traits@V?$basic_string@DU?$char_traits@D@std@@V?$allocator@D@2@@std@@V?$shared_ptr@VRawImageData@@@2@U?$less@V?$basic_string@DU?$char_traits@D@std@@V?$allocator@D@2@@std@@@2@V?$allocator@U?$pair@$$CBV?$basic_string@DU?$char_traits@D@std@@V?$allocator@D@2@@std@@V?$shared_ptr@VRawImageData@@@2@@std@@@2@$0A@@std@@@std@@IAEXXZ 00400008     ImageMappingDemo.obj
 0002:fffd5008       __ehfuncinfo$?_Alloc_sentinel_and_proxy@?$_Tree@V?$_Tmap_traits@V?$basic_string@DU?$char_traits@D@std@@V?$allocator@D@2@@std@@V?$weak_ptr@VRawImageData@@@2@U?$less@V?$basic_string@DU?$char_traits@D@std@@V?$allocator@D@2@@std@@@2@V?$allocator@U?$pair@$$CBV?$basic_string@DU?$char_traits@D@std@@V?$allocator@D@2@@std@@V?$weak_ptr@VRawImageData@@@2@@std@@@2@$0A@@std@@@std@@IAEXXZ 00400008     ImageMappingDemo.obj
 0002:fffd5008       __ehfuncinfo$?_Orphan_range_locked@?$vector@PAVDisplayableObject@@V?$allocator@PAVDisplayableObject@@@std@@@std@@ABEXPAPAVDisplayableObject@@0@Z 00400008     ImageMappingDemo.obj
 0002:fffd5008       __ehfuncinfo$?get@ImageManager@@SAPAV1@XZ 00400008     ImageMappingDemo.obj
 0002:fffd5008       __ehfuncinfo$?getImagebyURL@ImageManager@@QAE?AVSimpleImage@@V?$basic_string@DU?$char_traits@D@std@@V?$allocator@D@2@@std@@_N1@Z 00400008     ImageMappingDemo.obj
 0002:fffd5008       __ehfuncinfo$?loadImage@RawImageData@@QAE_NV?$basic_string@DU?$char_traits@D@std@@V?$allocator@D@2@@std@@HHHHH_N@Z 00400008     ImageMappingDemo.obj
 0001:fffff008       __unwindfunclet$??$?0VRawImageData@@$0A@@?$shared_ptr@VRawImageData@@@std@@QAE@PAVRawImageData@@@Z$1 00400008 f   ImageMappingDemo.obj
 0001:fffff008       __unwindfunclet$??0?$basic_string@DU?$char_traits@D@std@@V?$allocator@D@2@@std@@QAE@ABV01@@Z$1 00400008 f   ImageMappingDemo.obj
 0001:fffff008       __unwindfunclet$??0?$basic_string@DU?$char_traits@D@std@@V?$allocator@D@2@@std@@QAE@QBD@Z$1 00400008 f   ImageMappingDemo.obj
 0001:fffff008       __unwindfunclet$??0DragableImageObject@@QAE@HHPAVBaseEngine@@V?$basic_string@DU?$char_traits@D@std@@V?$allocator@D@2@@std@@_N2@Z$1 00400008 f   ImageMappingDemo.obj
 0001:fffff008       __unwindfunclet$?getImagePtrbyURL@ImageManager@@QAE?AV?$shared_ptr@VRawImageData@@@std@@V?$basic_string@DU?$char_traits@D@std@@V?$allocator@D@2@@3@_N1@Z$1 00400008 f   ImageMappingDemo.obj
 0001:fffff008       __unwindfunclet$?loadAsNew@ImageManager@@QAE?AV?$shared_ptr@VRawImageData@@@std@@V?$basic_string@DU?$char_traits@D@std@@V?$allocator@D@2@@3@@Z$1 00400008 f   ImageMappingDemo.obj
 0002:fffd5008       __ehfuncinfo$??$_Uninitialized_move@PAPAVDisplayableObject@@V?$allocator@PAVDisplayableObject@@@std@@@std@@YAPAPAVDisplayableObject@@QAPAV1@0PAPAV1@AAV?$allocator@PAVDisplayableObject@@@0@@Z 00400008     MazeDemoMain.obj
 0002:fffd5008       __ehfuncinfo$??$_Uninitialized_value_construct_n@V?$allocator@PAVDisplayableObject@@@std@@@std@@YAPAPAVDisplayableObject@@PAPAV1@IAAV?$allocator@PAVDisplayableObject@@@0@@Z 00400008     MazeDemoMain.obj
 0002:fffd5008       __ehfuncinfo$?_Orphan_range_locked@?$vector@PAVDisplayableObject@@V?$allocator@PAVDisplayableObject@@@std@@@std@@ABEXPAPAVDisplayableObject@@0@Z 00400008     MazeDemoMain.obj
 0002:fffd5008       __ehfuncinfo$?setAllObjectsVisible@DisplayableObjectContainer@@QBEX_N@Z 00400008     MazeDemoMain.obj
 0002:fffd5008       __ehfuncinfo$??$?0U?$pair@V?$basic_string@DU?$char_traits@D@std@@V?$allocator@D@2@@std@@V?$shared_ptr@VRawImageData@@@2@@std@@@?$_Tree_temp_node@V?$allocator@U?$_Tree_node@U?$pair@$$CBV?$basic_string@DU?$char_traits@D@std@@V?$allocator@D@2@@std@@V?$shared_ptr@VRawImageData@@@2@@std@@PAX@std@@@std@@@std@@QAE@AAV?$allocator@U?$_Tree_node@U?$pair@$$CBV?$basic_string@DU?$char_traits@D@std@@V?$allocator@D@2@@std@@V?$shared_ptr@VRawImageData@@@2@@std@@PAX@std@@@1@PAU?$_Tree_node@U?$pair@$$CBV?$basic_string@DU?$char_traits@D@std@@V?$allocator@D@2@@std@@V?$shared_ptr@VRawImageData@@@2@@std@@PAX@1@$$QAU?$pair@V?$basic_string@DU?$char_traits@D@std@@V?$allocator@D@2@@std@@V?$shared_ptr@VRawImageData@@@2@@1@@Z 00400008     Psyjl16Engine.obj
 0002:fffd5008       __ehfuncinfo$??$?0U?$pair@V?$basic_string@DU?$char_traits@D@std@@V?$allocator@D@2@@std@@V?$weak_ptr@VRawImageData@@@2@@std@@@?$_Tree_temp_node@V?$allocator@U?$_Tree_node@U?$pair@$$CBV?$basic_string@DU?$char_traits@D@std@@V?$allocator@D@2@@std@@V?$weak_ptr@VRawImageData@@@2@@std@@PAX@std@@@std@@@std@@QAE@AAV?$allocator@U?$_Tree_node@U?$pair@$$CBV?$basic_string@DU?$char_traits@D@std@@V?$allocator@D@2@@std@@V?$weak_ptr@VRawImageData@@@2@@std@@PAX@std@@@1@PAU?$_Tree_node@U?$pair@$$CBV?$basic_string@DU?$char_traits@D@std@@V?$allocator@D@2@@std@@V?$weak_ptr@VRawImageData@@@2@@std@@PAX@1@$$QAU?$pair@V?$basic_string@DU?$char_traits@D@std@@V?$allocator@D@2@@std@@V?$weak_ptr@VRawImageData@@@2@@1@@Z 00400008     Psyjl16Engine.obj
 0002:fffd5008       __ehfuncinfo$??$_Uninitialized_move@PAPAVDisplayableObject@@V?$allocator@PAVDisplayableObject@@@std@@@std@@YAPAPAVDisplayableObject@@QAPAV1@0PAPAV1@AAV?$allocator@PAVDisplayableObject@@@0@@Z 00400008     Psyjl16Engine.obj
 0002:fffd5008       __ehfuncinfo$??$_Uninitialized_value_construct_n@V?$allocator@PAVDisplayableObject@@@std@@@std@@YAPAPAVDisplayableObject@@PAPAV1@IAAV?$allocator@PAVDisplayableObject@@@0@@Z 00400008     Psyjl16Engine.obj
 0002:fffd5008       __ehfuncinfo$??0?$_Tree_temp_node_alloc@V?$allocator@U?$_Tree_node@U?$pair@$$CBV?$basic_string@DU?$char_traits@D@std@@V?$allocator@D@2@@std@@V?$shared_ptr@VRawImageData@@@2@@std@@PAX@std@@@std@@@std@@QAE@AAV?$allocator@U?$_Tree_node@U?$pair@$$CBV?$basic_string@DU?$char_traits@D@std@@V?$allocator@D@2@@std@@V?$shared_ptr@VRawImageData@@@2@@std@@PAX@std@@@1@@Z 00400008     Psyjl16Engine.obj
 0002:fffd5008       __ehfuncinfo$??0?$_Tree_temp_node_alloc@V?$allocator@U?$_Tree_node@U?$pair@$$CBV?$basic_string@DU?$char_traits@D@std@@V?$allocator@D@2@@std@@V?$weak_ptr@VRawImageData@@@2@@std@@PAX@std@@@std@@@std@@QAE@AAV?$allocator@U?$_Tree_node@U?$pair@$$CBV?$basic_string@DU?$char_traits@D@std@@V?$allocator@D@2@@std@@V?$weak_ptr@VRawImageData@@@2@@std@@PAX@std@@@1@@Z 00400008     Psyjl16Engine.obj
 0002:fffd5008       __ehfuncinfo$??0ImageManager@@QAE@XZ 00400008     Psyjl16Engine.obj
 0002:fffd5008       __ehfuncinfo$??0RawImageData@@QAE@V?$basic_string@DU?$char_traits@D@std@@V?$allocator@D@2@@std@@@Z 00400008     Psyjl16Engine.obj
 0002:fffd5008       __ehfuncinfo$??0sentry@?$basic_ostream@DU?$char_traits@D@std@@@std@@QAE@AAV12@@Z 00400008     Psyjl16Engine.obj
 0002:fffd5008       __ehfuncinfo$?_Alloc_sentinel_and_proxy@?$_Tree@V?$_Tmap_traits@V?$basic_string@DU?$char_traits@D@std@@V?$allocator@D@2@@std@@V?$shared_ptr@VRawImageData@@@2@U?$less@V?$basic_string@DU?$char_traits@D@std@@V?$allocator@D@2@@std@@@2@V?$allocator@U?$pair@$$CBV?$basic_string@DU?$char_traits@D@std@@V?$allocator@D@2@@std@@V?$shared_ptr@VRawImageData@@@2@@std@@@2@$0A@@std@@@std@@IAEXXZ 00400008     Psyjl16Engine.obj
 0002:fffd5008       __ehfuncinfo$?_Alloc_sentinel_and_proxy@?$_Tree@V?$_Tmap_traits@V?$basic_string@DU?$char_traits@D@std@@V?$allocator@D@2@@std@@V?$weak_ptr@VRawImageData@@@2@U?$less@V?$basic_string@DU?$char_traits@D@std@@V?$allocator@D@2@@std@@@2@V?$allocator@U?$pair@$$CBV?$basic_string@DU?$char_traits@D@std@@V?$allocator@D@2@@std@@V?$weak_ptr@VRawImageData@@@2@@std@@@2@$0A@@std@@@std@@IAEXXZ 00400008     Psyjl16Engine.obj
 0002:fffd5008       __ehfuncinfo$?_Orphan_range_locked@?$vector@PAVDisplayableObject@@V?$allocator@PAVDisplayableObject@@@std@@@std@@ABEXPAPAVDisplayableObject@@0@Z 00400008     Psyjl16Engine.obj
 0002:fffd5008       __ehfuncinfo$?get@ImageManager@@SAPAV1@XZ 00400008     Psyjl16Engine.obj
 0002:fffd5008       __ehfuncinfo$?getImagebyURL@ImageManager@@QAE?AVSimpleImage@@V?$basic_string@DU?$char_traits@D@std@@V?$allocator@D@2@@std@@_N1@Z 00400008     Psyjl16Engine.obj
 0002:fffd5008       __ehfuncinfo$?loadImage@RawImageData@@QAE_NV?$basic_string@DU?$char_traits@D@std@@V?$allocator@D@2@@std@@HHHHH_N@Z 00400008     Psyjl16Engine.obj
 0001:fffff008       __unwindfunclet$??$?0VRawImageData@@$0A@@?$shared_ptr@VRawImageData@@@std@@QAE@PAVRawImageData@@@Z$1 00400008 f   Psyjl16Engine.obj
 0001:fffff008       __unwindfunclet$??0?$basic_string@DU?$char_traits@D@std@@V?$allocator@D@2@@std@@QAE@ABV01@@Z$1 00400008 f   Psyjl16Engine.obj
 0001:fffff008       __unwindfunclet$??0?$basic_string@DU?$char_traits@D@std@@V?$allocator@D@2@@std@@QAE@QBD@Z$1 00400008 f   Psyjl16Engine.obj
 0001:fffff008       __unwindfunclet$?getImagePtrbyURL@ImageManager@@QAE?AV?$shared_ptr@VRawImageData@@@std@@V?$basic_string@DU?$char_traits@D@std@@V?$allocator@D@2@@3@_N1@Z$1 00400008 f   Psyjl16Engine.obj
 0001:fffff008       __unwindfunclet$?loadAsNew@ImageManager@@QAE?AV?$shared_ptr@VRawImageData@@@std@@V?$basic_string@DU?$char_traits@D@std@@V?$allocator@D@2@@3@@Z$1 00400008 f   Psyjl16Engine.obj
 0002:fffd5008       __ehfuncinfo$??$_Uninitialized_move@PAPAVDisplayableObject@@V?$allocator@PAVDisplayableObject@@@std@@@std@@YAPAPAVDisplayableObject@@QAPAV1@0PAPAV1@AAV?$allocator@PAVDisplayableObject@@@0@@Z 00400008     SimpleDemo.obj
 0002:fffd5008       __ehfuncinfo$??$_Uninitialized_value_construct_n@V?$allocator@PAVDisplayableObject@@@std@@@std@@YAPAPAVDisplayableObject@@PAPAV1@IAAV?$allocator@PAVDisplayableObject@@@0@@Z 00400008     SimpleDemo.obj
 0002:fffd5008       __ehfuncinfo$??0sentry@?$basic_ostream@DU?$char_traits@D@std@@@std@@QAE@AAV12@@Z 00400008     SimpleDemo.obj
 0002:fffd5008       __ehfuncinfo$?_Orphan_range_locked@?$vector@PAVDisplayableObject@@V?$allocator@PAVDisplayableObject@@@std@@@std@@ABEXPAPAVDisplayableObject@@0@Z 00400008     SimpleDemo.obj
 0002:fffd5008       __ehfuncinfo$??0sentry@?$basic_ostream@DU?$char_traits@D@std@@@std@@QAE@AAV12@@Z 00400008     SimpleImage.obj
 0002:fffd5008       __ehfuncinfo$??0sentry@?$basic_ostream@DU?$char_traits@D@std@@@std@@QAE@AAV12@@Z 00400008     StarfieldDemo.obj
 0002:fffd5008       __ehfuncinfo$??$?0U?$pair@V?$basic_string@DU?$char_traits@D@std@@V?$allocator@D@2@@std@@V?$shared_ptr@VRawImageData@@@2@@std@@@?$_Tree_temp_node@V?$allocator@U?$_Tree_node@U?$pair@$$CBV?$basic_string@DU?$char_traits@D@std@@V?$allocator@D@2@@std@@V?$shared_ptr@VRawImageData@@@2@@std@@PAX@std@@@std@@@std@@QAE@AAV?$allocator@U?$_Tree_node@U?$pair@$$CBV?$basic_string@DU?$char_traits@D@std@@V?$allocator@D@2@@std@@V?$shared_ptr@VRawImageData@@@2@@std@@PAX@std@@@1@PAU?$_Tree_node@U?$pair@$$CBV?$basic_string@DU?$char_traits@D@std@@V?$allocator@D@2@@std@@V?$shared_ptr@VRawImageData@@@2@@std@@PAX@1@$$QAU?$pair@V?$basic_string@DU?$char_traits@D@std@@V?$allocator@D@2@@std@@V?$shared_ptr@VRawImageData@@@2@@1@@Z 00400008     ZoomingDemo.obj
 0002:fffd5008       __ehfuncinfo$??$?0U?$pair@V?$basic_string@DU?$char_traits@D@std@@V?$allocator@D@2@@std@@V?$weak_ptr@VRawImageData@@@2@@std@@@?$_Tree_temp_node@V?$allocator@U?$_Tree_node@U?$pair@$$CBV?$basic_string@DU?$char_traits@D@std@@V?$allocator@D@2@@std@@V?$weak_ptr@VRawImageData@@@2@@std@@PAX@std@@@std@@@std@@QAE@AAV?$allocator@U?$_Tree_node@U?$pair@$$CBV?$basic_string@DU?$char_traits@D@std@@V?$allocator@D@2@@std@@V?$weak_ptr@VRawImageData@@@2@@std@@PAX@std@@@1@PAU?$_Tree_node@U?$pair@$$CBV?$basic_string@DU?$char_traits@D@std@@V?$allocator@D@2@@std@@V?$weak_ptr@VRawImageData@@@2@@std@@PAX@1@$$QAU?$pair@V?$basic_string@DU?$char_traits@D@std@@V?$allocator@D@2@@std@@V?$weak_ptr@VRawImageData@@@2@@1@@Z 00400008     ZoomingDemo.obj
 0002:fffd5008       __ehfuncinfo$??$_Uninitialized_move@PAPAVDisplayableObject@@V?$allocator@PAVDisplayableObject@@@std@@@std@@YAPAPAVDisplayableObject@@QAPAV1@0PAPAV1@AAV?$allocator@PAVDisplayableObject@@@0@@Z 00400008     ZoomingDemo.obj
 0002:fffd5008       __ehfuncinfo$??$_Uninitialized_value_construct_n@V?$allocator@PAVDisplayableObject@@@std@@@std@@YAPAPAVDisplayableObject@@PAPAV1@IAAV?$allocator@PAVDisplayableObject@@@0@@Z 00400008     ZoomingDemo.obj
 0002:fffd5008       __ehfuncinfo$??0?$_Tree_temp_node_alloc@V?$allocator@U?$_Tree_node@U?$pair@$$CBV?$basic_string@DU?$char_traits@D@std@@V?$allocator@D@2@@std@@V?$shared_ptr@VRawImageData@@@2@@std@@PAX@std@@@std@@@std@@QAE@AAV?$allocator@U?$_Tree_node@U?$pair@$$CBV?$basic_string@DU?$char_traits@D@std@@V?$allocator@D@2@@std@@V?$shared_ptr@VRawImageData@@@2@@std@@PAX@std@@@1@@Z 00400008     ZoomingDemo.obj
 0002:fffd5008       __ehfuncinfo$??0?$_Tree_temp_node_alloc@V?$allocator@U?$_Tree_node@U?$pair@$$CBV?$basic_string@DU?$char_traits@D@std@@V?$allocator@D@2@@std@@V?$weak_ptr@VRawImageData@@@2@@std@@PAX@std@@@std@@@std@@QAE@AAV?$allocator@U?$_Tree_node@U?$pair@$$CBV?$basic_string@DU?$char_traits@D@std@@V?$allocator@D@2@@std@@V?$weak_ptr@VRawImageData@@@2@@std@@PAX@std@@@1@@Z 00400008     ZoomingDemo.obj
 0002:fffd5008       __ehfuncinfo$??0DragableObject@@QAE@HHPAVBaseEngine@@HH_N1@Z 00400008     ZoomingDemo.obj
 0002:fffd5008       __ehfuncinfo$??0ImageManager@@QAE@XZ 00400008     ZoomingDemo.obj
 0002:fffd5008       __ehfuncinfo$??0RawImageData@@QAE@V?$basic_string@DU?$char_traits@D@std@@V?$allocator@D@2@@std@@@Z 00400008     ZoomingDemo.obj
 0002:fffd5008       __ehfuncinfo$??0sentry@?$basic_ostream@DU?$char_traits@D@std@@@std@@QAE@AAV12@@Z 00400008     ZoomingDemo.obj
 0002:fffd5008       __ehfuncinfo$?_Alloc_sentinel_and_proxy@?$_Tree@V?$_Tmap_traits@V?$basic_string@DU?$char_traits@D@std@@V?$allocator@D@2@@std@@V?$shared_ptr@VRawImageData@@@2@U?$less@V?$basic_string@DU?$char_traits@D@std@@V?$allocator@D@2@@std@@@2@V?$allocator@U?$pair@$$CBV?$basic_string@DU?$char_traits@D@std@@V?$allocator@D@2@@std@@V?$shared_ptr@VRawImageData@@@2@@std@@@2@$0A@@std@@@std@@IAEXXZ 00400008     ZoomingDemo.obj
 0002:fffd5008       __ehfuncinfo$?_Alloc_sentinel_and_proxy@?$_Tree@V?$_Tmap_traits@V?$basic_string@DU?$char_traits@D@std@@V?$allocator@D@2@@std@@V?$weak_ptr@VRawImageData@@@2@U?$less@V?$basic_string@DU?$char_traits@D@std@@V?$allocator@D@2@@std@@@2@V?$allocator@U?$pair@$$CBV?$basic_string@DU?$char_traits@D@std@@V?$allocator@D@2@@std@@V?$weak_ptr@VRawImageData@@@2@@std@@@2@$0A@@std@@@std@@IAEXXZ 00400008     ZoomingDemo.obj
 0002:fffd5008       __ehfuncinfo$?_Orphan_range_locked@?$vector@PAVDisplayableObject@@V?$allocator@PAVDisplayableObject@@@std@@@std@@ABEXPAPAVDisplayableObject@@0@Z 00400008     ZoomingDemo.obj
 0002:fffd5008       __ehfuncinfo$?get@ImageManager@@SAPAV1@XZ 00400008     ZoomingDemo.obj
 0002:fffd5008       __ehfuncinfo$?getImagebyURL@ImageManager@@QAE?AVSimpleImage@@V?$basic_string@DU?$char_traits@D@std@@V?$allocator@D@2@@std@@_N1@Z 00400008     ZoomingDemo.obj
 0002:fffd5008       __ehfuncinfo$?loadImage@RawImageData@@QAE_NV?$basic_string@DU?$char_traits@D@std@@V?$allocator@D@2@@std@@HHHHH_N@Z 00400008     ZoomingDemo.obj
 0001:fffff008       __unwindfunclet$??$?0VRawImageData@@$0A@@?$shared_ptr@VRawImageData@@@std@@QAE@PAVRawImageData@@@Z$1 00400008 f   ZoomingDemo.obj
 0001:fffff008       __unwindfunclet$??0?$basic_string@DU?$char_traits@D@std@@V?$allocator@D@2@@std@@QAE@ABV01@@Z$1 00400008 f   ZoomingDemo.obj
 0001:fffff008       __unwindfunclet$??0?$basic_string@DU?$char_traits@D@std@@V?$allocator@D@2@@std@@QAE@QBD@Z$1 00400008 f   ZoomingDemo.obj
 0001:fffff008       __unwindfunclet$??0DragableImageObject@@QAE@HHPAVBaseEngine@@V?$basic_string@DU?$char_traits@D@std@@V?$allocator@D@2@@std@@_N2@Z$1 00400008 f   ZoomingDemo.obj
 0001:fffff008       __unwindfunclet$?getImagePtrbyURL@ImageManager@@QAE?AV?$shared_ptr@VRawImageData@@@std@@V?$basic_string@DU?$char_traits@D@std@@V?$allocator@D@2@@3@_N1@Z$1 00400008 f   ZoomingDemo.obj
 0001:fffff008       __unwindfunclet$?loadAsNew@ImageManager@@QAE?AV?$shared_ptr@VRawImageData@@@std@@V?$basic_string@DU?$char_traits@D@std@@V?$allocator@D@2@@3@@Z$1 00400008 f   ZoomingDemo.obj
 0000:fffc3008       __guard_fids__             00400008     MSVCRTD:exe_main.obj
 0000:fffc300c       _volmd                     0040000c     BaseEngine.obj
 0000:fffc300c       _volmd                     0040000c     BouncingBall.obj
 0000:fffc300c       _volmd                     0040000c     MazeDemoMain.obj
 0000:fffc300c       _volmd                     0040000c     Psyjl16Engine.obj
 0000:fffc300c       _volmd                     0040000c     SimpleDemo.obj
 0000:fffc300c       _volmd                     0040000c     ZoomingDemo.obj
 0001:fffff00d       __ehhandler$??$_Uninitialized_value_construct_n@V?$allocator@PAVDisplayableObject@@@std@@@std@@YAPAPAVDisplayableObject@@PAPAV1@IAAV?$allocator@PAVDisplayableObject@@@0@@Z 0040000d f   BaseEngine.obj
 0001:fffff00d       __ehhandler$??$?6U?$char_traits@D@std@@@std@@YAAAV?$basic_ostream@DU?$char_traits@D@std@@@0@AAV10@PBD@Z 0040000d f   BouncingBall.obj
 0001:fffff00d       __ehhandler$??0sentry@?$basic_ostream@DU?$char_traits@D@std@@@std@@QAE@AAV12@@Z 0040000d f   BouncingBall.obj
 0001:fffff00d       __ehhandler$??$?6U?$char_traits@D@std@@@std@@YAAAV?$basic_ostream@DU?$char_traits@D@std@@@0@AAV10@PBD@Z 0040000d f   BouncingBallMain.obj
 0001:fffff00d       __ehhandler$??$_Uninitialized_move@PAPAVDisplayableObject@@V?$allocator@PAVDisplayableObject@@@std@@@std@@YAPAPAVDisplayableObject@@QAPAV1@0PAPAV1@AAV?$allocator@PAVDisplayableObject@@@0@@Z 0040000d f   BouncingBallMain.obj
 0001:fffff00d       __ehhandler$??$_Uninitialized_value_construct_n@V?$allocator@PAVDisplayableObject@@@std@@@std@@YAPAPAVDisplayableObject@@PAPAV1@IAAV?$allocator@PAVDisplayableObject@@@0@@Z 0040000d f   BouncingBallMain.obj
 0001:fffff00d       __ehhandler$??0sentry@?$basic_ostream@DU?$char_traits@D@std@@@std@@QAE@AAV12@@Z 0040000d f   BouncingBallMain.obj
 0001:fffff00d       __ehhandler$??$?6U?$char_traits@D@std@@@std@@YAAAV?$basic_ostream@DU?$char_traits@D@std@@@0@AAV10@PBD@Z 0040000d f   DisplayableObject.obj
 0001:fffff00d       __ehhandler$??0sentry@?$basic_ostream@DU?$char_traits@D@std@@@std@@QAE@AAV12@@Z 0040000d f   DisplayableObject.obj
 0001:fffff00d       __ehhandler$??$?6U?$char_traits@D@std@@@std@@YAAAV?$basic_ostream@DU?$char_traits@D@std@@@0@AAV10@PBD@Z 0040000d f   DrawingSurface.obj
 0001:fffff00d       __ehhandler$??0sentry@?$basic_ostream@DU?$char_traits@D@std@@@std@@QAE@AAV12@@Z 0040000d f   DrawingSurface.obj
 0001:fffff00d       __ehhandler$??$?6U?$char_traits@D@std@@@std@@YAAAV?$basic_ostream@DU?$char_traits@D@std@@@0@AAV10@PBD@Z 0040000d f   FlashingDemo.obj
 0001:fffff00d       __ehhandler$??0sentry@?$basic_ostream@DU?$char_traits@D@std@@@std@@QAE@AAV12@@Z 0040000d f   FlashingDemo.obj
 0001:fffff00d       __ehhandler$??$?0U?$pair@V?$basic_string@DU?$char_traits@D@std@@V?$allocator@D@2@@std@@V?$shared_ptr@VRawImageData@@@2@@std@@@?$_Tree_temp_node@V?$allocator@U?$_Tree_node@U?$pair@$$CBV?$basic_string@DU?$char_traits@D@std@@V?$allocator@D@2@@std@@V?$shared_ptr@VRawImageData@@@2@@std@@PAX@std@@@std@@@std@@QAE@AAV?$allocator@U?$_Tree_node@U?$pair@$$CBV?$basic_string@DU?$char_traits@D@std@@V?$allocator@D@2@@std@@V?$shared_ptr@VRawImageData@@@2@@std@@PAX@std@@@1@PAU?$_Tree_node@U?$pair@$$CBV?$basic_string@DU?$char_traits@D@std@@V?$allocator@D@2@@std@@V?$shared_ptr@VRawImageData@@@2@@std@@PAX@1@$$QAU?$pair@V?$basic_string@DU?$char_traits@D@std@@V?$allocator@D@2@@std@@V?$shared_ptr@VRawImageData@@@2@@1@@Z 0040000d f   ImageMappingDemo.obj
 0001:fffff00d       __ehhandler$??$?0U?$pair@V?$basic_string@DU?$char_traits@D@std@@V?$allocator@D@2@@std@@V?$weak_ptr@VRawImageData@@@2@@std@@@?$_Tree_temp_node@V?$allocator@U?$_Tree_node@U?$pair@$$CBV?$basic_string@DU?$char_traits@D@std@@V?$allocator@D@2@@std@@V?$weak_ptr@VRawImageData@@@2@@std@@PAX@std@@@std@@@std@@QAE@AAV?$allocator@U?$_Tree_node@U?$pair@$$CBV?$basic_string@DU?$char_traits@D@std@@V?$allocator@D@2@@std@@V?$weak_ptr@VRawImageData@@@2@@std@@PAX@std@@@1@PAU?$_Tree_node@U?$pair@$$CBV?$basic_string@DU?$char_traits@D@std@@V?$allocator@D@2@@std@@V?$weak_ptr@VRawImageData@@@2@@std@@PAX@1@$$QAU?$pair@V?$basic_string@DU?$char_traits@D@std@@V?$allocator@D@2@@std@@V?$weak_ptr@VRawImageData@@@2@@1@@Z 0040000d f   ImageMappingDemo.obj
 0001:fffff00d       __ehhandler$??$?6U?$char_traits@D@std@@@std@@YAAAV?$basic_ostream@DU?$char_traits@D@std@@@0@AAV10@PBD@Z 0040000d f   ImageMappingDemo.obj
 0001:fffff00d       __ehhandler$??$_Insert_string@DU?$char_traits@D@std@@I@std@@YAAAV?$basic_ostream@DU?$char_traits@D@std@@@0@AAV10@QBDI@Z 0040000d f   ImageMappingDemo.obj
 0001:fffff00d       __ehhandler$??$_Uninitialized_move@PAPAVDisplayableObject@@V?$allocator@PAVDisplayableObject@@@std@@@std@@YAPAPAVDisplayableObject@@QAPAV1@0PAPAV1@AAV?$allocator@PAVDisplayableObject@@@0@@Z 0040000d f   ImageMappingDemo.obj
 0001:fffff00d       __ehhandler$??$_Uninitialized_value_construct_n@V?$allocator@PAVDisplayableObject@@@std@@@std@@YAPAPAVDisplayableObject@@PAPAV1@IAAV?$allocator@PAVDisplayableObject@@@0@@Z 0040000d f   ImageMappingDemo.obj
 0001:fffff00d       __ehhandler$??0?$_Tree_temp_node_alloc@V?$allocator@U?$_Tree_node@U?$pair@$$CBV?$basic_string@DU?$char_traits@D@std@@V?$allocator@D@2@@std@@V?$shared_ptr@VRawImageData@@@2@@std@@PAX@std@@@std@@@std@@QAE@AAV?$allocator@U?$_Tree_node@U?$pair@$$CBV?$basic_string@DU?$char_traits@D@std@@V?$allocator@D@2@@std@@V?$shared_ptr@VRawImageData@@@2@@std@@PAX@std@@@1@@Z 0040000d f   ImageMappingDemo.obj
 0001:fffff00d       __ehhandler$??0?$_Tree_temp_node_alloc@V?$allocator@U?$_Tree_node@U?$pair@$$CBV?$basic_string@DU?$char_traits@D@std@@V?$allocator@D@2@@std@@V?$weak_ptr@VRawImageData@@@2@@std@@PAX@std@@@std@@@std@@QAE@AAV?$allocator@U?$_Tree_node@U?$pair@$$CBV?$basic_string@DU?$char_traits@D@std@@V?$allocator@D@2@@std@@V?$weak_ptr@VRawImageData@@@2@@std@@PAX@std@@@1@@Z 0040000d f   ImageMappingDemo.obj
 0001:fffff00d       __ehhandler$??0ImageManager@@QAE@XZ 0040000d f   ImageMappingDemo.obj
 0001:fffff00d       __ehhandler$??0RawImageData@@QAE@V?$basic_string@DU?$char_traits@D@std@@V?$allocator@D@2@@std@@@Z 0040000d f   ImageMappingDemo.obj
 0001:fffff00d       __ehhandler$??0sentry@?$basic_ostream@DU?$char_traits@D@std@@@std@@QAE@AAV12@@Z 0040000d f   ImageMappingDemo.obj
 0001:fffff00d       __ehhandler$?_Alloc_sentinel_and_proxy@?$_Tree@V?$_Tmap_traits@V?$basic_string@DU?$char_traits@D@std@@V?$allocator@D@2@@std@@V?$shared_ptr@VRawImageData@@@2@U?$less@V?$basic_string@DU?$char_traits@D@std@@V?$allocator@D@2@@std@@@2@V?$allocator@U?$pair@$$CBV?$basic_string@DU?$char_traits@D@std@@V?$allocator@D@2@@std@@V?$shared_ptr@VRawImageData@@@2@@std@@@2@$0A@@std@@@std@@IAEXXZ 0040000d f   ImageMappingDemo.obj
 0001:fffff00d       __ehhandler$?_Alloc_sentinel_and_proxy@?$_Tree@V?$_Tmap_traits@V?$basic_string@DU?$char_traits@D@std@@V?$allocator@D@2@@std@@V?$weak_ptr@VRawImageData@@@2@U?$less@V?$basic_string@DU?$char_traits@D@std@@V?$allocator@D@2@@std@@@2@V?$allocator@U?$pair@$$CBV?$basic_string@DU?$char_traits@D@std@@V?$allocator@D@2@@std@@V?$weak_ptr@VRawImageData@@@2@@std@@@2@$0A@@std@@@std@@IAEXXZ 0040000d f   ImageMappingDemo.obj
 0001:fffff00d       __ehhandler$?getImagebyURL@ImageManager@@QAE?AVSimpleImage@@V?$basic_string@DU?$char_traits@D@std@@V?$allocator@D@2@@std@@_N1@Z 0040000d f   ImageMappingDemo.obj
 0001:fffff00d       __ehhandler$?loadImage@RawImageData@@QAE_NV?$basic_string@DU?$char_traits@D@std@@V?$allocator@D@2@@std@@HHHHH_N@Z 0040000d f   ImageMappingDemo.obj
 0001:fffff00d       __ehhandler$??$_Uninitialized_move@PAPAVDisplayableObject@@V?$allocator@PAVDisplayableObject@@@std@@@std@@YAPAPAVDisplayableObject@@QAPAV1@0PAPAV1@AAV?$allocator@PAVDisplayableObject@@@0@@Z 0040000d f   MazeDemoMain.obj
 0001:fffff00d       __ehhandler$??$_Uninitialized_value_construct_n@V?$allocator@PAVDisplayableObject@@@std@@@std@@YAPAPAVDisplayableObject@@PAPAV1@IAAV?$allocator@PAVDisplayableObject@@@0@@Z 0040000d f   MazeDemoMain.obj
 0001:fffff00d       __ehhandler$?setAllObjectsVisible@DisplayableObjectContainer@@QBEX_N@Z 0040000d f   MazeDemoMain.obj
 0001:fffff00d       __ehhandler$??$?0U?$pair@V?$basic_string@DU?$char_traits@D@std@@V?$allocator@D@2@@std@@V?$shared_ptr@VRawImageData@@@2@@std@@@?$_Tree_temp_node@V?$allocator@U?$_Tree_node@U?$pair@$$CBV?$basic_string@DU?$char_traits@D@std@@V?$allocator@D@2@@std@@V?$shared_ptr@VRawImageData@@@2@@std@@PAX@std@@@std@@@std@@QAE@AAV?$allocator@U?$_Tree_node@U?$pair@$$CBV?$basic_string@DU?$char_traits@D@std@@V?$allocator@D@2@@std@@V?$shared_ptr@VRawImageData@@@2@@std@@PAX@std@@@1@PAU?$_Tree_node@U?$pair@$$CBV?$basic_string@DU?$char_traits@D@std@@V?$allocator@D@2@@std@@V?$shared_ptr@VRawImageData@@@2@@std@@PAX@1@$$QAU?$pair@V?$basic_string@DU?$char_traits@D@std@@V?$allocator@D@2@@std@@V?$shared_ptr@VRawImageData@@@2@@1@@Z 0040000d f   Psyjl16Engine.obj
 0001:fffff00d       __ehhandler$??$?0U?$pair@V?$basic_string@DU?$char_traits@D@std@@V?$allocator@D@2@@std@@V?$weak_ptr@VRawImageData@@@2@@std@@@?$_Tree_temp_node@V?$allocator@U?$_Tree_node@U?$pair@$$CBV?$basic_string@DU?$char_traits@D@std@@V?$allocator@D@2@@std@@V?$weak_ptr@VRawImageData@@@2@@std@@PAX@std@@@std@@@std@@QAE@AAV?$allocator@U?$_Tree_node@U?$pair@$$CBV?$basic_string@DU?$char_traits@D@std@@V?$allocator@D@2@@std@@V?$weak_ptr@VRawImageData@@@2@@std@@PAX@std@@@1@PAU?$_Tree_node@U?$pair@$$CBV?$basic_string@DU?$char_traits@D@std@@V?$allocator@D@2@@std@@V?$weak_ptr@VRawImageData@@@2@@std@@PAX@1@$$QAU?$pair@V?$basic_string@DU?$char_traits@D@std@@V?$allocator@D@2@@std@@V?$weak_ptr@VRawImageData@@@2@@1@@Z 0040000d f   Psyjl16Engine.obj
 0001:fffff00d       __ehhandler$??$?6U?$char_traits@D@std@@@std@@YAAAV?$basic_ostream@DU?$char_traits@D@std@@@0@AAV10@PBD@Z 0040000d f   Psyjl16Engine.obj
 0001:fffff00d       __ehhandler$??$_Insert_string@DU?$char_traits@D@std@@I@std@@YAAAV?$basic_ostream@DU?$char_traits@D@std@@@0@AAV10@QBDI@Z 0040000d f   Psyjl16Engine.obj
 0001:fffff00d       __ehhandler$??$_Uninitialized_move@PAPAVDisplayableObject@@V?$allocator@PAVDisplayableObject@@@std@@@std@@YAPAPAVDisplayableObject@@QAPAV1@0PAPAV1@AAV?$allocator@PAVDisplayableObject@@@0@@Z 0040000d f   Psyjl16Engine.obj
 0001:fffff00d       __ehhandler$??$_Uninitialized_value_construct_n@V?$allocator@PAVDisplayableObject@@@std@@@std@@YAPAPAVDisplayableObject@@PAPAV1@IAAV?$allocator@PAVDisplayableObject@@@0@@Z 0040000d f   Psyjl16Engine.obj
 0001:fffff00d       __ehhandler$??0?$_Tree_temp_node_alloc@V?$allocator@U?$_Tree_node@U?$pair@$$CBV?$basic_string@DU?$char_traits@D@std@@V?$allocator@D@2@@std@@V?$shared_ptr@VRawImageData@@@2@@std@@PAX@std@@@std@@@std@@QAE@AAV?$allocator@U?$_Tree_node@U?$pair@$$CBV?$basic_string@DU?$char_traits@D@std@@V?$allocator@D@2@@std@@V?$shared_ptr@VRawImageData@@@2@@std@@PAX@std@@@1@@Z 0040000d f   Psyjl16Engine.obj
 0001:fffff00d       __ehhandler$??0?$_Tree_temp_node_alloc@V?$allocator@U?$_Tree_node@U?$pair@$$CBV?$basic_string@DU?$char_traits@D@std@@V?$allocator@D@2@@std@@V?$weak_ptr@VRawImageData@@@2@@std@@PAX@std@@@std@@@std@@QAE@AAV?$allocator@U?$_Tree_node@U?$pair@$$CBV?$basic_string@DU?$char_traits@D@std@@V?$allocator@D@2@@std@@V?$weak_ptr@VRawImageData@@@2@@std@@PAX@std@@@1@@Z 0040000d f   Psyjl16Engine.obj
 0001:fffff00d       __ehhandler$??0ImageManager@@QAE@XZ 0040000d f   Psyjl16Engine.obj
 0001:fffff00d       __ehhandler$??0RawImageData@@QAE@V?$basic_string@DU?$char_traits@D@std@@V?$allocator@D@2@@std@@@Z 0040000d f   Psyjl16Engine.obj
 0001:fffff00d       __ehhandler$??0sentry@?$basic_ostream@DU?$char_traits@D@std@@@std@@QAE@AAV12@@Z 0040000d f   Psyjl16Engine.obj
 0001:fffff00d       __ehhandler$?_Alloc_sentinel_and_proxy@?$_Tree@V?$_Tmap_traits@V?$basic_string@DU?$char_traits@D@std@@V?$allocator@D@2@@std@@V?$shared_ptr@VRawImageData@@@2@U?$less@V?$basic_string@DU?$char_traits@D@std@@V?$allocator@D@2@@std@@@2@V?$allocator@U?$pair@$$CBV?$basic_string@DU?$char_traits@D@std@@V?$allocator@D@2@@std@@V?$shared_ptr@VRawImageData@@@2@@std@@@2@$0A@@std@@@std@@IAEXXZ 0040000d f   Psyjl16Engine.obj
 0001:fffff00d       __ehhandler$?_Alloc_sentinel_and_proxy@?$_Tree@V?$_Tmap_traits@V?$basic_string@DU?$char_traits@D@std@@V?$allocator@D@2@@std@@V?$weak_ptr@VRawImageData@@@2@U?$less@V?$basic_string@DU?$char_traits@D@std@@V?$allocator@D@2@@std@@@2@V?$allocator@U?$pair@$$CBV?$basic_string@DU?$char_traits@D@std@@V?$allocator@D@2@@std@@V?$weak_ptr@VRawImageData@@@2@@std@@@2@$0A@@std@@@std@@IAEXXZ 0040000d f   Psyjl16Engine.obj
 0001:fffff00d       __ehhandler$?getImagebyURL@ImageManager@@QAE?AVSimpleImage@@V?$basic_string@DU?$char_traits@D@std@@V?$allocator@D@2@@std@@_N1@Z 0040000d f   Psyjl16Engine.obj
 0001:fffff00d       __ehhandler$?loadImage@RawImageData@@QAE_NV?$basic_string@DU?$char_traits@D@std@@V?$allocator@D@2@@std@@HHHHH_N@Z 0040000d f   Psyjl16Engine.obj
 0001:fffff00d       __ehhandler$??$?6U?$char_traits@D@std@@@std@@YAAAV?$basic_ostream@DU?$char_traits@D@std@@@0@AAV10@PBD@Z 0040000d f   SimpleDemo.obj
 0001:fffff00d       __ehhandler$??$_Uninitialized_move@PAPAVDisplayableObject@@V?$allocator@PAVDisplayableObject@@@std@@@std@@YAPAPAVDisplayableObject@@QAPAV1@0PAPAV1@AAV?$allocator@PAVDisplayableObject@@@0@@Z 0040000d f   SimpleDemo.obj
 0001:fffff00d       __ehhandler$??$_Uninitialized_value_construct_n@V?$allocator@PAVDisplayableObject@@@std@@@std@@YAPAPAVDisplayableObject@@PAPAV1@IAAV?$allocator@PAVDisplayableObject@@@0@@Z 0040000d f   SimpleDemo.obj
 0001:fffff00d       __ehhandler$??0sentry@?$basic_ostream@DU?$char_traits@D@std@@@std@@QAE@AAV12@@Z 0040000d f   SimpleDemo.obj
 0001:fffff00d       __ehhandler$??$?6U?$char_traits@D@std@@@std@@YAAAV?$basic_ostream@DU?$char_traits@D@std@@@0@AAV10@PBD@Z 0040000d f   SimpleImage.obj
 0001:fffff00d       __ehhandler$??0sentry@?$basic_ostream@DU?$char_traits@D@std@@@std@@QAE@AAV12@@Z 0040000d f   SimpleImage.obj
 0001:fffff00d       __ehhandler$??$?6U?$char_traits@D@std@@@std@@YAAAV?$basic_ostream@DU?$char_traits@D@std@@@0@AAV10@PBD@Z 0040000d f   StarfieldDemo.obj
 0001:fffff00d       __ehhandler$??0sentry@?$basic_ostream@DU?$char_traits@D@std@@@std@@QAE@AAV12@@Z 0040000d f   StarfieldDemo.obj
 0001:fffff00d       __ehhandler$??$?0U?$pair@V?$basic_string@DU?$char_traits@D@std@@V?$allocator@D@2@@std@@V?$shared_ptr@VRawImageData@@@2@@std@@@?$_Tree_temp_node@V?$allocator@U?$_Tree_node@U?$pair@$$CBV?$basic_string@DU?$char_traits@D@std@@V?$allocator@D@2@@std@@V?$shared_ptr@VRawImageData@@@2@@std@@PAX@std@@@std@@@std@@QAE@AAV?$allocator@U?$_Tree_node@U?$pair@$$CBV?$basic_string@DU?$char_traits@D@std@@V?$allocator@D@2@@std@@V?$shared_ptr@VRawImageData@@@2@@std@@PAX@std@@@1@PAU?$_Tree_node@U?$pair@$$CBV?$basic_string@DU?$char_traits@D@std@@V?$allocator@D@2@@std@@V?$shared_ptr@VRawImageData@@@2@@std@@PAX@1@$$QAU?$pair@V?$basic_string@DU?$char_traits@D@std@@V?$allocator@D@2@@std@@V?$shared_ptr@VRawImageData@@@2@@1@@Z 0040000d f   ZoomingDemo.obj
 0001:fffff00d       __ehhandler$??$?0U?$pair@V?$basic_string@DU?$char_traits@D@std@@V?$allocator@D@2@@std@@V?$weak_ptr@VRawImageData@@@2@@std@@@?$_Tree_temp_node@V?$allocator@U?$_Tree_node@U?$pair@$$CBV?$basic_string@DU?$char_traits@D@std@@V?$allocator@D@2@@std@@V?$weak_ptr@VRawImageData@@@2@@std@@PAX@std@@@std@@@std@@QAE@AAV?$allocator@U?$_Tree_node@U?$pair@$$CBV?$basic_string@DU?$char_traits@D@std@@V?$allocator@D@2@@std@@V?$weak_ptr@VRawImageData@@@2@@std@@PAX@std@@@1@PAU?$_Tree_node@U?$pair@$$CBV?$basic_string@DU?$char_traits@D@std@@V?$allocator@D@2@@std@@V?$weak_ptr@VRawImageData@@@2@@std@@PAX@1@$$QAU?$pair@V?$basic_string@DU?$char_traits@D@std@@V?$allocator@D@2@@std@@V?$weak_ptr@VRawImageData@@@2@@1@@Z 0040000d f   ZoomingDemo.obj
 0001:fffff00d       __ehhandler$??$?6U?$char_traits@D@std@@@std@@YAAAV?$basic_ostream@DU?$char_traits@D@std@@@0@AAV10@PBD@Z 0040000d f   ZoomingDemo.obj
 0001:fffff00d       __ehhandler$??$_Insert_string@DU?$char_traits@D@std@@I@std@@YAAAV?$basic_ostream@DU?$char_traits@D@std@@@0@AAV10@QBDI@Z 0040000d f   ZoomingDemo.obj
 0001:fffff00d       __ehhandler$??$_Uninitialized_move@PAPAVDisplayableObject@@V?$allocator@PAVDisplayableObject@@@std@@@std@@YAPAPAVDisplayableObject@@QAPAV1@0PAPAV1@AAV?$allocator@PAVDisplayableObject@@@0@@Z 0040000d f   ZoomingDemo.obj
 0001:fffff00d       __ehhandler$??$_Uninitialized_value_construct_n@V?$allocator@PAVDisplayableObject@@@std@@@std@@YAPAPAVDisplayableObject@@PAPAV1@IAAV?$allocator@PAVDisplayableObject@@@0@@Z 0040000d f   ZoomingDemo.obj
 0001:fffff00d       __ehhandler$??0?$_Tree_temp_node_alloc@V?$allocator@U?$_Tree_node@U?$pair@$$CBV?$basic_string@DU?$char_traits@D@std@@V?$allocator@D@2@@std@@V?$shared_ptr@VRawImageData@@@2@@std@@PAX@std@@@std@@@std@@QAE@AAV?$allocator@U?$_Tree_node@U?$pair@$$CBV?$basic_string@DU?$char_traits@D@std@@V?$allocator@D@2@@std@@V?$shared_ptr@VRawImageData@@@2@@std@@PAX@std@@@1@@Z 0040000d f   ZoomingDemo.obj
 0001:fffff00d       __ehhandler$??0?$_Tree_temp_node_alloc@V?$allocator@U?$_Tree_node@U?$pair@$$CBV?$basic_string@DU?$char_traits@D@std@@V?$allocator@D@2@@std@@V?$weak_ptr@VRawImageData@@@2@@std@@PAX@std@@@std@@@std@@QAE@AAV?$allocator@U?$_Tree_node@U?$pair@$$CBV?$basic_string@DU?$char_traits@D@std@@V?$allocator@D@2@@std@@V?$weak_ptr@VRawImageData@@@2@@std@@PAX@std@@@1@@Z 0040000d f   ZoomingDemo.obj
 0001:fffff00d       __ehhandler$??0DragableObject@@QAE@HHPAVBaseEngine@@HH_N1@Z 0040000d f   ZoomingDemo.obj
 0001:fffff00d       __ehhandler$??0ImageManager@@QAE@XZ 0040000d f   ZoomingDemo.obj
 0001:fffff00d       __ehhandler$??0RawImageData@@QAE@V?$basic_string@DU?$char_traits@D@std@@V?$allocator@D@2@@std@@@Z 0040000d f   ZoomingDemo.obj
 0001:fffff00d       __ehhandler$??0sentry@?$basic_ostream@DU?$char_traits@D@std@@@std@@QAE@AAV12@@Z 0040000d f   ZoomingDemo.obj
 0001:fffff00d       __ehhandler$?_Alloc_sentinel_and_proxy@?$_Tree@V?$_Tmap_traits@V?$basic_string@DU?$char_traits@D@std@@V?$allocator@D@2@@std@@V?$shared_ptr@VRawImageData@@@2@U?$less@V?$basic_string@DU?$char_traits@D@std@@V?$allocator@D@2@@std@@@2@V?$allocator@U?$pair@$$CBV?$basic_string@DU?$char_traits@D@std@@V?$allocator@D@2@@std@@V?$shared_ptr@VRawImageData@@@2@@std@@@2@$0A@@std@@@std@@IAEXXZ 0040000d f   ZoomingDemo.obj
 0001:fffff00d       __ehhandler$?_Alloc_sentinel_and_proxy@?$_Tree@V?$_Tmap_traits@V?$basic_string@DU?$char_traits@D@std@@V?$allocator@D@2@@std@@V?$weak_ptr@VRawImageData@@@2@U?$less@V?$basic_string@DU?$char_traits@D@std@@V?$allocator@D@2@@std@@@2@V?$allocator@U?$pair@$$CBV?$basic_string@DU?$char_traits@D@std@@V?$allocator@D@2@@std@@V?$weak_ptr@VRawImageData@@@2@@std@@@2@$0A@@std@@@std@@IAEXXZ 0040000d f   ZoomingDemo.obj
 0001:fffff00d       __ehhandler$?getImagebyURL@ImageManager@@QAE?AVSimpleImage@@V?$basic_string@DU?$char_traits@D@std@@V?$allocator@D@2@@std@@_N1@Z 0040000d f   ZoomingDemo.obj
 0001:fffff00d       __ehhandler$?loadImage@RawImageData@@QAE_NV?$basic_string@DU?$char_traits@D@std@@V?$allocator@D@2@@std@@HHHHH_N@Z 0040000d f   ZoomingDemo.obj
 0001:fffff00e       __ehhandler$?_Orphan_range_locked@?$vector@PAVDisplayableObject@@V?$allocator@PAVDisplayableObject@@@std@@@std@@ABEXPAPAVDisplayableObject@@0@Z 0040000e f   BouncingBallMain.obj
 0001:fffff00e       __ehhandler$?_Orphan_range_locked@?$vector@PAVDisplayableObject@@V?$allocator@PAVDisplayableObject@@@std@@@std@@ABEXPAPAVDisplayableObject@@0@Z 0040000e f   ImageMappingDemo.obj
 0001:fffff00e       __ehhandler$?_Orphan_range_locked@?$vector@PAVDisplayableObject@@V?$allocator@PAVDisplayableObject@@@std@@@std@@ABEXPAPAVDisplayableObject@@0@Z 0040000e f   MazeDemoMain.obj
 0001:fffff00e       __ehhandler$?_Orphan_range_locked@?$vector@PAVDisplayableObject@@V?$allocator@PAVDisplayableObject@@@std@@@std@@ABEXPAPAVDisplayableObject@@0@Z 0040000e f   Psyjl16Engine.obj
 0001:fffff00e       __ehhandler$?_Orphan_range_locked@?$vector@PAVDisplayableObject@@V?$allocator@PAVDisplayableObject@@@std@@@std@@ABEXPAPAVDisplayableObject@@0@Z 0040000e f   SimpleDemo.obj
 0001:fffff00e       __ehhandler$?_Orphan_range_locked@?$vector@PAVDisplayableObject@@V?$allocator@PAVDisplayableObject@@@std@@@std@@ABEXPAPAVDisplayableObject@@0@Z 0040000e f   ZoomingDemo.obj
 0002:fffd5010       __tryblocktable$??$?6U?$char_traits@D@std@@@std@@YAAAV?$basic_ostream@DU?$char_traits@D@std@@@0@AAV10@PBD@Z 00400010     BouncingBall.obj
 0002:fffd5010       __tryblocktable$??$?6U?$char_traits@D@std@@@std@@YAAAV?$basic_ostream@DU?$char_traits@D@std@@@0@AAV10@PBD@Z 00400010     BouncingBallMain.obj
 0002:fffd5010       __unwindtable$??$_Resize_reallocate@U_Value_init_tag@std@@@?$vector@PAVDisplayableObject@@V?$allocator@PAVDisplayableObject@@@std@@@std@@AAEXIABU_Value_init_tag@1@@Z 00400010     BouncingBallMain.obj
 0002:fffd5010       __tryblocktable$??$?6U?$char_traits@D@std@@@std@@YAAAV?$basic_ostream@DU?$char_traits@D@std@@@0@AAV10@PBD@Z 00400010     DisplayableObject.obj
 0002:fffd5010       __tryblocktable$??$?6U?$char_traits@D@std@@@std@@YAAAV?$basic_ostream@DU?$char_traits@D@std@@@0@AAV10@PBD@Z 00400010     DrawingSurface.obj
 0000:fffc3010       _volmd                     00400010     DrawingSurface.obj
 0002:fffd5010       __tryblocktable$??$?6U?$char_traits@D@std@@@std@@YAAAV?$basic_ostream@DU?$char_traits@D@std@@@0@AAV10@PBD@Z 00400010     FlashingDemo.obj
 0002:fffd5010       __ehfuncinfo$??$?0VRawImageData@@$0A@@?$shared_ptr@VRawImageData@@@std@@QAE@PAVRawImageData@@@Z 00400010     ImageMappingDemo.obj
 0002:fffd5010       __ehfuncinfo$??0?$basic_string@DU?$char_traits@D@std@@V?$allocator@D@2@@std@@QAE@ABV01@@Z 00400010     ImageMappingDemo.obj
 0002:fffd5010       __ehfuncinfo$??0?$basic_string@DU?$char_traits@D@std@@V?$allocator@D@2@@std@@QAE@QBD@Z 00400010     ImageMappingDemo.obj
 0002:fffd5010       __ehfuncinfo$?loadAsNew@ImageManager@@QAE?AV?$shared_ptr@VRawImageData@@@std@@V?$basic_string@DU?$char_traits@D@std@@V?$allocator@D@2@@3@@Z 00400010     ImageMappingDemo.obj
 0002:fffd5010       __tryblocktable$??$?6U?$char_traits@D@std@@@std@@YAAAV?$basic_ostream@DU?$char_traits@D@std@@@0@AAV10@PBD@Z 00400010     ImageMappingDemo.obj
 0002:fffd5010       __tryblocktable$??$_Insert_string@DU?$char_traits@D@std@@I@std@@YAAAV?$basic_ostream@DU?$char_traits@D@std@@@0@AAV10@QBDI@Z 00400010     ImageMappingDemo.obj
 0001:fffff010       __unwindfunclet$??0DragableImageObject@@QAE@HHPAVBaseEngine@@V?$basic_string@DU?$char_traits@D@std@@V?$allocator@D@2@@std@@_N2@Z$2 00400010 f   ImageMappingDemo.obj
 0001:fffff010       __unwindfunclet$?getImagePtrbyURL@ImageManager@@QAE?AV?$shared_ptr@VRawImageData@@@std@@V?$basic_string@DU?$char_traits@D@std@@V?$allocator@D@2@@3@_N1@Z$9 00400010 f   ImageMappingDemo.obj
 0002:fffd5010       __unwindtable$??$_Resize_reallocate@U_Value_init_tag@std@@@?$vector@PAVDisplayableObject@@V?$allocator@PAVDisplayableObject@@@std@@@std@@AAEXIABU_Value_init_tag@1@@Z 00400010     ImageMappingDemo.obj
 0002:fffd5010       __unwindtable$??$_Resize_reallocate@U_Value_init_tag@std@@@?$vector@PAVDisplayableObject@@V?$allocator@PAVDisplayableObject@@@std@@@std@@AAEXIABU_Value_init_tag@1@@Z 00400010     MazeDemoMain.obj
 0002:fffd5010       __ehfuncinfo$??$?0VRawImageData@@$0A@@?$shared_ptr@VRawImageData@@@std@@QAE@PAVRawImageData@@@Z 00400010     Psyjl16Engine.obj
 0002:fffd5010       __ehfuncinfo$??0?$basic_string@DU?$char_traits@D@std@@V?$allocator@D@2@@std@@QAE@ABV01@@Z 00400010     Psyjl16Engine.obj
 0002:fffd5010       __ehfuncinfo$??0?$basic_string@DU?$char_traits@D@std@@V?$allocator@D@2@@std@@QAE@QBD@Z 00400010     Psyjl16Engine.obj
 0002:fffd5010       __ehfuncinfo$?loadAsNew@ImageManager@@QAE?AV?$shared_ptr@VRawImageData@@@std@@V?$basic_string@DU?$char_traits@D@std@@V?$allocator@D@2@@3@@Z 00400010     Psyjl16Engine.obj
 0002:fffd5010       __tryblocktable$??$?6U?$char_traits@D@std@@@std@@YAAAV?$basic_ostream@DU?$char_traits@D@std@@@0@AAV10@PBD@Z 00400010     Psyjl16Engine.obj
 0002:fffd5010       __tryblocktable$??$_Insert_string@DU?$char_traits@D@std@@I@std@@YAAAV?$basic_ostream@DU?$char_traits@D@std@@@0@AAV10@QBDI@Z 00400010     Psyjl16Engine.obj
 0001:fffff010       __unwindfunclet$?getImagePtrbyURL@ImageManager@@QAE?AV?$shared_ptr@VRawImageData@@@std@@V?$basic_string@DU?$char_traits@D@std@@V?$allocator@D@2@@3@_N1@Z$9 00400010 f   Psyjl16Engine.obj
 0002:fffd5010       __unwindtable$??$_Resize_reallocate@U_Value_init_tag@std@@@?$vector@PAVDisplayableObject@@V?$allocator@PAVDisplayableObject@@@std@@@std@@AAEXIABU_Value_init_tag@1@@Z 00400010     Psyjl16Engine.obj
 0002:fffd5010       __tryblocktable$??$?6U?$char_traits@D@std@@@std@@YAAAV?$basic_ostream@DU?$char_traits@D@std@@@0@AAV10@PBD@Z 00400010     SimpleDemo.obj
 0002:fffd5010       __unwindtable$??$_Resize_reallocate@U_Value_init_tag@std@@@?$vector@PAVDisplayableObject@@V?$allocator@PAVDisplayableObject@@@std@@@std@@AAEXIABU_Value_init_tag@1@@Z 00400010     SimpleDemo.obj
 0002:fffd5010       __tryblocktable$??$?6U?$char_traits@D@std@@@std@@YAAAV?$basic_ostream@DU?$char_traits@D@std@@@0@AAV10@PBD@Z 00400010     SimpleImage.obj
 0002:fffd5010       __tryblocktable$??$?6U?$char_traits@D@std@@@std@@YAAAV?$basic_ostream@DU?$char_traits@D@std@@@0@AAV10@PBD@Z 00400010     StarfieldDemo.obj
 0002:fffd5010       __ehfuncinfo$??$?0VRawImageData@@$0A@@?$shared_ptr@VRawImageData@@@std@@QAE@PAVRawImageData@@@Z 00400010     ZoomingDemo.obj
 0002:fffd5010       __ehfuncinfo$??0?$basic_string@DU?$char_traits@D@std@@V?$allocator@D@2@@std@@QAE@ABV01@@Z 00400010     ZoomingDemo.obj
 0002:fffd5010       __ehfuncinfo$??0?$basic_string@DU?$char_traits@D@std@@V?$allocator@D@2@@std@@QAE@QBD@Z 00400010     ZoomingDemo.obj
 0002:fffd5010       __ehfuncinfo$?loadAsNew@ImageManager@@QAE?AV?$shared_ptr@VRawImageData@@@std@@V?$basic_string@DU?$char_traits@D@std@@V?$allocator@D@2@@3@@Z 00400010     ZoomingDemo.obj
 0002:fffd5010       __tryblocktable$??$?6U?$char_traits@D@std@@@std@@YAAAV?$basic_ostream@DU?$char_traits@D@std@@@0@AAV10@PBD@Z 00400010     ZoomingDemo.obj
 0002:fffd5010       __tryblocktable$??$_Insert_string@DU?$char_traits@D@std@@I@std@@YAAAV?$basic_ostream@DU?$char_traits@D@std@@@0@AAV10@QBDI@Z 00400010     ZoomingDemo.obj
 0001:fffff010       __unwindfunclet$??0DragableImageObject@@QAE@HHPAVBaseEngine@@V?$basic_string@DU?$char_traits@D@std@@V?$allocator@D@2@@std@@_N2@Z$2 00400010 f   ZoomingDemo.obj
 0001:fffff010       __unwindfunclet$?getImagePtrbyURL@ImageManager@@QAE?AV?$shared_ptr@VRawImageData@@@std@@V?$basic_string@DU?$char_traits@D@std@@V?$allocator@D@2@@3@_N1@Z$9 00400010 f   ZoomingDemo.obj
 0002:fffd5010       __unwindtable$??$_Resize_reallocate@U_Value_init_tag@std@@@?$vector@PAVDisplayableObject@@V?$allocator@PAVDisplayableObject@@@std@@@std@@AAEXIABU_Value_init_tag@1@@Z 00400010     ZoomingDemo.obj
 0000:fffc3010       _volmd                     00400010     mainfunction.obj
 0001:fffff014       __ehhandler$?get@ImageManager@@SAPAV1@XZ 00400014 f   ImageMappingDemo.obj
 0001:fffff014       __ehhandler$?get@ImageManager@@SAPAV1@XZ 00400014 f   Psyjl16Engine.obj
 0001:fffff014       __ehhandler$?get@ImageManager@@SAPAV1@XZ 00400014 f   ZoomingDemo.obj
 0001:fffff015       __ehhandler$??0?$basic_string@DU?$char_traits@D@std@@V?$allocator@D@2@@std@@QAE@ABV01@@Z 00400015 f   ImageMappingDemo.obj
 0001:fffff015       __ehhandler$??0?$basic_string@DU?$char_traits@D@std@@V?$allocator@D@2@@std@@QAE@QBD@Z 00400015 f   ImageMappingDemo.obj
 0001:fffff015       __ehhandler$??0?$basic_string@DU?$char_traits@D@std@@V?$allocator@D@2@@std@@QAE@ABV01@@Z 00400015 f   Psyjl16Engine.obj
 0001:fffff015       __ehhandler$??0?$basic_string@DU?$char_traits@D@std@@V?$allocator@D@2@@std@@QAE@QBD@Z 00400015 f   Psyjl16Engine.obj
 0001:fffff015       __ehhandler$??0?$basic_string@DU?$char_traits@D@std@@V?$allocator@D@2@@std@@QAE@ABV01@@Z 00400015 f   ZoomingDemo.obj
 0001:fffff015       __ehhandler$??0?$basic_string@DU?$char_traits@D@std@@V?$allocator@D@2@@std@@QAE@QBD@Z 00400015 f   ZoomingDemo.obj
 0000:fffc3018       _volmd                     00400018     BaseEngine.obj
 0001:fffff018       __unwindfunclet$??0DragableImageObject@@QAE@HHPAVBaseEngine@@V?$basic_string@DU?$char_traits@D@std@@V?$allocator@D@2@@std@@_N2@Z$3 00400018 f   ImageMappingDemo.obj
 0001:fffff018       __unwindfunclet$?getImagePtrbyURL@ImageManager@@QAE?AV?$shared_ptr@VRawImageData@@@std@@V?$basic_string@DU?$char_traits@D@std@@V?$allocator@D@2@@3@_N1@Z$10 00400018 f   ImageMappingDemo.obj
 0000:fffc3018       _volmd                     00400018     MazeDemoMain.obj
 0001:fffff018       __unwindfunclet$?getImagePtrbyURL@ImageManager@@QAE?AV?$shared_ptr@VRawImageData@@@std@@V?$basic_string@DU?$char_traits@D@std@@V?$allocator@D@2@@3@_N1@Z$10 00400018 f   Psyjl16Engine.obj
 0001:fffff018       __unwindfunclet$??0DragableImageObject@@QAE@HHPAVBaseEngine@@V?$basic_string@DU?$char_traits@D@std@@V?$allocator@D@2@@std@@_N2@Z$3 00400018 f   ZoomingDemo.obj
 0001:fffff018       __unwindfunclet$?getImagePtrbyURL@ImageManager@@QAE?AV?$shared_ptr@VRawImageData@@@std@@V?$basic_string@DU?$char_traits@D@std@@V?$allocator@D@2@@3@_N1@Z$10 00400018 f   ZoomingDemo.obj
 0001:fffff01c       __ehhandler$??$?0VRawImageData@@$0A@@?$shared_ptr@VRawImageData@@@std@@QAE@PAVRawImageData@@@Z 0040001c f   ImageMappingDemo.obj
 0001:fffff01c       __ehhandler$?loadAsNew@ImageManager@@QAE?AV?$shared_ptr@VRawImageData@@@std@@V?$basic_string@DU?$char_traits@D@std@@V?$allocator@D@2@@3@@Z 0040001c f   ImageMappingDemo.obj
 0001:fffff01c       __ehhandler$??$?0VRawImageData@@$0A@@?$shared_ptr@VRawImageData@@@std@@QAE@PAVRawImageData@@@Z 0040001c f   Psyjl16Engine.obj
 0001:fffff01c       __ehhandler$?loadAsNew@ImageManager@@QAE?AV?$shared_ptr@VRawImageData@@@std@@V?$basic_string@DU?$char_traits@D@std@@V?$allocator@D@2@@3@@Z 0040001c f   Psyjl16Engine.obj
 0000:fffc301c       _volmd                     0040001c     Psyjl16Engine.obj
 0000:fffc301c       _volmd                     0040001c     SimpleDemo.obj
 0001:fffff01c       __ehhandler$??$?0VRawImageData@@$0A@@?$shared_ptr@VRawImageData@@@std@@QAE@PAVRawImageData@@@Z 0040001c f   ZoomingDemo.obj
 0001:fffff01c       __ehhandler$?loadAsNew@ImageManager@@QAE?AV?$shared_ptr@VRawImageData@@@std@@V?$basic_string@DU?$char_traits@D@std@@V?$allocator@D@2@@3@@Z 0040001c f   ZoomingDemo.obj
 0000:fffc301c       _volmd                     0040001c     ZoomingDemo.obj
 0002:fffd5020       __tryblocktable$??$_Resize_reallocate@U_Value_init_tag@std@@@?$vector@PAVDisplayableObject@@V?$allocator@PAVDisplayableObject@@@std@@@std@@AAEXIABU_Value_init_tag@1@@Z 00400020     BouncingBallMain.obj
 0000:fffc3020       _volmd                     00400020     DrawingSurface.obj
 0002:fffd5020       __ehfuncinfo$??0DragableImageObject@@QAE@HHPAVBaseEngine@@V?$basic_string@DU?$char_traits@D@std@@V?$allocator@D@2@@std@@_N2@Z 00400020     ImageMappingDemo.obj
 0002:fffd5020       __tryblocktable$??$_Resize_reallocate@U_Value_init_tag@std@@@?$vector@PAVDisplayableObject@@V?$allocator@PAVDisplayableObject@@@std@@@std@@AAEXIABU_Value_init_tag@1@@Z 00400020     ImageMappingDemo.obj
 0002:fffd5020       __tryblocktable$??$_Resize_reallocate@U_Value_init_tag@std@@@?$vector@PAVDisplayableObject@@V?$allocator@PAVDisplayableObject@@@std@@@std@@AAEXIABU_Value_init_tag@1@@Z 00400020     MazeDemoMain.obj
 0002:fffd5020       __tryblocktable$??$_Resize_reallocate@U_Value_init_tag@std@@@?$vector@PAVDisplayableObject@@V?$allocator@PAVDisplayableObject@@@std@@@std@@AAEXIABU_Value_init_tag@1@@Z 00400020     Psyjl16Engine.obj
 0002:fffd5020       __tryblocktable$??$_Resize_reallocate@U_Value_init_tag@std@@@?$vector@PAVDisplayableObject@@V?$allocator@PAVDisplayableObject@@@std@@@std@@AAEXIABU_Value_init_tag@1@@Z 00400020     SimpleDemo.obj
 0002:fffd5020       __ehfuncinfo$??0DragableImageObject@@QAE@HHPAVBaseEngine@@V?$basic_string@DU?$char_traits@D@std@@V?$allocator@D@2@@std@@_N2@Z 00400020     ZoomingDemo.obj
 0002:fffd5020       __tryblocktable$??$_Resize_reallocate@U_Value_init_tag@std@@@?$vector@PAVDisplayableObject@@V?$allocator@PAVDisplayableObject@@@std@@@std@@AAEXIABU_Value_init_tag@1@@Z 00400020     ZoomingDemo.obj
 0001:fffff023       __unwindfunclet$?getImagePtrbyURL@ImageManager@@QAE?AV?$shared_ptr@VRawImageData@@@std@@V?$basic_string@DU?$char_traits@D@std@@V?$allocator@D@2@@3@_N1@Z$11 00400023 f   ImageMappingDemo.obj
 0001:fffff023       __unwindfunclet$?getImagePtrbyURL@ImageManager@@QAE?AV?$shared_ptr@VRawImageData@@@std@@V?$basic_string@DU?$char_traits@D@std@@V?$allocator@D@2@@3@_N1@Z$11 00400023 f   Psyjl16Engine.obj
 0001:fffff023       __unwindfunclet$?getImagePtrbyURL@ImageManager@@QAE?AV?$shared_ptr@VRawImageData@@@std@@V?$basic_string@DU?$char_traits@D@std@@V?$allocator@D@2@@3@_N1@Z$11 00400023 f   ZoomingDemo.obj
 0000:fffc3024       _volmd                     00400024     BaseEngine.obj
 0002:fffd5024       __unwindtable$??$?6U?$char_traits@D@std@@@std@@YAAAV?$basic_ostream@DU?$char_traits@D@std@@@0@AAV10@PBD@Z 00400024     BouncingBall.obj
 0002:fffd5024       __unwindtable$??$?6U?$char_traits@D@std@@@std@@YAAAV?$basic_ostream@DU?$char_traits@D@std@@@0@AAV10@PBD@Z 00400024     BouncingBallMain.obj
 0002:fffd5024       __unwindtable$??$?6U?$char_traits@D@std@@@std@@YAAAV?$basic_ostream@DU?$char_traits@D@std@@@0@AAV10@PBD@Z 00400024     DisplayableObject.obj
 0002:fffd5024       __unwindtable$??$?6U?$char_traits@D@std@@@std@@YAAAV?$basic_ostream@DU?$char_traits@D@std@@@0@AAV10@PBD@Z 00400024     DrawingSurface.obj
 0002:fffd5024       __unwindtable$??$?6U?$char_traits@D@std@@@std@@YAAAV?$basic_ostream@DU?$char_traits@D@std@@@0@AAV10@PBD@Z 00400024     FlashingDemo.obj
 0002:fffd5024       __unwindtable$??$?6U?$char_traits@D@std@@@std@@YAAAV?$basic_ostream@DU?$char_traits@D@std@@@0@AAV10@PBD@Z 00400024     ImageMappingDemo.obj
 0002:fffd5024       __unwindtable$??$_Insert_string@DU?$char_traits@D@std@@I@std@@YAAAV?$basic_ostream@DU?$char_traits@D@std@@@0@AAV10@QBDI@Z 00400024     ImageMappingDemo.obj
 0002:fffd5024       __unwindtable$?getImagePtrbyURL@ImageManager@@QAE?AV?$shared_ptr@VRawImageData@@@std@@V?$basic_string@DU?$char_traits@D@std@@V?$allocator@D@2@@3@_N1@Z 00400024     ImageMappingDemo.obj
 0002:fffd5024       __unwindtable$??$?6U?$char_traits@D@std@@@std@@YAAAV?$basic_ostream@DU?$char_traits@D@std@@@0@AAV10@PBD@Z 00400024     Psyjl16Engine.obj
 0002:fffd5024       __unwindtable$??$_Insert_string@DU?$char_traits@D@std@@I@std@@YAAAV?$basic_ostream@DU?$char_traits@D@std@@@0@AAV10@QBDI@Z 00400024     Psyjl16Engine.obj
 0002:fffd5024       __unwindtable$?getImagePtrbyURL@ImageManager@@QAE?AV?$shared_ptr@VRawImageData@@@std@@V?$basic_string@DU?$char_traits@D@std@@V?$allocator@D@2@@3@_N1@Z 00400024     Psyjl16Engine.obj
 0002:fffd5024       __unwindtable$??$?6U?$char_traits@D@std@@@std@@YAAAV?$basic_ostream@DU?$char_traits@D@std@@@0@AAV10@PBD@Z 00400024     SimpleDemo.obj
 0002:fffd5024       __unwindtable$??$?6U?$char_traits@D@std@@@std@@YAAAV?$basic_ostream@DU?$char_traits@D@std@@@0@AAV10@PBD@Z 00400024     SimpleImage.obj
 0002:fffd5024       __unwindtable$??$?6U?$char_traits@D@std@@@std@@YAAAV?$basic_ostream@DU?$char_traits@D@std@@@0@AAV10@PBD@Z 00400024     StarfieldDemo.obj
 0002:fffd5024       __unwindtable$??$?6U?$char_traits@D@std@@@std@@YAAAV?$basic_ostream@DU?$char_traits@D@std@@@0@AAV10@PBD@Z 00400024     ZoomingDemo.obj
 0002:fffd5024       __unwindtable$??$_Insert_string@DU?$char_traits@D@std@@I@std@@YAAAV?$basic_ostream@DU?$char_traits@D@std@@@0@AAV10@QBDI@Z 00400024     ZoomingDemo.obj
 0002:fffd5024       __unwindtable$?getImagePtrbyURL@ImageManager@@QAE?AV?$shared_ptr@VRawImageData@@@std@@V?$basic_string@DU?$char_traits@D@std@@V?$allocator@D@2@@3@_N1@Z 00400024     ZoomingDemo.obj
 0001:fffff028       __ehhandler$??0DragableImageObject@@QAE@HHPAVBaseEngine@@V?$basic_string@DU?$char_traits@D@std@@V?$allocator@D@2@@std@@_N2@Z 00400028 f   ImageMappingDemo.obj
 0001:fffff028       __ehhandler$??0DragableImageObject@@QAE@HHPAVBaseEngine@@V?$basic_string@DU?$char_traits@D@std@@V?$allocator@D@2@@std@@_N2@Z 00400028 f   ZoomingDemo.obj
 0001:fffff02b       __unwindfunclet$?getImagePtrbyURL@ImageManager@@QAE?AV?$shared_ptr@VRawImageData@@@std@@V?$basic_string@DU?$char_traits@D@std@@V?$allocator@D@2@@3@_N1@Z$13 0040002b f   ImageMappingDemo.obj
 0001:fffff02b       __unwindfunclet$?getImagePtrbyURL@ImageManager@@QAE?AV?$shared_ptr@VRawImageData@@@std@@V?$basic_string@DU?$char_traits@D@std@@V?$allocator@D@2@@3@_N1@Z$13 0040002b f   Psyjl16Engine.obj
 0001:fffff02b       __unwindfunclet$?getImagePtrbyURL@ImageManager@@QAE?AV?$shared_ptr@VRawImageData@@@std@@V?$basic_string@DU?$char_traits@D@std@@V?$allocator@D@2@@3@_N1@Z$13 0040002b f   ZoomingDemo.obj
 0002:fffd5034       __ehfuncinfo$??$_Resize_reallocate@U_Value_init_tag@std@@@?$vector@PAVDisplayableObject@@V?$allocator@PAVDisplayableObject@@@std@@@std@@AAEXIABU_Value_init_tag@1@@Z 00400034     BouncingBallMain.obj
 0002:fffd5034       __ehfuncinfo$??$_Resize_reallocate@U_Value_init_tag@std@@@?$vector@PAVDisplayableObject@@V?$allocator@PAVDisplayableObject@@@std@@@std@@AAEXIABU_Value_init_tag@1@@Z 00400034     ImageMappingDemo.obj
 0002:fffd5034       __ehfuncinfo$??$_Resize_reallocate@U_Value_init_tag@std@@@?$vector@PAVDisplayableObject@@V?$allocator@PAVDisplayableObject@@@std@@@std@@AAEXIABU_Value_init_tag@1@@Z 00400034     MazeDemoMain.obj
 0002:fffd5034       __ehfuncinfo$??$_Resize_reallocate@U_Value_init_tag@std@@@?$vector@PAVDisplayableObject@@V?$allocator@PAVDisplayableObject@@@std@@@std@@AAEXIABU_Value_init_tag@1@@Z 00400034     Psyjl16Engine.obj
 0002:fffd5034       __ehfuncinfo$??$_Resize_reallocate@U_Value_init_tag@std@@@?$vector@PAVDisplayableObject@@V?$allocator@PAVDisplayableObject@@@std@@@std@@AAEXIABU_Value_init_tag@1@@Z 00400034     SimpleDemo.obj
 0002:fffd5034       __ehfuncinfo$??$_Resize_reallocate@U_Value_init_tag@std@@@?$vector@PAVDisplayableObject@@V?$allocator@PAVDisplayableObject@@@std@@@std@@AAEXIABU_Value_init_tag@1@@Z 00400034     ZoomingDemo.obj
 0001:fffff038       __ehhandler$?getImagePtrbyURL@ImageManager@@QAE?AV?$shared_ptr@VRawImageData@@@std@@V?$basic_string@DU?$char_traits@D@std@@V?$allocator@D@2@@3@_N1@Z 00400038 f   ImageMappingDemo.obj
 0001:fffff038       __ehhandler$?getImagePtrbyURL@ImageManager@@QAE?AV?$shared_ptr@VRawImageData@@@std@@V?$basic_string@DU?$char_traits@D@std@@V?$allocator@D@2@@3@_N1@Z 00400038 f   Psyjl16Engine.obj
 0001:fffff038       __ehhandler$?getImagePtrbyURL@ImageManager@@QAE?AV?$shared_ptr@VRawImageData@@@std@@V?$basic_string@DU?$char_traits@D@std@@V?$allocator@D@2@@3@_N1@Z 00400038 f   ZoomingDemo.obj
 0002:fffd503c       __ehfuncinfo$??$?6U?$char_traits@D@std@@@std@@YAAAV?$basic_ostream@DU?$char_traits@D@std@@@0@AAV10@PBD@Z 0040003c     BouncingBall.obj
 0002:fffd503c       __ehfuncinfo$??$?6U?$char_traits@D@std@@@std@@YAAAV?$basic_ostream@DU?$char_traits@D@std@@@0@AAV10@PBD@Z 0040003c     BouncingBallMain.obj
 0002:fffd503c       __ehfuncinfo$??$?6U?$char_traits@D@std@@@std@@YAAAV?$basic_ostream@DU?$char_traits@D@std@@@0@AAV10@PBD@Z 0040003c     DisplayableObject.obj
 0002:fffd503c       __ehfuncinfo$??$?6U?$char_traits@D@std@@@std@@YAAAV?$basic_ostream@DU?$char_traits@D@std@@@0@AAV10@PBD@Z 0040003c     DrawingSurface.obj
 0002:fffd503c       __ehfuncinfo$??$?6U?$char_traits@D@std@@@std@@YAAAV?$basic_ostream@DU?$char_traits@D@std@@@0@AAV10@PBD@Z 0040003c     FlashingDemo.obj
 0002:fffd503c       __ehfuncinfo$??$?6U?$char_traits@D@std@@@std@@YAAAV?$basic_ostream@DU?$char_traits@D@std@@@0@AAV10@PBD@Z 0040003c     ImageMappingDemo.obj
 0002:fffd503c       __ehfuncinfo$??$_Insert_string@DU?$char_traits@D@std@@I@std@@YAAAV?$basic_ostream@DU?$char_traits@D@std@@@0@AAV10@QBDI@Z 0040003c     ImageMappingDemo.obj
 0002:fffd503c       __ehfuncinfo$??$?6U?$char_traits@D@std@@@std@@YAAAV?$basic_ostream@DU?$char_traits@D@std@@@0@AAV10@PBD@Z 0040003c     Psyjl16Engine.obj
 0002:fffd503c       __ehfuncinfo$??$_Insert_string@DU?$char_traits@D@std@@I@std@@YAAAV?$basic_ostream@DU?$char_traits@D@std@@@0@AAV10@QBDI@Z 0040003c     Psyjl16Engine.obj
 0002:fffd503c       __ehfuncinfo$??$?6U?$char_traits@D@std@@@std@@YAAAV?$basic_ostream@DU?$char_traits@D@std@@@0@AAV10@PBD@Z 0040003c     SimpleDemo.obj
 0002:fffd503c       __ehfuncinfo$??$?6U?$char_traits@D@std@@@std@@YAAAV?$basic_ostream@DU?$char_traits@D@std@@@0@AAV10@PBD@Z 0040003c     SimpleImage.obj
 0002:fffd503c       __ehfuncinfo$??$?6U?$char_traits@D@std@@@std@@YAAAV?$basic_ostream@DU?$char_traits@D@std@@@0@AAV10@PBD@Z 0040003c     StarfieldDemo.obj
 0002:fffd503c       __ehfuncinfo$??$?6U?$char_traits@D@std@@@std@@YAAAV?$basic_ostream@DU?$char_traits@D@std@@@0@AAV10@PBD@Z 0040003c     ZoomingDemo.obj
 0002:fffd503c       __ehfuncinfo$??$_Insert_string@DU?$char_traits@D@std@@I@std@@YAAAV?$basic_ostream@DU?$char_traits@D@std@@@0@AAV10@QBDI@Z 0040003c     ZoomingDemo.obj
 0001:fffff0e4       __catch$??$_Resize_reallocate@U_Value_init_tag@std@@@?$vector@PAVDisplayableObject@@V?$allocator@PAVDisplayableObject@@@std@@@std@@AAEXIABU_Value_init_tag@1@@Z$0 004000e4 f   BouncingBallMain.obj
 0001:fffff0e4       __catch$??$_Resize_reallocate@U_Value_init_tag@std@@@?$vector@PAVDisplayableObject@@V?$allocator@PAVDisplayableObject@@@std@@@std@@AAEXIABU_Value_init_tag@1@@Z$0 004000e4 f   ImageMappingDemo.obj
 0001:fffff0e4       __catch$??$_Resize_reallocate@U_Value_init_tag@std@@@?$vector@PAVDisplayableObject@@V?$allocator@PAVDisplayableObject@@@std@@@std@@AAEXIABU_Value_init_tag@1@@Z$0 004000e4 f   MazeDemoMain.obj
 0001:fffff0e4       __catch$??$_Resize_reallocate@U_Value_init_tag@std@@@?$vector@PAVDisplayableObject@@V?$allocator@PAVDisplayableObject@@@std@@@std@@AAEXIABU_Value_init_tag@1@@Z$0 004000e4 f   Psyjl16Engine.obj
 0001:fffff0e4       __catch$??$_Resize_reallocate@U_Value_init_tag@std@@@?$vector@PAVDisplayableObject@@V?$allocator@PAVDisplayableObject@@@std@@@std@@AAEXIABU_Value_init_tag@1@@Z$0 004000e4 f   SimpleDemo.obj
 0001:fffff0e4       __catch$??$_Resize_reallocate@U_Value_init_tag@std@@@?$vector@PAVDisplayableObject@@V?$allocator@PAVDisplayableObject@@@std@@@std@@AAEXIABU_Value_init_tag@1@@Z$0 004000e4 f   ZoomingDemo.obj
 0001:fffff25f       __catch$??$_Insert_string@DU?$char_traits@D@std@@I@std@@YAAAV?$basic_ostream@DU?$char_traits@D@std@@@0@AAV10@QBDI@Z$0 0040025f f   ImageMappingDemo.obj
 0001:fffff25f       __catch$??$_Insert_string@DU?$char_traits@D@std@@I@std@@YAAAV?$basic_ostream@DU?$char_traits@D@std@@@0@AAV10@QBDI@Z$0 0040025f f   Psyjl16Engine.obj
 0001:fffff25f       __catch$??$_Insert_string@DU?$char_traits@D@std@@I@std@@YAAAV?$basic_ostream@DU?$char_traits@D@std@@@0@AAV10@QBDI@Z$0 0040025f f   ZoomingDemo.obj
 0001:fffff2ba       __catch$??$?6U?$char_traits@D@std@@@std@@YAAAV?$basic_ostream@DU?$char_traits@D@std@@@0@AAV10@PBD@Z$0 004002ba f   BouncingBall.obj
 0001:fffff2ba       __catch$??$?6U?$char_traits@D@std@@@std@@YAAAV?$basic_ostream@DU?$char_traits@D@std@@@0@AAV10@PBD@Z$0 004002ba f   BouncingBallMain.obj
 0001:fffff2ba       __catch$??$?6U?$char_traits@D@std@@@std@@YAAAV?$basic_ostream@DU?$char_traits@D@std@@@0@AAV10@PBD@Z$0 004002ba f   DisplayableObject.obj
 0001:fffff2ba       __catch$??$?6U?$char_traits@D@std@@@std@@YAAAV?$basic_ostream@DU?$char_traits@D@std@@@0@AAV10@PBD@Z$0 004002ba f   DrawingSurface.obj
 0001:fffff2ba       __catch$??$?6U?$char_traits@D@std@@@std@@YAAAV?$basic_ostream@DU?$char_traits@D@std@@@0@AAV10@PBD@Z$0 004002ba f   FlashingDemo.obj
 0001:fffff2ba       __catch$??$?6U?$char_traits@D@std@@@std@@YAAAV?$basic_ostream@DU?$char_traits@D@std@@@0@AAV10@PBD@Z$0 004002ba f   ImageMappingDemo.obj
 0001:fffff2ba       __catch$??$?6U?$char_traits@D@std@@@std@@YAAAV?$basic_ostream@DU?$char_traits@D@std@@@0@AAV10@PBD@Z$0 004002ba f   Psyjl16Engine.obj
 0001:fffff2ba       __catch$??$?6U?$char_traits@D@std@@@std@@YAAAV?$basic_ostream@DU?$char_traits@D@std@@@0@AAV10@PBD@Z$0 004002ba f   SimpleDemo.obj
 0001:fffff2ba       __catch$??$?6U?$char_traits@D@std@@@std@@YAAAV?$basic_ostream@DU?$char_traits@D@std@@@0@AAV10@PBD@Z$0 004002ba f   SimpleImage.obj
 0001:fffff2ba       __catch$??$?6U?$char_traits@D@std@@@std@@YAAAV?$basic_ostream@DU?$char_traits@D@std@@@0@AAV10@PBD@Z$0 004002ba f   StarfieldDemo.obj
 0001:fffff2ba       __catch$??$?6U?$char_traits@D@std@@@std@@YAAAV?$basic_ostream@DU?$char_traits@D@std@@@0@AAV10@PBD@Z$0 004002ba f   ZoomingDemo.obj
 0001:00002b2c       $LN17                      00403b2c     DraggingDemo.obj
 0001:000039ca       __catch$??$?6U?$char_traits@D@std@@@std@@YAAAV?$basic_ostream@DU?$char_traits@D@std@@@0@AAV10@PBD@Z$0 004049ca f i DraggingDemo.obj
 0001:00004def       __catch$??$_Insert_string@DU?$char_traits@D@std@@I@std@@YAAAV?$basic_ostream@DU?$char_traits@D@std@@@0@AAV10@QBDI@Z$0 00405def f i DraggingDemo.obj
 0001:00005364       __catch$??$_Resize_reallocate@U_Value_init_tag@std@@@?$vector@PAVDisplayableObject@@V?$allocator@PAVDisplayableObject@@@std@@@std@@AAEXIABU_Value_init_tag@1@@Z$0 00406364 f i DraggingDemo.obj
 0001:00011300       $LN41                      00412300     FlashingDemo.obj
 0001:00011318       $LN42                      00412318     FlashingDemo.obj
 0001:00011330       $LN43                      00412330     FlashingDemo.obj
 0001:00011348       $LN44                      00412348     FlashingDemo.obj
 0001:0001140c       $LN9                       0041240c     FlashingDemo.obj
 0001:00011d1c       $LN15                      00412d1c     ImageMappingDemo.obj
 0001:00013258       $LN42                      00414258     Psyjl16Engine.obj
 0001:0001349c       $LN22                      0041449c     Psyjl16Engine.obj
 0001:00013f40       $LN63                      00414f40     Psyjl16Engine.obj
 0001:00015780       _time                      00416780 f   mainfunction.obj
 0001:000172a0       $LN46                      004182a0     BaseEngine.obj
 0001:00017720       ??R<lambda_57ee486f2f872818e4e1ef76732269ef>@@QBE@PAVDisplayableObject@@@Z 00418720 f   BaseEngine.obj
 0001:00017750       ??0<lambda_57ee486f2f872818e4e1ef76732269ef>@@QAE@ABQATSDL_Event@@@Z 00418750 f   BaseEngine.obj
 0001:00017770       ??R<lambda_83eb8fcb36b73c451092a4848be40800>@@QBE@PAVDisplayableObject@@@Z 00418770 f   BaseEngine.obj
 0001:000177a0       ??0<lambda_83eb8fcb36b73c451092a4848be40800>@@QAE@ABQATSDL_Event@@@Z 004187a0 f   BaseEngine.obj
 0001:000177c0       ??R<lambda_b68d6ab0d55fd1970844512a3930ef49>@@QBE@PAVDisplayableObject@@@Z 004187c0 f   BaseEngine.obj
 0001:00017800       ??0<lambda_b68d6ab0d55fd1970844512a3930ef49>@@QAE@QAVBaseEngine@@@Z 00418800 f   BaseEngine.obj
 0001:00017820       ??R<lambda_9a6d32bae543137263d1d545e39fdd7d>@@QBE@PAVDisplayableObject@@@Z 00418820 f   BaseEngine.obj
 0001:00017860       ??0<lambda_9a6d32bae543137263d1d545e39fdd7d>@@QAE@ABQATSDL_Event@@QAVBaseEngine@@@Z 00418860 f   BaseEngine.obj
 0001:00017890       ??R<lambda_aaa801efaf28ef4796b623796d655d59>@@QBE@PAVDisplayableObject@@@Z 00418890 f   BaseEngine.obj
 0001:000178d0       ??0<lambda_aaa801efaf28ef4796b623796d655d59>@@QAE@ABQATSDL_Event@@QAVBaseEngine@@@Z 004188d0 f   BaseEngine.obj
 0001:00018090       ??$for_each@V?$_Vector_iterator@V?$_Vector_val@U?$_Simple_types@PAVDisplayableObject@@@std@@@std@@@std@@V<lambda_57ee486f2f872818e4e1ef76732269ef>@@@std@@YA?AV<lambda_57ee486f2f872818e4e1ef76732269ef>@@V?$_Vector_iterator@V?$_Vector_val@U?$_Simple_types@PAVDisplayableObject@@@std@@@std@@@0@0V1@@Z 00419090 f   BaseEngine.obj
 0001:00018170       ??$for_each@V?$_Vector_iterator@V?$_Vector_val@U?$_Simple_types@PAVDisplayableObject@@@std@@@std@@@std@@V<lambda_83eb8fcb36b73c451092a4848be40800>@@@std@@YA?AV<lambda_83eb8fcb36b73c451092a4848be40800>@@V?$_Vector_iterator@V?$_Vector_val@U?$_Simple_types@PAVDisplayableObject@@@std@@@std@@@0@0V1@@Z 00419170 f   BaseEngine.obj
 0001:00018250       ??$for_each@V?$_Vector_iterator@V?$_Vector_val@U?$_Simple_types@PAVDisplayableObject@@@std@@@std@@@std@@V<lambda_9a6d32bae543137263d1d545e39fdd7d>@@@std@@YA?AV<lambda_9a6d32bae543137263d1d545e39fdd7d>@@V?$_Vector_iterator@V?$_Vector_val@U?$_Simple_types@PAVDisplayableObject@@@std@@@std@@@0@0V1@@Z 00419250 f   BaseEngine.obj
 0001:00018340       ??$for_each@V?$_Vector_iterator@V?$_Vector_val@U?$_Simple_types@PAVDisplayableObject@@@std@@@std@@@std@@V<lambda_aaa801efaf28ef4796b623796d655d59>@@@std@@YA?AV<lambda_aaa801efaf28ef4796b623796d655d59>@@V?$_Vector_iterator@V?$_Vector_val@U?$_Simple_types@PAVDisplayableObject@@@std@@@std@@@0@0V1@@Z 00419340 f   BaseEngine.obj
 0001:00018430       ??$for_each@V?$_Vector_iterator@V?$_Vector_val@U?$_Simple_types@PAVDisplayableObject@@@std@@@std@@@std@@V<lambda_b68d6ab0d55fd1970844512a3930ef49>@@@std@@YA?AV<lambda_b68d6ab0d55fd1970844512a3930ef49>@@V?$_Vector_iterator@V?$_Vector_val@U?$_Simple_types@PAVDisplayableObject@@@std@@@std@@@0@0V1@@Z 00419430 f   BaseEngine.obj
 0001:00018f40       $LN53                      00419f40     BaseEngine.obj
 0001:00018f5c       $LN52                      00419f5c     BaseEngine.obj
 0001:00018fd4       $LN55                      00419fd4     BaseEngine.obj
 0001:00019070       $LN54                      0041a070     BaseEngine.obj
 0001:0001c12c       $LN17                      0041d12c     SimpleDemo.obj
 0001:0001c79a       __catch$??$_Emplace_reallocate@ABQAVDisplayableObject@@@?$vector@PAVDisplayableObject@@V?$allocator@PAVDisplayableObject@@@std@@@std@@QAEPAPAVDisplayableObject@@QAPAV2@ABQAV2@@Z$0 0041d79a f i SimpleDemo.obj
 0001:0001d16c       $LN17                      0041e16c     StarfieldDemo.obj
 0001:0001d920       $LN23                      0041e920     BouncingBall.obj
 0001:0001ee6c       $LN17                      0041fe6c     BouncingBallMain.obj
 0001:00021864       $LN42                      00422864     MazeDemoObject.obj
 0001:00021880       $LN43                      00422880     MazeDemoObject.obj
 0001:00021bc8       $LN10                      00422bc8     MazeDemoObject.obj
 0001:00021c68       $LN10                      00422c68     MazeDemoObject.obj
 0001:00021df0       $LN14                      00422df0     MazeDemoTileManager.obj
 0001:00021f90       ?pre_c_initialization@@YAHXZ 00422f90 f   MSVCRTD:exe_main.obj
 0001:00022070       ?post_pgo_initialization@@YAHXZ 00423070 f   MSVCRTD:exe_main.obj
 0001:00022080       ?pre_cpp_initialization@@YAXXZ 00423080 f   MSVCRTD:exe_main.obj
 0001:000220a0       ?__scrt_common_main@@YAHXZ 004230a0 f   MSVCRTD:exe_main.obj
 0001:000220c0       ?__scrt_common_main_seh@@YAHXZ 004230c0 f   MSVCRTD:exe_main.obj
 0001:00022390       ?invoke_main@@YAHXZ        00423390 f   MSVCRTD:exe_main.obj
 0001:00022590       ?find_pe_section@@YAPAU_IMAGE_SECTION_HEADER@@QAEI@Z 00423590 f   MSVCRTD:utility.obj
 0001:00022640       ?is_potentially_valid_image_base@@YA_NQAX@Z 00423640 f   MSVCRTD:utility.obj
 0001:00022d50       ___get_entropy             00423d50 f   MSVCRTD:gs_support.obj
 0001:000235a0       ___castguard_compat_check  004245a0 f   MSVCRTD:guard_support.obj
 0001:00023700       ___castguard_slow_path_compat_check 00424700 f   MSVCRTD:guard_support.obj
 0001:00024200       _ParseCommandLine          00425200 f   SDL2main:SDL_windows_main.obj
 0001:00024360       _main_getcmdline           00425360 f   SDL2main:SDL_windows_main.obj
 0001:00026a90       __unwindfunclet$?virtInitialiseObjects@DraggingDemo@@UAEHXZ$0 00427a90 f   DraggingDemo.obj
 0001:00026a9f       __unwindfunclet$?virtInitialiseObjects@DraggingDemo@@UAEHXZ$1 00427a9f f   DraggingDemo.obj
 0001:00026aae       __unwindfunclet$?virtInitialiseObjects@DraggingDemo@@UAEHXZ$2 00427aae f   DraggingDemo.obj
 0001:00026abd       __unwindfunclet$?virtInitialiseObjects@DraggingDemo@@UAEHXZ$3 00427abd f   DraggingDemo.obj
 0001:00026acc       __unwindfunclet$?virtInitialiseObjects@DraggingDemo@@UAEHXZ$5 00427acc f   DraggingDemo.obj
 0001:00026ae0       __ehhandler$?virtInitialiseObjects@DraggingDemo@@UAEHXZ 00427ae0 f   DraggingDemo.obj
 0001:00026b20       __unwindfunclet$??$?0U?$pair@V?$basic_string@DU?$char_traits@D@std@@V?$allocator@D@2@@std@@V?$shared_ptr@VRawImageData@@@2@@std@@@?$_Tree_temp_node@V?$allocator@U?$_Tree_node@U?$pair@$$CBV?$basic_string@DU?$char_traits@D@std@@V?$allocator@D@2@@std@@V?$shared_ptr@VRawImageData@@@2@@std@@PAX@std@@@std@@@std@@QAE@AAV?$allocator@U?$_Tree_node@U?$pair@$$CBV?$basic_string@DU?$char_traits@D@std@@V?$allocator@D@2@@std@@V?$shared_ptr@VRawImageData@@@2@@std@@PAX@std@@@1@PAU?$_Tree_node@U?$pair@$$CBV?$basic_string@DU?$char_traits@D@std@@V?$allocator@D@2@@std@@V?$shared_ptr@VRawImageData@@@2@@std@@PAX@1@$$QAU?$pair@V?$basic_string@DU?$char_traits@D@std@@V?$allocator@D@2@@std@@V?$shared_ptr@VRawImageData@@@2@@1@@Z$0 00427b20 f   DraggingDemo.obj
 0001:00026b2d       __ehhandler$??$?0U?$pair@V?$basic_string@DU?$char_traits@D@std@@V?$allocator@D@2@@std@@V?$shared_ptr@VRawImageData@@@2@@std@@@?$_Tree_temp_node@V?$allocator@U?$_Tree_node@U?$pair@$$CBV?$basic_string@DU?$char_traits@D@std@@V?$allocator@D@2@@std@@V?$shared_ptr@VRawImageData@@@2@@std@@PAX@std@@@std@@@std@@QAE@AAV?$allocator@U?$_Tree_node@U?$pair@$$CBV?$basic_string@DU?$char_traits@D@std@@V?$allocator@D@2@@std@@V?$shared_ptr@VRawImageData@@@2@@std@@PAX@std@@@1@PAU?$_Tree_node@U?$pair@$$CBV?$basic_string@DU?$char_traits@D@std@@V?$allocator@D@2@@std@@V?$shared_ptr@VRawImageData@@@2@@std@@PAX@1@$$QAU?$pair@V?$basic_string@DU?$char_traits@D@std@@V?$allocator@D@2@@std@@V?$shared_ptr@VRawImageData@@@2@@1@@Z 00427b2d f   DraggingDemo.obj
 0001:00026b60       __unwindfunclet$??$?0U?$pair@V?$basic_string@DU?$char_traits@D@std@@V?$allocator@D@2@@std@@V?$weak_ptr@VRawImageData@@@2@@std@@@?$_Tree_temp_node@V?$allocator@U?$_Tree_node@U?$pair@$$CBV?$basic_string@DU?$char_traits@D@std@@V?$allocator@D@2@@std@@V?$weak_ptr@VRawImageData@@@2@@std@@PAX@std@@@std@@@std@@QAE@AAV?$allocator@U?$_Tree_node@U?$pair@$$CBV?$basic_string@DU?$char_traits@D@std@@V?$allocator@D@2@@std@@V?$weak_ptr@VRawImageData@@@2@@std@@PAX@std@@@1@PAU?$_Tree_node@U?$pair@$$CBV?$basic_string@DU?$char_traits@D@std@@V?$allocator@D@2@@std@@V?$weak_ptr@VRawImageData@@@2@@std@@PAX@1@$$QAU?$pair@V?$basic_string@DU?$char_traits@D@std@@V?$allocator@D@2@@std@@V?$weak_ptr@VRawImageData@@@2@@1@@Z$0 00427b60 f   DraggingDemo.obj
 0001:00026b6d       __ehhandler$??$?0U?$pair@V?$basic_string@DU?$char_traits@D@std@@V?$allocator@D@2@@std@@V?$weak_ptr@VRawImageData@@@2@@std@@@?$_Tree_temp_node@V?$allocator@U?$_Tree_node@U?$pair@$$CBV?$basic_string@DU?$char_traits@D@std@@V?$allocator@D@2@@std@@V?$weak_ptr@VRawImageData@@@2@@std@@PAX@std@@@std@@@std@@QAE@AAV?$allocator@U?$_Tree_node@U?$pair@$$CBV?$basic_string@DU?$char_traits@D@std@@V?$allocator@D@2@@std@@V?$weak_ptr@VRawImageData@@@2@@std@@PAX@std@@@1@PAU?$_Tree_node@U?$pair@$$CBV?$basic_string@DU?$char_traits@D@std@@V?$allocator@D@2@@std@@V?$weak_ptr@VRawImageData@@@2@@std@@PAX@1@$$QAU?$pair@V?$basic_string@DU?$char_traits@D@std@@V?$allocator@D@2@@std@@V?$weak_ptr@VRawImageData@@@2@@1@@Z 00427b6d f   DraggingDemo.obj
 0001:00026ba0       __unwindfunclet$??$?0VRawImageData@@$0A@@?$shared_ptr@VRawImageData@@@std@@QAE@PAVRawImageData@@@Z$0 00427ba0 f   DraggingDemo.obj
 0001:00026ba8       __unwindfunclet$??$?0VRawImageData@@$0A@@?$shared_ptr@VRawImageData@@@std@@QAE@PAVRawImageData@@@Z$1 00427ba8 f   DraggingDemo.obj
 0001:00026bbc       __ehhandler$??$?0VRawImageData@@$0A@@?$shared_ptr@VRawImageData@@@std@@QAE@PAVRawImageData@@@Z 00427bbc f   DraggingDemo.obj
 0001:00026bf0       __unwindfunclet$??$?6U?$char_traits@D@std@@@std@@YAAAV?$basic_ostream@DU?$char_traits@D@std@@@0@AAV10@PBD@Z$2 00427bf0 f   DraggingDemo.obj
 0001:00026bfd       __ehhandler$??$?6U?$char_traits@D@std@@@std@@YAAAV?$basic_ostream@DU?$char_traits@D@std@@@0@AAV10@PBD@Z 00427bfd f   DraggingDemo.obj
 0001:00026c30       __ehhandler$??$_Deallocate@$07$0A@@std@@YAXPAXI@Z 00427c30 f   DraggingDemo.obj
 0001:00026c60       __ehhandler$??$_Deallocate_plain@V?$allocator@U_Container_proxy@std@@@std@@@std@@YAXAAV?$allocator@U_Container_proxy@std@@@0@QAU_Container_proxy@0@@Z 00427c60 f   DraggingDemo.obj
 0001:00026c90       __ehhandler$??$_Freenode0@V?$allocator@U?$_Tree_node@U?$pair@$$CBV?$basic_string@DU?$char_traits@D@std@@V?$allocator@D@2@@std@@V?$weak_ptr@VRawImageData@@@2@@std@@PAX@std@@@std@@@?$_Tree_node@U?$pair@$$CBV?$basic_string@DU?$char_traits@D@std@@V?$allocator@D@2@@std@@V?$weak_ptr@VRawImageData@@@2@@std@@PAX@std@@SAXAAV?$allocator@U?$_Tree_node@U?$pair@$$CBV?$basic_string@DU?$char_traits@D@std@@V?$allocator@D@2@@std@@V?$weak_ptr@VRawImageData@@@2@@std@@PAX@std@@@1@PAU01@@Z 00427c90 f   DraggingDemo.obj
 0001:00026cc0       __ehhandler$??$_Freenode@V?$allocator@U?$_Tree_node@U?$pair@$$CBV?$basic_string@DU?$char_traits@D@std@@V?$allocator@D@2@@std@@V?$weak_ptr@VRawImageData@@@2@@std@@PAX@std@@@std@@@?$_Tree_node@U?$pair@$$CBV?$basic_string@DU?$char_traits@D@std@@V?$allocator@D@2@@std@@V?$weak_ptr@VRawImageData@@@2@@std@@PAX@std@@SAXAAV?$allocator@U?$_Tree_node@U?$pair@$$CBV?$basic_string@DU?$char_traits@D@std@@V?$allocator@D@2@@std@@V?$weak_ptr@VRawImageData@@@2@@std@@PAX@std@@@1@PAU01@@Z 00427cc0 f   DraggingDemo.obj
 0001:00026cf0       __unwindfunclet$??$_Insert_string@DU?$char_traits@D@std@@I@std@@YAAAV?$basic_ostream@DU?$char_traits@D@std@@@0@AAV10@QBDI@Z$2 00427cf0 f   DraggingDemo.obj
 0001:00026cfd       __ehhandler$??$_Insert_string@DU?$char_traits@D@std@@I@std@@YAAAV?$basic_ostream@DU?$char_traits@D@std@@@0@AAV10@QBDI@Z 00427cfd f   DraggingDemo.obj
 0001:00026d30       __ehhandler$??$_Resize_reallocate@U_Value_init_tag@std@@@?$vector@PAVDisplayableObject@@V?$allocator@PAVDisplayableObject@@@std@@@std@@AAEXIABU_Value_init_tag@1@@Z 00427d30 f   DraggingDemo.obj
 0001:00026d60       __unwindfunclet$??$_Uninitialized_move@PAPAVDisplayableObject@@V?$allocator@PAVDisplayableObject@@@std@@@std@@YAPAPAVDisplayableObject@@QAPAV1@0PAPAV1@AAV?$allocator@PAVDisplayableObject@@@0@@Z$0 00427d60 f   DraggingDemo.obj
 0001:00026d6d       __ehhandler$??$_Uninitialized_move@PAPAVDisplayableObject@@V?$allocator@PAVDisplayableObject@@@std@@@std@@YAPAPAVDisplayableObject@@QAPAV1@0PAPAV1@AAV?$allocator@PAVDisplayableObject@@@0@@Z 00427d6d f   DraggingDemo.obj
 0001:00026da0       __unwindfunclet$??$_Uninitialized_value_construct_n@V?$allocator@PAVDisplayableObject@@@std@@@std@@YAPAPAVDisplayableObject@@PAPAV1@IAAV?$allocator@PAVDisplayableObject@@@0@@Z$0 00427da0 f   DraggingDemo.obj
 0001:00026dad       __ehhandler$??$_Uninitialized_value_construct_n@V?$allocator@PAVDisplayableObject@@@std@@@std@@YAPAPAVDisplayableObject@@PAPAV1@IAAV?$allocator@PAVDisplayableObject@@@0@@Z 00427dad f   DraggingDemo.obj
 0001:00026de0       __unwindfunclet$??0?$_Tree_temp_node_alloc@V?$allocator@U?$_Tree_node@U?$pair@$$CBV?$basic_string@DU?$char_traits@D@std@@V?$allocator@D@2@@std@@V?$shared_ptr@VRawImageData@@@2@@std@@PAX@std@@@std@@@std@@QAE@AAV?$allocator@U?$_Tree_node@U?$pair@$$CBV?$basic_string@DU?$char_traits@D@std@@V?$allocator@D@2@@std@@V?$shared_ptr@VRawImageData@@@2@@std@@PAX@std@@@1@@Z$0 00427de0 f   DraggingDemo.obj
 0001:00026ded       __ehhandler$??0?$_Tree_temp_node_alloc@V?$allocator@U?$_Tree_node@U?$pair@$$CBV?$basic_string@DU?$char_traits@D@std@@V?$allocator@D@2@@std@@V?$shared_ptr@VRawImageData@@@2@@std@@PAX@std@@@std@@@std@@QAE@AAV?$allocator@U?$_Tree_node@U?$pair@$$CBV?$basic_string@DU?$char_traits@D@std@@V?$allocator@D@2@@std@@V?$shared_ptr@VRawImageData@@@2@@std@@PAX@std@@@1@@Z 00427ded f   DraggingDemo.obj
 0001:00026e20       __unwindfunclet$??0?$_Tree_temp_node_alloc@V?$allocator@U?$_Tree_node@U?$pair@$$CBV?$basic_string@DU?$char_traits@D@std@@V?$allocator@D@2@@std@@V?$weak_ptr@VRawImageData@@@2@@std@@PAX@std@@@std@@@std@@QAE@AAV?$allocator@U?$_Tree_node@U?$pair@$$CBV?$basic_string@DU?$char_traits@D@std@@V?$allocator@D@2@@std@@V?$weak_ptr@VRawImageData@@@2@@std@@PAX@std@@@1@@Z$0 00427e20 f   DraggingDemo.obj
 0001:00026e2d       __ehhandler$??0?$_Tree_temp_node_alloc@V?$allocator@U?$_Tree_node@U?$pair@$$CBV?$basic_string@DU?$char_traits@D@std@@V?$allocator@D@2@@std@@V?$weak_ptr@VRawImageData@@@2@@std@@PAX@std@@@std@@@std@@QAE@AAV?$allocator@U?$_Tree_node@U?$pair@$$CBV?$basic_string@DU?$char_traits@D@std@@V?$allocator@D@2@@std@@V?$weak_ptr@VRawImageData@@@2@@std@@PAX@std@@@1@@Z 00427e2d f   DraggingDemo.obj
 0001:00026e60       __ehhandler$??0?$basic_string@DU?$char_traits@D@std@@V?$allocator@D@2@@std@@QAE@$$QAV01@@Z 00427e60 f   DraggingDemo.obj
 0001:00026e90       __unwindfunclet$??0?$basic_string@DU?$char_traits@D@std@@V?$allocator@D@2@@std@@QAE@ABV01@@Z$0 00427e90 f   DraggingDemo.obj
 0001:00026e98       __unwindfunclet$??0?$basic_string@DU?$char_traits@D@std@@V?$allocator@D@2@@std@@QAE@ABV01@@Z$1 00427e98 f   DraggingDemo.obj
 0001:00026ea5       __ehhandler$??0?$basic_string@DU?$char_traits@D@std@@V?$allocator@D@2@@std@@QAE@ABV01@@Z 00427ea5 f   DraggingDemo.obj
 0001:00026ed0       __unwindfunclet$??0?$basic_string@DU?$char_traits@D@std@@V?$allocator@D@2@@std@@QAE@QBD@Z$0 00427ed0 f   DraggingDemo.obj
 0001:00026ed8       __unwindfunclet$??0?$basic_string@DU?$char_traits@D@std@@V?$allocator@D@2@@std@@QAE@QBD@Z$1 00427ed8 f   DraggingDemo.obj
 0001:00026ee5       __ehhandler$??0?$basic_string@DU?$char_traits@D@std@@V?$allocator@D@2@@std@@QAE@QBD@Z 00427ee5 f   DraggingDemo.obj
 0001:00026f10       __unwindfunclet$??0DragableImageObject@@QAE@HHPAVBaseEngine@@V?$basic_string@DU?$char_traits@D@std@@V?$allocator@D@2@@std@@_N2@Z$0 00427f10 f   DraggingDemo.obj
 0001:00026f18       __unwindfunclet$??0DragableImageObject@@QAE@HHPAVBaseEngine@@V?$basic_string@DU?$char_traits@D@std@@V?$allocator@D@2@@std@@_N2@Z$1 00427f18 f   DraggingDemo.obj
 0001:00026f20       __unwindfunclet$??0DragableImageObject@@QAE@HHPAVBaseEngine@@V?$basic_string@DU?$char_traits@D@std@@V?$allocator@D@2@@std@@_N2@Z$2 00427f20 f   DraggingDemo.obj
 0001:00026f28       __unwindfunclet$??0DragableImageObject@@QAE@HHPAVBaseEngine@@V?$basic_string@DU?$char_traits@D@std@@V?$allocator@D@2@@std@@_N2@Z$3 00427f28 f   DraggingDemo.obj
 0001:00026f38       __ehhandler$??0DragableImageObject@@QAE@HHPAVBaseEngine@@V?$basic_string@DU?$char_traits@D@std@@V?$allocator@D@2@@std@@_N2@Z 00427f38 f   DraggingDemo.obj
 0001:00026f70       __unwindfunclet$??0DragableObject@@QAE@HHPAVBaseEngine@@HH_N1@Z$0 00427f70 f   DraggingDemo.obj
 0001:00026f7d       __ehhandler$??0DragableObject@@QAE@HHPAVBaseEngine@@HH_N1@Z 00427f7d f   DraggingDemo.obj
 0001:00026fb0       __unwindfunclet$??0DragableObject@@QAE@PAVBaseEngine@@HH_N1@Z$0 00427fb0 f   DraggingDemo.obj
 0001:00026fbd       __ehhandler$??0DragableObject@@QAE@PAVBaseEngine@@HH_N1@Z 00427fbd f   DraggingDemo.obj
 0001:00026ff0       __unwindfunclet$??0ImageManager@@QAE@XZ$0 00427ff0 f   DraggingDemo.obj
 0001:00026ffd       __ehhandler$??0ImageManager@@QAE@XZ 00427ffd f   DraggingDemo.obj
 0001:00027030       __unwindfunclet$??0ImageObject@@QAE@HHPAVBaseEngine@@V?$basic_string@DU?$char_traits@D@std@@V?$allocator@D@2@@std@@_N2@Z$0 00428030 f   DraggingDemo.obj
 0001:00027038       __unwindfunclet$??0ImageObject@@QAE@HHPAVBaseEngine@@V?$basic_string@DU?$char_traits@D@std@@V?$allocator@D@2@@std@@_N2@Z$1 00428038 f   DraggingDemo.obj
 0001:00027040       __unwindfunclet$??0ImageObject@@QAE@HHPAVBaseEngine@@V?$basic_string@DU?$char_traits@D@std@@V?$allocator@D@2@@std@@_N2@Z$2 00428040 f   DraggingDemo.obj
 0001:00027048       __unwindfunclet$??0ImageObject@@QAE@HHPAVBaseEngine@@V?$basic_string@DU?$char_traits@D@std@@V?$allocator@D@2@@std@@_N2@Z$3 00428048 f   DraggingDemo.obj
 0001:00027058       __ehhandler$??0ImageObject@@QAE@HHPAVBaseEngine@@V?$basic_string@DU?$char_traits@D@std@@V?$allocator@D@2@@std@@_N2@Z 00428058 f   DraggingDemo.obj
 0001:00027090       __unwindfunclet$??0RawImageData@@QAE@V?$basic_string@DU?$char_traits@D@std@@V?$allocator@D@2@@std@@@Z$0 00428090 f   DraggingDemo.obj
 0001:0002709d       __ehhandler$??0RawImageData@@QAE@V?$basic_string@DU?$char_traits@D@std@@V?$allocator@D@2@@std@@@Z 0042809d f   DraggingDemo.obj
 0001:000270d0       __unwindfunclet$??0sentry@?$basic_ostream@DU?$char_traits@D@std@@@std@@QAE@AAV12@@Z$0 004280d0 f   DraggingDemo.obj
 0001:000270dd       __ehhandler$??0sentry@?$basic_ostream@DU?$char_traits@D@std@@@std@@QAE@AAV12@@Z 004280dd f   DraggingDemo.obj
 0001:00027110       __ehhandler$??1?$_Alloc_construct_ptr@V?$allocator@U?$_Tree_node@U?$pair@$$CBV?$basic_string@DU?$char_traits@D@std@@V?$allocator@D@2@@std@@V?$shared_ptr@VRawImageData@@@2@@std@@PAX@std@@@std@@@std@@QAE@XZ 00428110 f   DraggingDemo.obj
 0001:00027140       __ehhandler$??1?$_Alloc_construct_ptr@V?$allocator@U?$_Tree_node@U?$pair@$$CBV?$basic_string@DU?$char_traits@D@std@@V?$allocator@D@2@@std@@V?$weak_ptr@VRawImageData@@@2@@std@@PAX@std@@@std@@@std@@QAE@XZ 00428140 f   DraggingDemo.obj
 0001:00027170       __ehhandler$??1?$_Tree_temp_node@V?$allocator@U?$_Tree_node@U?$pair@$$CBV?$basic_string@DU?$char_traits@D@std@@V?$allocator@D@2@@std@@V?$shared_ptr@VRawImageData@@@2@@std@@PAX@std@@@std@@@std@@QAE@XZ 00428170 f   DraggingDemo.obj
 0001:000271a0       __ehhandler$??1?$_Tree_temp_node@V?$allocator@U?$_Tree_node@U?$pair@$$CBV?$basic_string@DU?$char_traits@D@std@@V?$allocator@D@2@@std@@V?$weak_ptr@VRawImageData@@@2@@std@@PAX@std@@@std@@@std@@QAE@XZ 004281a0 f   DraggingDemo.obj
 0001:000271d0       __ehhandler$??1RawImageData@@QAE@XZ 004281d0 f   DraggingDemo.obj
 0001:00027200       __ehhandler$??1_Sentry_base@?$basic_ostream@DU?$char_traits@D@std@@@std@@QAE@XZ 00428200 f   DraggingDemo.obj
 0001:00027230       __ehhandler$??1sentry@?$basic_ostream@DU?$char_traits@D@std@@@std@@QAE@XZ 00428230 f   DraggingDemo.obj
 0001:00027260       __unwindfunclet$?_Alloc_sentinel_and_proxy@?$_Tree@V?$_Tmap_traits@V?$basic_string@DU?$char_traits@D@std@@V?$allocator@D@2@@std@@V?$shared_ptr@VRawImageData@@@2@U?$less@V?$basic_string@DU?$char_traits@D@std@@V?$allocator@D@2@@std@@@2@V?$allocator@U?$pair@$$CBV?$basic_string@DU?$char_traits@D@std@@V?$allocator@D@2@@std@@V?$shared_ptr@VRawImageData@@@2@@std@@@2@$0A@@std@@@std@@IAEXXZ$0 00428260 f   DraggingDemo.obj
 0001:0002726d       __ehhandler$?_Alloc_sentinel_and_proxy@?$_Tree@V?$_Tmap_traits@V?$basic_string@DU?$char_traits@D@std@@V?$allocator@D@2@@std@@V?$shared_ptr@VRawImageData@@@2@U?$less@V?$basic_string@DU?$char_traits@D@std@@V?$allocator@D@2@@std@@@2@V?$allocator@U?$pair@$$CBV?$basic_string@DU?$char_traits@D@std@@V?$allocator@D@2@@std@@V?$shared_ptr@VRawImageData@@@2@@std@@@2@$0A@@std@@@std@@IAEXXZ 0042826d f   DraggingDemo.obj
 0001:000272a0       __unwindfunclet$?_Alloc_sentinel_and_proxy@?$_Tree@V?$_Tmap_traits@V?$basic_string@DU?$char_traits@D@std@@V?$allocator@D@2@@std@@V?$weak_ptr@VRawImageData@@@2@U?$less@V?$basic_string@DU?$char_traits@D@std@@V?$allocator@D@2@@std@@@2@V?$allocator@U?$pair@$$CBV?$basic_string@DU?$char_traits@D@std@@V?$allocator@D@2@@std@@V?$weak_ptr@VRawImageData@@@2@@std@@@2@$0A@@std@@@std@@IAEXXZ$0 004282a0 f   DraggingDemo.obj
 0001:000272ad       __ehhandler$?_Alloc_sentinel_and_proxy@?$_Tree@V?$_Tmap_traits@V?$basic_string@DU?$char_traits@D@std@@V?$allocator@D@2@@std@@V?$weak_ptr@VRawImageData@@@2@U?$less@V?$basic_string@DU?$char_traits@D@std@@V?$allocator@D@2@@std@@@2@V?$allocator@U?$pair@$$CBV?$basic_string@DU?$char_traits@D@std@@V?$allocator@D@2@@std@@V?$weak_ptr@VRawImageData@@@2@@std@@@2@$0A@@std@@@std@@IAEXXZ 004282ad f   DraggingDemo.obj
 0001:000272e0       __unwindfunclet$?_Orphan_range_locked@?$vector@PAVDisplayableObject@@V?$allocator@PAVDisplayableObject@@@std@@@std@@ABEXPAPAVDisplayableObject@@0@Z$0 004282e0 f   DraggingDemo.obj
 0001:000272ee       __ehhandler$?_Orphan_range_locked@?$vector@PAVDisplayableObject@@V?$allocator@PAVDisplayableObject@@@std@@@std@@ABEXPAPAVDisplayableObject@@0@Z 004282ee f   DraggingDemo.obj
 0001:00027320       __ehhandler$?_Take_contents@?$basic_string@DU?$char_traits@D@std@@V?$allocator@D@2@@std@@AAEXAAV12@@Z 00428320 f   DraggingDemo.obj
 0001:00027350       __ehhandler$?_Tidy_deallocate@?$basic_string@DU?$char_traits@D@std@@V?$allocator@D@2@@std@@AAEXXZ 00428350 f   DraggingDemo.obj
 0001:00027380       __unwindfunclet$?get@ImageManager@@SAPAV1@XZ$0 00428380 f   DraggingDemo.obj
 0001:00027394       __ehhandler$?get@ImageManager@@SAPAV1@XZ 00428394 f   DraggingDemo.obj
 0001:000273c0       __unwindfunclet$?getImagePtrbyURL@ImageManager@@QAE?AV?$shared_ptr@VRawImageData@@@std@@V?$basic_string@DU?$char_traits@D@std@@V?$allocator@D@2@@3@_N1@Z$0 004283c0 f   DraggingDemo.obj
 0001:000273c8       __unwindfunclet$?getImagePtrbyURL@ImageManager@@QAE?AV?$shared_ptr@VRawImageData@@@std@@V?$basic_string@DU?$char_traits@D@std@@V?$allocator@D@2@@3@_N1@Z$1 004283c8 f   DraggingDemo.obj
 0001:000273d0       __unwindfunclet$?getImagePtrbyURL@ImageManager@@QAE?AV?$shared_ptr@VRawImageData@@@std@@V?$basic_string@DU?$char_traits@D@std@@V?$allocator@D@2@@3@_N1@Z$9 004283d0 f   DraggingDemo.obj
 0001:000273d8       __unwindfunclet$?getImagePtrbyURL@ImageManager@@QAE?AV?$shared_ptr@VRawImageData@@@std@@V?$basic_string@DU?$char_traits@D@std@@V?$allocator@D@2@@3@_N1@Z$10 004283d8 f   DraggingDemo.obj
 0001:000273e3       __unwindfunclet$?getImagePtrbyURL@ImageManager@@QAE?AV?$shared_ptr@VRawImageData@@@std@@V?$basic_string@DU?$char_traits@D@std@@V?$allocator@D@2@@3@_N1@Z$11 004283e3 f   DraggingDemo.obj
 0001:000273eb       __unwindfunclet$?getImagePtrbyURL@ImageManager@@QAE?AV?$shared_ptr@VRawImageData@@@std@@V?$basic_string@DU?$char_traits@D@std@@V?$allocator@D@2@@3@_N1@Z$13 004283eb f   DraggingDemo.obj
 0001:000273f8       __ehhandler$?getImagePtrbyURL@ImageManager@@QAE?AV?$shared_ptr@VRawImageData@@@std@@V?$basic_string@DU?$char_traits@D@std@@V?$allocator@D@2@@3@_N1@Z 004283f8 f   DraggingDemo.obj
 0001:00027440       __unwindfunclet$?getImagebyURL@ImageManager@@QAE?AVSimpleImage@@V?$basic_string@DU?$char_traits@D@std@@V?$allocator@D@2@@std@@_N1@Z$0 00428440 f   DraggingDemo.obj
 0001:0002744d       __ehhandler$?getImagebyURL@ImageManager@@QAE?AVSimpleImage@@V?$basic_string@DU?$char_traits@D@std@@V?$allocator@D@2@@std@@_N1@Z 0042844d f   DraggingDemo.obj
 0001:00027480       __unwindfunclet$?loadAsNew@ImageManager@@QAE?AV?$shared_ptr@VRawImageData@@@std@@V?$basic_string@DU?$char_traits@D@std@@V?$allocator@D@2@@3@@Z$0 00428480 f   DraggingDemo.obj
 0001:00027488       __unwindfunclet$?loadAsNew@ImageManager@@QAE?AV?$shared_ptr@VRawImageData@@@std@@V?$basic_string@DU?$char_traits@D@std@@V?$allocator@D@2@@3@@Z$1 00428488 f   DraggingDemo.obj
 0001:0002749c       __ehhandler$?loadAsNew@ImageManager@@QAE?AV?$shared_ptr@VRawImageData@@@std@@V?$basic_string@DU?$char_traits@D@std@@V?$allocator@D@2@@3@@Z 0042849c f   DraggingDemo.obj
 0001:000274d0       __unwindfunclet$?loadImage@RawImageData@@QAE_NV?$basic_string@DU?$char_traits@D@std@@V?$allocator@D@2@@std@@HHHHH_N@Z$0 004284d0 f   DraggingDemo.obj
 0001:000274dd       __ehhandler$?loadImage@RawImageData@@QAE_NV?$basic_string@DU?$char_traits@D@std@@V?$allocator@D@2@@std@@HHHHH_N@Z 004284dd f   DraggingDemo.obj
 0001:00027510       __unwindfunclet$??0FlashingDemo@@QAE@XZ$0 00428510 f   FlashingDemo.obj
 0001:00027518       __unwindfunclet$??0FlashingDemo@@QAE@XZ$1 00428518 f   FlashingDemo.obj
 0001:00027526       __unwindfunclet$??0FlashingDemo@@QAE@XZ$2 00428526 f   FlashingDemo.obj
 0001:00027539       __ehhandler$??0FlashingDemo@@QAE@XZ 00428539 f   FlashingDemo.obj
 0001:00027570       __unwindfunclet$?virtInitialiseObjects@ImageMappingDemo@@UAEHXZ$0 00428570 f   ImageMappingDemo.obj
 0001:0002757f       __unwindfunclet$?virtInitialiseObjects@ImageMappingDemo@@UAEHXZ$2 0042857f f   ImageMappingDemo.obj
 0001:0002758e       __unwindfunclet$?virtInitialiseObjects@ImageMappingDemo@@UAEHXZ$4 0042858e f   ImageMappingDemo.obj
 0001:0002759d       __unwindfunclet$?virtInitialiseObjects@ImageMappingDemo@@UAEHXZ$6 0042859d f   ImageMappingDemo.obj
 0001:000275ac       __unwindfunclet$?virtInitialiseObjects@ImageMappingDemo@@UAEHXZ$8 004285ac f   ImageMappingDemo.obj
 0001:000275c0       __ehhandler$?virtInitialiseObjects@ImageMappingDemo@@UAEHXZ 004285c0 f   ImageMappingDemo.obj
 0001:00027600       __unwindfunclet$??0MappableImageObject@@QAE@PAVImagePixelMapping@@HHPAVBaseEngine@@V?$basic_string@DU?$char_traits@D@std@@V?$allocator@D@2@@std@@_N3@Z$0 00428600 f   ImageMappingDemo.obj
 0001:0002760d       __ehhandler$??0MappableImageObject@@QAE@PAVImagePixelMapping@@HHPAVBaseEngine@@V?$basic_string@DU?$char_traits@D@std@@V?$allocator@D@2@@std@@_N3@Z 0042860d f   ImageMappingDemo.obj
 0001:00027640       __unwindfunclet$?virtInitialiseObjects@Psyjl16Engine@@UAEHXZ$1 00428640 f   Psyjl16Engine.obj
 0001:0002764b       __unwindfunclet$?virtInitialiseObjects@Psyjl16Engine@@UAEHXZ$2 0042864b f   Psyjl16Engine.obj
 0001:0002765a       __unwindfunclet$?virtInitialiseObjects@Psyjl16Engine@@UAEHXZ$5 0042865a f   Psyjl16Engine.obj
 0001:00027665       __unwindfunclet$?virtInitialiseObjects@Psyjl16Engine@@UAEHXZ$6 00428665 f   Psyjl16Engine.obj
 0001:00027674       __unwindfunclet$?virtInitialiseObjects@Psyjl16Engine@@UAEHXZ$8 00428674 f   Psyjl16Engine.obj
 0001:00027683       __unwindfunclet$?virtInitialiseObjects@Psyjl16Engine@@UAEHXZ$9 00428683 f   Psyjl16Engine.obj
 0001:00027692       __unwindfunclet$?virtInitialiseObjects@Psyjl16Engine@@UAEHXZ$10 00428692 f   Psyjl16Engine.obj
 0001:000276a1       __unwindfunclet$?virtInitialiseObjects@Psyjl16Engine@@UAEHXZ$11 004286a1 f   Psyjl16Engine.obj
 0001:000276b0       __unwindfunclet$?virtInitialiseObjects@Psyjl16Engine@@UAEHXZ$12 004286b0 f   Psyjl16Engine.obj
 0001:000276bf       __unwindfunclet$?virtInitialiseObjects@Psyjl16Engine@@UAEHXZ$13 004286bf f   Psyjl16Engine.obj
 0001:000276ce       __unwindfunclet$?virtInitialiseObjects@Psyjl16Engine@@UAEHXZ$14 004286ce f   Psyjl16Engine.obj
 0001:000276dd       __unwindfunclet$?virtInitialiseObjects@Psyjl16Engine@@UAEHXZ$15 004286dd f   Psyjl16Engine.obj
 0001:000276ef       __unwindfunclet$?virtInitialiseObjects@Psyjl16Engine@@UAEHXZ$16 004286ef f   Psyjl16Engine.obj
 0001:00027701       __unwindfunclet$?virtInitialiseObjects@Psyjl16Engine@@UAEHXZ$17 00428701 f   Psyjl16Engine.obj
 0001:00027713       __unwindfunclet$?virtInitialiseObjects@Psyjl16Engine@@UAEHXZ$18 00428713 f   Psyjl16Engine.obj
 0001:00027725       __unwindfunclet$?virtInitialiseObjects@Psyjl16Engine@@UAEHXZ$19 00428725 f   Psyjl16Engine.obj
 0001:00027737       __unwindfunclet$?virtInitialiseObjects@Psyjl16Engine@@UAEHXZ$20 00428737 f   Psyjl16Engine.obj
 0001:00027749       __unwindfunclet$?virtInitialiseObjects@Psyjl16Engine@@UAEHXZ$21 00428749 f   Psyjl16Engine.obj
 0001:00027760       __ehhandler$?virtInitialiseObjects@Psyjl16Engine@@UAEHXZ 00428760 f   Psyjl16Engine.obj
 0001:00027780       __unwindfunclet$?setAllObjectsVisible@DisplayableObjectContainer@@QBEX_N@Z$0 00428780 f   Psyjl16Engine.obj
 0001:0002778d       __ehhandler$?setAllObjectsVisible@DisplayableObjectContainer@@QBEX_N@Z 0042878d f   Psyjl16Engine.obj
 0001:000277d0       __unwindfunclet$??0MyCharacter@@QAE@PAVBaseEngine@@VSimpleImage@@@Z$0 004287d0 f   Psyjl16Engine.obj
 0001:000277dd       __ehhandler$??0MyCharacter@@QAE@PAVBaseEngine@@VSimpleImage@@@Z 004287dd f   Psyjl16Engine.obj
 0001:00027810       __unwindfunclet$??0MyEnemy@@QAE@PAVBaseEngine@@VSimpleImage@@PAVMyObjectB@@H@Z$0 00428810 f   Psyjl16Engine.obj
 0001:00027818       __unwindfunclet$??0MyEnemy@@QAE@PAVBaseEngine@@VSimpleImage@@PAVMyObjectB@@H@Z$2 00428818 f   Psyjl16Engine.obj
 0001:00027825       __ehhandler$??0MyEnemy@@QAE@PAVBaseEngine@@VSimpleImage@@PAVMyObjectB@@H@Z 00428825 f   Psyjl16Engine.obj
 0001:00027850       __unwindfunclet$??0MyObjectB@@QAE@PAVBaseEngine@@VSimpleImage@@@Z$0 00428850 f   Psyjl16Engine.obj
 0001:00027858       __unwindfunclet$??0MyObjectB@@QAE@PAVBaseEngine@@VSimpleImage@@@Z$1 00428858 f   Psyjl16Engine.obj
 0001:00027865       __ehhandler$??0MyObjectB@@QAE@PAVBaseEngine@@VSimpleImage@@@Z 00428865 f   Psyjl16Engine.obj
 0001:00027890       __unwindfunclet$??0MyTextBar@@QAE@PAVBaseEngine@@@Z$0 00428890 f   Psyjl16Engine.obj
 0001:000278a4       __ehhandler$??0MyTextBar@@QAE@PAVBaseEngine@@@Z 004288a4 f   Psyjl16Engine.obj
 0001:000278d0       __unwindfunclet$?loadImage@ImageManager@@SA?AVSimpleImage@@V?$basic_string@DU?$char_traits@D@std@@V?$allocator@D@2@@std@@_N@Z$0 004288d0 f   Psyjl16Engine.obj
 0001:000278d8       __unwindfunclet$?loadImage@ImageManager@@SA?AVSimpleImage@@V?$basic_string@DU?$char_traits@D@std@@V?$allocator@D@2@@std@@_N@Z$1 004288d8 f   Psyjl16Engine.obj
 0001:000278e5       __ehhandler$?loadImage@ImageManager@@SA?AVSimpleImage@@V?$basic_string@DU?$char_traits@D@std@@V?$allocator@D@2@@std@@_N@Z 004288e5 f   Psyjl16Engine.obj
 0001:00027910       __unwindfunclet$?doProgram@@YAHHQAPAD@Z$0 00428910 f   mainfunction.obj
 0001:00027920       __ehhandler$?doProgram@@YAHHQAPAD@Z 00428920 f   mainfunction.obj
 0001:00027960       __ehhandler$??$_Freenode0@V?$allocator@U?$_Tree_node@U?$pair@$$CBV?$basic_string@DU?$char_traits@D@std@@V?$allocator@D@2@@std@@V?$shared_ptr@VRawImageData@@@2@@std@@PAX@std@@@std@@@?$_Tree_node@U?$pair@$$CBV?$basic_string@DU?$char_traits@D@std@@V?$allocator@D@2@@std@@V?$shared_ptr@VRawImageData@@@2@@std@@PAX@std@@SAXAAV?$allocator@U?$_Tree_node@U?$pair@$$CBV?$basic_string@DU?$char_traits@D@std@@V?$allocator@D@2@@std@@V?$shared_ptr@VRawImageData@@@2@@std@@PAX@std@@@1@PAU01@@Z 00428960 f   mainfunction.obj
 0001:00027990       __ehhandler$??$_Freenode@V?$allocator@U?$_Tree_node@U?$pair@$$CBV?$basic_string@DU?$char_traits@D@std@@V?$allocator@D@2@@std@@V?$shared_ptr@VRawImageData@@@2@@std@@PAX@std@@@std@@@?$_Tree_node@U?$pair@$$CBV?$basic_string@DU?$char_traits@D@std@@V?$allocator@D@2@@std@@V?$shared_ptr@VRawImageData@@@2@@std@@PAX@std@@SAXAAV?$allocator@U?$_Tree_node@U?$pair@$$CBV?$basic_string@DU?$char_traits@D@std@@V?$allocator@D@2@@std@@V?$shared_ptr@VRawImageData@@@2@@std@@PAX@std@@@1@PAU01@@Z 00428990 f   mainfunction.obj
 0001:000279c0       __unwindfunclet$??0Psyjl16Engine@@QAE@XZ$0 004289c0 f   mainfunction.obj
 0001:000279cd       __ehhandler$??0Psyjl16Engine@@QAE@XZ 004289cd f   mainfunction.obj
 0001:00027a00       __unwindfunclet$??0Psyjl16TileManager@@QAE@XZ$0 00428a00 f   mainfunction.obj
 0001:00027a0d       __ehhandler$??0Psyjl16TileManager@@QAE@XZ 00428a0d f   mainfunction.obj
 0001:00027a40       __unwindfunclet$??0BaseEngine@@QAE@XZ$0 00428a40 f   BaseEngine.obj
 0001:00027a48       __unwindfunclet$??0BaseEngine@@QAE@XZ$1 00428a48 f   BaseEngine.obj
 0001:00027a56       __unwindfunclet$??0BaseEngine@@QAE@XZ$2 00428a56 f   BaseEngine.obj
 0001:00027a69       __ehhandler$??0BaseEngine@@QAE@XZ 00428a69 f   BaseEngine.obj
 0001:00027a86       __unwindfunclet$?drawAllObjects@BaseEngine@@UAEXXZ$0 00428a86 f   BaseEngine.obj
 0001:00027a8e       __unwindfunclet$?drawAllObjects@BaseEngine@@UAEXXZ$3 00428a8e f   BaseEngine.obj
 0001:00027a9b       __ehhandler$?drawAllObjects@BaseEngine@@UAEXXZ 00428a9b f   BaseEngine.obj
 0001:00027ab8       __unwindfunclet$?updateAllObjects@BaseEngine@@UAEXH@Z$0 00428ab8 f   BaseEngine.obj
 0001:00027ac0       __unwindfunclet$?updateAllObjects@BaseEngine@@UAEXH@Z$3 00428ac0 f   BaseEngine.obj
 0001:00027acd       __ehhandler$?updateAllObjects@BaseEngine@@UAEXH@Z 00428acd f   BaseEngine.obj
 0001:00027af0       __ehhandler$?pop_back@?$basic_string@DU?$char_traits@D@std@@V?$allocator@D@2@@std@@QAEXXZ 00428af0 f   MyTextBar.obj
 0001:00027b20       __unwindfunclet$??$_Construct_n_copies_of_ty@U_Value_init_tag@std@@@?$vector@PAVDisplayableObject@@V?$allocator@PAVDisplayableObject@@@std@@@std@@AAEXIABU_Value_init_tag@1@@Z$0 00428b20 f   BaseEngine.obj
 0001:00027b28       __unwindfunclet$??$_Construct_n_copies_of_ty@U_Value_init_tag@std@@@?$vector@PAVDisplayableObject@@V?$allocator@PAVDisplayableObject@@@std@@@std@@AAEXIABU_Value_init_tag@1@@Z$1 00428b28 f   BaseEngine.obj
 0001:00027b35       __ehhandler$??$_Construct_n_copies_of_ty@U_Value_init_tag@std@@@?$vector@PAVDisplayableObject@@V?$allocator@PAVDisplayableObject@@@std@@@std@@AAEXIABU_Value_init_tag@1@@Z 00428b35 f   BaseEngine.obj
 0001:00027b60       __unwindfunclet$??$for_each@V?$_Vector_iterator@V?$_Vector_val@U?$_Simple_types@PAVDisplayableObject@@@std@@@std@@@std@@V<lambda_57ee486f2f872818e4e1ef76732269ef>@@@std@@YA?AV<lambda_57ee486f2f872818e4e1ef76732269ef>@@V?$_Vector_iterator@V?$_Vector_val@U?$_Simple_types@PAVDisplayableObject@@@std@@@std@@@0@0V1@@Z$0 00428b60 f   BaseEngine.obj
 0001:00027b68       __unwindfunclet$??$for_each@V?$_Vector_iterator@V?$_Vector_val@U?$_Simple_types@PAVDisplayableObject@@@std@@@std@@@std@@V<lambda_57ee486f2f872818e4e1ef76732269ef>@@@std@@YA?AV<lambda_57ee486f2f872818e4e1ef76732269ef>@@V?$_Vector_iterator@V?$_Vector_val@U?$_Simple_types@PAVDisplayableObject@@@std@@@std@@@0@0V1@@Z$1 00428b68 f   BaseEngine.obj
 0001:00027b75       __ehhandler$??$for_each@V?$_Vector_iterator@V?$_Vector_val@U?$_Simple_types@PAVDisplayableObject@@@std@@@std@@@std@@V<lambda_57ee486f2f872818e4e1ef76732269ef>@@@std@@YA?AV<lambda_57ee486f2f872818e4e1ef76732269ef>@@V?$_Vector_iterator@V?$_Vector_val@U?$_Simple_types@PAVDisplayableObject@@@std@@@std@@@0@0V1@@Z 00428b75 f   BaseEngine.obj
 0001:00027ba0       __unwindfunclet$??$for_each@V?$_Vector_iterator@V?$_Vector_val@U?$_Simple_types@PAVDisplayableObject@@@std@@@std@@@std@@V<lambda_83eb8fcb36b73c451092a4848be40800>@@@std@@YA?AV<lambda_83eb8fcb36b73c451092a4848be40800>@@V?$_Vector_iterator@V?$_Vector_val@U?$_Simple_types@PAVDisplayableObject@@@std@@@std@@@0@0V1@@Z$0 00428ba0 f   BaseEngine.obj
 0001:00027ba8       __unwindfunclet$??$for_each@V?$_Vector_iterator@V?$_Vector_val@U?$_Simple_types@PAVDisplayableObject@@@std@@@std@@@std@@V<lambda_83eb8fcb36b73c451092a4848be40800>@@@std@@YA?AV<lambda_83eb8fcb36b73c451092a4848be40800>@@V?$_Vector_iterator@V?$_Vector_val@U?$_Simple_types@PAVDisplayableObject@@@std@@@std@@@0@0V1@@Z$1 00428ba8 f   BaseEngine.obj
 0001:00027bb5       __ehhandler$??$for_each@V?$_Vector_iterator@V?$_Vector_val@U?$_Simple_types@PAVDisplayableObject@@@std@@@std@@@std@@V<lambda_83eb8fcb36b73c451092a4848be40800>@@@std@@YA?AV<lambda_83eb8fcb36b73c451092a4848be40800>@@V?$_Vector_iterator@V?$_Vector_val@U?$_Simple_types@PAVDisplayableObject@@@std@@@std@@@0@0V1@@Z 00428bb5 f   BaseEngine.obj
 0001:00027be0       __unwindfunclet$??$for_each@V?$_Vector_iterator@V?$_Vector_val@U?$_Simple_types@PAVDisplayableObject@@@std@@@std@@@std@@V<lambda_9a6d32bae543137263d1d545e39fdd7d>@@@std@@YA?AV<lambda_9a6d32bae543137263d1d545e39fdd7d>@@V?$_Vector_iterator@V?$_Vector_val@U?$_Simple_types@PAVDisplayableObject@@@std@@@std@@@0@0V1@@Z$0 00428be0 f   BaseEngine.obj
 0001:00027be8       __unwindfunclet$??$for_each@V?$_Vector_iterator@V?$_Vector_val@U?$_Simple_types@PAVDisplayableObject@@@std@@@std@@@std@@V<lambda_9a6d32bae543137263d1d545e39fdd7d>@@@std@@YA?AV<lambda_9a6d32bae543137263d1d545e39fdd7d>@@V?$_Vector_iterator@V?$_Vector_val@U?$_Simple_types@PAVDisplayableObject@@@std@@@std@@@0@0V1@@Z$1 00428be8 f   BaseEngine.obj
 0001:00027bf5       __ehhandler$??$for_each@V?$_Vector_iterator@V?$_Vector_val@U?$_Simple_types@PAVDisplayableObject@@@std@@@std@@@std@@V<lambda_9a6d32bae543137263d1d545e39fdd7d>@@@std@@YA?AV<lambda_9a6d32bae543137263d1d545e39fdd7d>@@V?$_Vector_iterator@V?$_Vector_val@U?$_Simple_types@PAVDisplayableObject@@@std@@@std@@@0@0V1@@Z 00428bf5 f   BaseEngine.obj
 0001:00027c20       __unwindfunclet$??$for_each@V?$_Vector_iterator@V?$_Vector_val@U?$_Simple_types@PAVDisplayableObject@@@std@@@std@@@std@@V<lambda_aaa801efaf28ef4796b623796d655d59>@@@std@@YA?AV<lambda_aaa801efaf28ef4796b623796d655d59>@@V?$_Vector_iterator@V?$_Vector_val@U?$_Simple_types@PAVDisplayableObject@@@std@@@std@@@0@0V1@@Z$0 00428c20 f   BaseEngine.obj
 0001:00027c28       __unwindfunclet$??$for_each@V?$_Vector_iterator@V?$_Vector_val@U?$_Simple_types@PAVDisplayableObject@@@std@@@std@@@std@@V<lambda_aaa801efaf28ef4796b623796d655d59>@@@std@@YA?AV<lambda_aaa801efaf28ef4796b623796d655d59>@@V?$_Vector_iterator@V?$_Vector_val@U?$_Simple_types@PAVDisplayableObject@@@std@@@std@@@0@0V1@@Z$1 00428c28 f   BaseEngine.obj
 0001:00027c35       __ehhandler$??$for_each@V?$_Vector_iterator@V?$_Vector_val@U?$_Simple_types@PAVDisplayableObject@@@std@@@std@@@std@@V<lambda_aaa801efaf28ef4796b623796d655d59>@@@std@@YA?AV<lambda_aaa801efaf28ef4796b623796d655d59>@@V?$_Vector_iterator@V?$_Vector_val@U?$_Simple_types@PAVDisplayableObject@@@std@@@std@@@0@0V1@@Z 00428c35 f   BaseEngine.obj
 0001:00027c60       __unwindfunclet$??$for_each@V?$_Vector_iterator@V?$_Vector_val@U?$_Simple_types@PAVDisplayableObject@@@std@@@std@@@std@@V<lambda_b68d6ab0d55fd1970844512a3930ef49>@@@std@@YA?AV<lambda_b68d6ab0d55fd1970844512a3930ef49>@@V?$_Vector_iterator@V?$_Vector_val@U?$_Simple_types@PAVDisplayableObject@@@std@@@std@@@0@0V1@@Z$0 00428c60 f   BaseEngine.obj
 0001:00027c68       __unwindfunclet$??$for_each@V?$_Vector_iterator@V?$_Vector_val@U?$_Simple_types@PAVDisplayableObject@@@std@@@std@@@std@@V<lambda_b68d6ab0d55fd1970844512a3930ef49>@@@std@@YA?AV<lambda_b68d6ab0d55fd1970844512a3930ef49>@@V?$_Vector_iterator@V?$_Vector_val@U?$_Simple_types@PAVDisplayableObject@@@std@@@std@@@0@0V1@@Z$1 00428c68 f   BaseEngine.obj
 0001:00027c75       __ehhandler$??$for_each@V?$_Vector_iterator@V?$_Vector_val@U?$_Simple_types@PAVDisplayableObject@@@std@@@std@@@std@@V<lambda_b68d6ab0d55fd1970844512a3930ef49>@@@std@@YA?AV<lambda_b68d6ab0d55fd1970844512a3930ef49>@@V?$_Vector_iterator@V?$_Vector_val@U?$_Simple_types@PAVDisplayableObject@@@std@@@std@@@0@0V1@@Z 00428c75 f   BaseEngine.obj
 0001:00027ca0       __ehhandler$??1DisplayableObjectContainer@@UAE@XZ 00428ca0 f   BaseEngine.obj
 0001:00027cd0       __ehhandler$?_Tidy@?$vector@PAVDisplayableObject@@V?$allocator@PAVDisplayableObject@@@std@@@std@@AAEXXZ 00428cd0 f   BaseEngine.obj
 0001:00027d00       __unwindfunclet$?getFont@FontManager@@QAEPAVFont@@PBDH@Z$0 00428d00 f   FontManager.obj
 0001:00027d14       __ehhandler$?getFont@FontManager@@QAEPAVFont@@PBDH@Z 00428d14 f   FontManager.obj
 0001:00027d40       __unwindfunclet$?virtInitialiseObjects@SimpleDemo@@UAEHXZ$0 00428d40 f   SimpleDemo.obj
 0001:00027d4f       __unwindfunclet$?virtInitialiseObjects@SimpleDemo@@UAEHXZ$1 00428d4f f   SimpleDemo.obj
 0001:00027d63       __ehhandler$?virtInitialiseObjects@SimpleDemo@@UAEHXZ 00428d63 f   SimpleDemo.obj
 0001:00027d90       __ehhandler$??$_Emplace_reallocate@ABQAVDisplayableObject@@@?$vector@PAVDisplayableObject@@V?$allocator@PAVDisplayableObject@@@std@@@std@@QAEPAPAVDisplayableObject@@QAPAV2@ABQAV2@@Z 00428d90 f   SimpleDemo.obj
 0001:00027dc0       __unwindfunclet$??0BouncingObject@@QAE@PAVBaseEngine@@HHNNNN@Z$0 00428dc0 f   SimpleDemo.obj
 0001:00027dcd       __ehhandler$??0BouncingObject@@QAE@PAVBaseEngine@@HHNNNN@Z 00428dcd f   SimpleDemo.obj
 0001:00027e00       __unwindfunclet$??0BouncingBall@@QAE@PAVBouncingBallMain@@HHHHPBDHH@Z$0 00428e00 f   BouncingBall.obj
 0001:00027e0d       __ehhandler$??0BouncingBall@@QAE@PAVBouncingBallMain@@HHHHPBDHH@Z 00428e0d f   BouncingBall.obj
 0001:00027e2a       __unwindfunclet$??0BouncingBall1@@QAE@PAVBouncingBallMain@@HHHHPBDHHPAVTileManager@@@Z$0 00428e2a f   BouncingBall.obj
 0001:00027e37       __ehhandler$??0BouncingBall1@@QAE@PAVBouncingBallMain@@HHHHPBDHHPAVTileManager@@@Z 00428e37 f   BouncingBall.obj
 0001:00027e70       __unwindfunclet$?virtInitialiseObjects@BouncingBallMain@@UAEHXZ$0 00428e70 f   BouncingBallMain.obj
 0001:00027e7f       __unwindfunclet$?virtInitialiseObjects@BouncingBallMain@@UAEHXZ$1 00428e7f f   BouncingBallMain.obj
 0001:00027e8e       __unwindfunclet$?virtInitialiseObjects@BouncingBallMain@@UAEHXZ$2 00428e8e f   BouncingBallMain.obj
 0001:00027ea2       __ehhandler$?virtInitialiseObjects@BouncingBallMain@@UAEHXZ 00428ea2 f   BouncingBallMain.obj
 0001:00027ee0       __unwindfunclet$?virtInitialiseObjects@ZoomingDemo@@UAEHXZ$0 00428ee0 f   ZoomingDemo.obj
 0001:00027eef       __unwindfunclet$?virtInitialiseObjects@ZoomingDemo@@UAEHXZ$1 00428eef f   ZoomingDemo.obj
 0001:00027efe       __unwindfunclet$?virtInitialiseObjects@ZoomingDemo@@UAEHXZ$3 00428efe f   ZoomingDemo.obj
 0001:00027f0d       __unwindfunclet$?virtInitialiseObjects@ZoomingDemo@@UAEHXZ$4 00428f0d f   ZoomingDemo.obj
 0001:00027f1a       __ehhandler$?virtInitialiseObjects@ZoomingDemo@@UAEHXZ 00428f1a f   ZoomingDemo.obj
 0001:00027f50       __unwindfunclet$??0SimpleFlashingDragableImageObject@@QAE@HHPAVBaseEngine@@V?$basic_string@DU?$char_traits@D@std@@V?$allocator@D@2@@std@@1_N2@Z$0 00428f50 f   ZoomingDemo.obj
 0001:00027f58       __unwindfunclet$??0SimpleFlashingDragableImageObject@@QAE@HHPAVBaseEngine@@V?$basic_string@DU?$char_traits@D@std@@V?$allocator@D@2@@std@@1_N2@Z$1 00428f58 f   ZoomingDemo.obj
 0001:00027f60       __unwindfunclet$??0SimpleFlashingDragableImageObject@@QAE@HHPAVBaseEngine@@V?$basic_string@DU?$char_traits@D@std@@V?$allocator@D@2@@std@@1_N2@Z$2 00428f60 f   ZoomingDemo.obj
 0001:00027f68       __unwindfunclet$??0SimpleFlashingDragableImageObject@@QAE@HHPAVBaseEngine@@V?$basic_string@DU?$char_traits@D@std@@V?$allocator@D@2@@std@@1_N2@Z$3 00428f68 f   ZoomingDemo.obj
 0001:00027f70       __unwindfunclet$??0SimpleFlashingDragableImageObject@@QAE@HHPAVBaseEngine@@V?$basic_string@DU?$char_traits@D@std@@V?$allocator@D@2@@std@@1_N2@Z$4 00428f70 f   ZoomingDemo.obj
 0001:00027f7b       __unwindfunclet$??0SimpleFlashingDragableImageObject@@QAE@HHPAVBaseEngine@@V?$basic_string@DU?$char_traits@D@std@@V?$allocator@D@2@@std@@1_N2@Z$5 00428f7b f   ZoomingDemo.obj
 0001:00027f83       __unwindfunclet$??0SimpleFlashingDragableImageObject@@QAE@HHPAVBaseEngine@@V?$basic_string@DU?$char_traits@D@std@@V?$allocator@D@2@@std@@1_N2@Z$6 00428f83 f   ZoomingDemo.obj
 0001:00027f93       __ehhandler$??0SimpleFlashingDragableImageObject@@QAE@HHPAVBaseEngine@@V?$basic_string@DU?$char_traits@D@std@@V?$allocator@D@2@@std@@1_N2@Z 00428f93 f   ZoomingDemo.obj
 0001:00027fd0       __unwindfunclet$??0MazeDemoMain@@QAE@XZ$0 00428fd0 f   MazeDemoMain.obj
 0001:00027fdd       __ehhandler$??0MazeDemoMain@@QAE@XZ 00428fdd f   MazeDemoMain.obj
 0001:00027ffa       __unwindfunclet$?virtInitialiseObjects@MazeDemoMain@@UAEHXZ$0 00428ffa f   MazeDemoMain.obj
 0001:00028009       __unwindfunclet$?virtInitialiseObjects@MazeDemoMain@@UAEHXZ$1 00429009 f   MazeDemoMain.obj
 0001:00028018       __unwindfunclet$?virtInitialiseObjects@MazeDemoMain@@UAEHXZ$2 00429018 f   MazeDemoMain.obj
 0001:00028027       __unwindfunclet$?virtInitialiseObjects@MazeDemoMain@@UAEHXZ$3 00429027 f   MazeDemoMain.obj
 0001:00028036       __unwindfunclet$?virtInitialiseObjects@MazeDemoMain@@UAEHXZ$4 00429036 f   MazeDemoMain.obj
 0001:0002804a       __ehhandler$?virtInitialiseObjects@MazeDemoMain@@UAEHXZ 0042904a f   MazeDemoMain.obj
 0001:00028090       __unwindfunclet$??0MazeDemoObject@@QAE@PAVMazeDemoMain@@HH@Z$0 00429090 f   MazeDemoObject.obj
 0001:0002809d       __ehhandler$??0MazeDemoObject@@QAE@PAVMazeDemoMain@@HH@Z 0042909d f   MazeDemoObject.obj
 0002:00000104       ?pre_cpp_initializer@@3P6AXXZA 0042b104     MSVCRTD:exe_main.obj
 0002:00000410       ?pre_c_initializer@@3P6AHXZA 0042b410     MSVCRTD:exe_main.obj
 0002:00000514       ?post_pgo_initializer@@3P6AHXZA 0042b514     MSVCRTD:exe_main.obj
 0002:00000b30       $SG86453                   0042bb30     DraggingDemo.obj
 0002:00000b3c       $SG86455                   0042bb3c     DraggingDemo.obj
 0002:00000b48       $SG97607                   0042bb48     DraggingDemo.obj
 0002:00000b5c       $SG97608                   0042bb5c     DraggingDemo.obj
 0002:00000b60       $SG97609                   0042bb60     DraggingDemo.obj
 0002:00000bcc       $SG97612                   0042bbcc     DraggingDemo.obj
 0002:00000bf4       $SG98014                   0042bbf4     DraggingDemo.obj
 0002:00000c10       $SG97610                   0042bc10     DraggingDemo.obj
 0002:00000ce4       $SG98015                   0042bce4     DraggingDemo.obj
 0002:00000ce8       $SG97611                   0042bce8     DraggingDemo.obj
 0002:00000d38       $SG97840                   0042bd38     DraggingDemo.obj
 0002:00000da4       $SG98018                   0042bda4     DraggingDemo.obj
 0002:00000dd0       $SG98016                   0042bdd0     DraggingDemo.obj
 0002:00000e3c       $SG98019                   0042be3c     DraggingDemo.obj
 0002:00000e78       $SG98017                   0042be78     DraggingDemo.obj
 0002:00002950       $SG152817                  0042d950     DrawingSurface.obj
 0002:00002964       $SG152818                  0042d964     DrawingSurface.obj
 0002:00002968       $SG152819                  0042d968     DrawingSurface.obj
 0002:000029d4       $SG152822                  0042d9d4     DrawingSurface.obj
 0002:000029fc       $SG153224                  0042d9fc     DrawingSurface.obj
 0002:00002a18       $SG152820                  0042da18     DrawingSurface.obj
 0002:00002aec       $SG153225                  0042daec     DrawingSurface.obj
 0002:00002af0       $SG152821                  0042daf0     DrawingSurface.obj
 0002:00002b40       $SG153050                  0042db40     DrawingSurface.obj
 0002:00002bac       $SG153228                  0042dbac     DrawingSurface.obj
 0002:00002bd8       $SG153226                  0042dbd8     DrawingSurface.obj
 0002:00002c44       $SG153229                  0042dc44     DrawingSurface.obj
 0002:00002c80       $SG153227                  0042dc80     DrawingSurface.obj
 0002:00002fc0       $SG97058                   0042dfc0     FlashingDemo.obj
 0002:00002fd4       $SG97059                   0042dfd4     FlashingDemo.obj
 0002:00002fd8       $SG97060                   0042dfd8     FlashingDemo.obj
 0002:00003044       $SG97063                   0042e044     FlashingDemo.obj
 0002:0000306c       $SG97465                   0042e06c     FlashingDemo.obj
 0002:00003088       $SG97061                   0042e088     FlashingDemo.obj
 0002:0000315c       $SG97466                   0042e15c     FlashingDemo.obj
 0002:00003160       $SG97062                   0042e160     FlashingDemo.obj
 0002:000031b0       $SG97291                   0042e1b0     FlashingDemo.obj
 0002:0000321c       $SG97469                   0042e21c     FlashingDemo.obj
 0002:00003248       $SG97467                   0042e248     FlashingDemo.obj
 0002:000032b4       $SG97470                   0042e2b4     FlashingDemo.obj
 0002:000032f0       $SG97468                   0042e2f0     FlashingDemo.obj
 0002:00003560       $SG86555                   0042e560     ImageMappingDemo.obj
 0002:0000356c       $SG86557                   0042e56c     ImageMappingDemo.obj
 0002:00003578       $SG86559                   0042e578     ImageMappingDemo.obj
 0002:00003584       $SG86561                   0042e584     ImageMappingDemo.obj
 0002:00003590       $SG86563                   0042e590     ImageMappingDemo.obj
 0002:0000359c       $SG97743                   0042e59c     ImageMappingDemo.obj
 0002:000035b0       $SG97744                   0042e5b0     ImageMappingDemo.obj
 0002:000035b4       $SG98150                   0042e5b4     ImageMappingDemo.obj
 0002:000035d0       $SG97745                   0042e5d0     ImageMappingDemo.obj
 0002:0000363c       $SG97748                   0042e63c     ImageMappingDemo.obj
 0002:00003664       $SG98151                   0042e664     ImageMappingDemo.obj
 0002:00003668       $SG97746                   0042e668     ImageMappingDemo.obj
 0002:0000373c       $SG98154                   0042e73c     ImageMappingDemo.obj
 0002:00003768       $SG97747                   0042e768     ImageMappingDemo.obj
 0002:000037b8       $SG97976                   0042e7b8     ImageMappingDemo.obj
 0002:00003824       $SG98155                   0042e824     ImageMappingDemo.obj
 0002:00003860       $SG98152                   0042e860     ImageMappingDemo.obj
 0002:000038d0       $SG98153                   0042e8d0     ImageMappingDemo.obj
 0002:00003b08       $SG97532                   0042eb08     MyBasicButton.obj
 0002:00003b1c       $SG97533                   0042eb1c     MyBasicButton.obj
 0002:00003b20       $SG97534                   0042eb20     MyBasicButton.obj
 0002:00003b8c       $SG97537                   0042eb8c     MyBasicButton.obj
 0002:00003bb4       $SG97939                   0042ebb4     MyBasicButton.obj
 0002:00003bd0       $SG97535                   0042ebd0     MyBasicButton.obj
 0002:00003ca4       $SG97940                   0042eca4     MyBasicButton.obj
 0002:00003ca8       $SG97536                   0042eca8     MyBasicButton.obj
 0002:00003cf8       $SG97765                   0042ecf8     MyBasicButton.obj
 0002:00003d64       $SG97943                   0042ed64     MyBasicButton.obj
 0002:00003d90       $SG97941                   0042ed90     MyBasicButton.obj
 0002:00003dfc       $SG97944                   0042edfc     MyBasicButton.obj
 0002:00003e38       $SG97942                   0042ee38     MyBasicButton.obj
 0002:00003fe0       $SG97080                   0042efe0     MyTextBar.obj
 0002:00003ff4       $SG97081                   0042eff4     MyTextBar.obj
 0002:00003ff8       $SG97082                   0042eff8     MyTextBar.obj
 0002:00004064       $SG97085                   0042f064     MyTextBar.obj
 0002:0000408c       $SG97487                   0042f08c     MyTextBar.obj
 0002:000040a8       $SG97083                   0042f0a8     MyTextBar.obj
 0002:0000417c       $SG97488                   0042f17c     MyTextBar.obj
 0002:00004180       $SG97084                   0042f180     MyTextBar.obj
 0002:000041d0       $SG97313                   0042f1d0     MyTextBar.obj
 0002:0000423c       $SG97491                   0042f23c     MyTextBar.obj
 0002:00004268       $SG97489                   0042f268     MyTextBar.obj
 0002:000042d4       $SG97492                   0042f2d4     MyTextBar.obj
 0002:00004310       $SG97490                   0042f310     MyTextBar.obj
 0002:000044b8       $SG97050                   0042f4b8     MyToggleButton.obj
 0002:000044cc       $SG97051                   0042f4cc     MyToggleButton.obj
 0002:000044d0       $SG97052                   0042f4d0     MyToggleButton.obj
 0002:0000453c       $SG97055                   0042f53c     MyToggleButton.obj
 0002:00004564       $SG97457                   0042f564     MyToggleButton.obj
 0002:00004580       $SG97053                   0042f580     MyToggleButton.obj
 0002:00004654       $SG97458                   0042f654     MyToggleButton.obj
 0002:00004658       $SG97054                   0042f658     MyToggleButton.obj
 0002:000046a8       $SG97283                   0042f6a8     MyToggleButton.obj
 0002:00004714       $SG97461                   0042f714     MyToggleButton.obj
 0002:00004740       $SG97459                   0042f740     MyToggleButton.obj
 0002:000047ac       $SG97462                   0042f7ac     MyToggleButton.obj
 0002:000047e8       $SG97460                   0042f7e8     MyToggleButton.obj
 0002:00004990       $SG86426                   0042f990     Psyjl16Engine.obj
 0002:000049b8       $SG86428                   0042f9b8     Psyjl16Engine.obj
 0002:000049e8       $SG86532                   0042f9e8     Psyjl16Engine.obj
 0002:000049f8       $SG86534                   0042f9f8     Psyjl16Engine.obj
 0002:00004a0c       $SG86539                   0042fa0c     Psyjl16Engine.obj
 0002:00004a18       $SG86543                   0042fa18     Psyjl16Engine.obj
 0002:00004a24       $SG86544                   0042fa24     Psyjl16Engine.obj
 0002:00004a30       $SG86548                   0042fa30     Psyjl16Engine.obj
 0002:00004a40       $SG86551                   0042fa40     Psyjl16Engine.obj
 0002:00004a48       $SG86556                   0042fa48     Psyjl16Engine.obj
 0002:00004a58       $SG86559                   0042fa58     Psyjl16Engine.obj
 0002:00004a60       $SG86568                   0042fa60     Psyjl16Engine.obj
 0002:00004a74       $SG86570                   0042fa74     Psyjl16Engine.obj
 0002:00004a7c       $SG97729                   0042fa7c     Psyjl16Engine.obj
 0002:00004a90       $SG97730                   0042fa90     Psyjl16Engine.obj
 0002:00004a94       $SG98136                   0042fa94     Psyjl16Engine.obj
 0002:00004ab0       $SG97731                   0042fab0     Psyjl16Engine.obj
 0002:00004b1c       $SG97734                   0042fb1c     Psyjl16Engine.obj
 0002:00004b44       $SG98137                   0042fb44     Psyjl16Engine.obj
 0002:00004b48       $SG97732                   0042fb48     Psyjl16Engine.obj
 0002:00004c1c       $SG98140                   0042fc1c     Psyjl16Engine.obj
 0002:00004c48       $SG97733                   0042fc48     Psyjl16Engine.obj
 0002:00004c98       $SG97962                   0042fc98     Psyjl16Engine.obj
 0002:00004d04       $SG98141                   0042fd04     Psyjl16Engine.obj
 0002:00004d40       $SG98138                   0042fd40     Psyjl16Engine.obj
 0002:00004db0       $SG98139                   0042fdb0     Psyjl16Engine.obj
 0002:000057c8       $SG98675                   004307c8     mainfunction.obj
 0002:000057dc       $SG98676                   004307dc     mainfunction.obj
 0002:000057e0       $SG98677                   004307e0     mainfunction.obj
 0002:0000584c       $SG98680                   0043084c     mainfunction.obj
 0002:00005874       $SG99082                   00430874     mainfunction.obj
 0002:00005890       $SG98678                   00430890     mainfunction.obj
 0002:00005964       $SG99083                   00430964     mainfunction.obj
 0002:00005968       $SG98679                   00430968     mainfunction.obj
 0002:000059b8       $SG98908                   004309b8     mainfunction.obj
 0002:00005a24       $SG99086                   00430a24     mainfunction.obj
 0002:00005a50       $SG99084                   00430a50     mainfunction.obj
 0002:00005abc       $SG99087                   00430abc     mainfunction.obj
 0002:00005af8       $SG99085                   00430af8     mainfunction.obj
 0002:00005bd0       $SG87524                   00430bd0     mainfunction.obj
 0002:00005c00       $SG87525                   00430c00     mainfunction.obj
 0002:00005de0       $SG140758                  00430de0     BaseEngine.obj
 0002:00005e10       $SG140791                  00430e10     BaseEngine.obj
 0002:00005e28       $SG152396                  00430e28     BaseEngine.obj
 0002:00005e3c       $SG152397                  00430e3c     BaseEngine.obj
 0002:00005e40       $SG152398                  00430e40     BaseEngine.obj
 0002:00005eac       $SG152401                  00430eac     BaseEngine.obj
 0002:00005ed4       $SG152803                  00430ed4     BaseEngine.obj
 0002:00005ef0       $SG152399                  00430ef0     BaseEngine.obj
 0002:00005fc4       $SG152804                  00430fc4     BaseEngine.obj
 0002:00005fc8       $SG152400                  00430fc8     BaseEngine.obj
 0002:00006018       $SG152629                  00431018     BaseEngine.obj
 0002:00006084       $SG152807                  00431084     BaseEngine.obj
 0002:000060b0       $SG152805                  004310b0     BaseEngine.obj
 0002:0000611c       $SG152808                  0043111c     BaseEngine.obj
 0002:00006158       $SG152806                  00431158     BaseEngine.obj
 0002:00006588       $SG97030                   00431588     DisplayableObject.obj
 0002:0000659c       $SG97031                   0043159c     DisplayableObject.obj
 0002:000065a0       $SG97032                   004315a0     DisplayableObject.obj
 0002:0000660c       $SG97035                   0043160c     DisplayableObject.obj
 0002:00006634       $SG97437                   00431634     DisplayableObject.obj
 0002:00006650       $SG97033                   00431650     DisplayableObject.obj
 0002:00006724       $SG97438                   00431724     DisplayableObject.obj
 0002:00006728       $SG97034                   00431728     DisplayableObject.obj
 0002:00006778       $SG97263                   00431778     DisplayableObject.obj
 0002:000067e4       $SG97441                   004317e4     DisplayableObject.obj
 0002:00006810       $SG97439                   00431810     DisplayableObject.obj
 0002:0000687c       $SG97442                   0043187c     DisplayableObject.obj
 0002:000068b8       $SG97440                   004318b8     DisplayableObject.obj
 0002:00006aa0       $SG80457                   00431aa0     FontManager.obj
 0002:00006ab4       $SG80458                   00431ab4     FontManager.obj
 0002:00006ab8       $SG80459                   00431ab8     FontManager.obj
 0002:00006b28       $SG80460                   00431b28     FontManager.obj
 0002:00006c00       $SG80461                   00431c00     FontManager.obj
 0002:00006c50       $SG80462                   00431c50     FontManager.obj
 0002:00006c78       $SG80488                   00431c78     FontManager.obj
 0002:00006ce4       $SG72466                   00431ce4     FontManager.obj
 0002:00006d00       $SG72470                   00431d00     FontManager.obj
 0002:00006db0       $SG97590                   00431db0     MyCharacter.obj
 0002:00006dc4       $SG97591                   00431dc4     MyCharacter.obj
 0002:00006dc8       $SG97592                   00431dc8     MyCharacter.obj
 0002:00006e34       $SG97595                   00431e34     MyCharacter.obj
 0002:00006e5c       $SG97997                   00431e5c     MyCharacter.obj
 0002:00006e78       $SG97593                   00431e78     MyCharacter.obj
 0002:00006f4c       $SG97998                   00431f4c     MyCharacter.obj
 0002:00006f50       $SG97594                   00431f50     MyCharacter.obj
 0002:00006fa0       $SG97823                   00431fa0     MyCharacter.obj
 0002:0000700c       $SG98001                   0043200c     MyCharacter.obj
 0002:00007038       $SG97999                   00432038     MyCharacter.obj
 0002:000070a4       $SG98002                   004320a4     MyCharacter.obj
 0002:000070e0       $SG98000                   004320e0     MyCharacter.obj
 0002:00007288       $SG97119                   00432288     MyEnemy.obj
 0002:0000729c       $SG97120                   0043229c     MyEnemy.obj
 0002:000072a0       $SG97121                   004322a0     MyEnemy.obj
 0002:0000730c       $SG97124                   0043230c     MyEnemy.obj
 0002:00007334       $SG97526                   00432334     MyEnemy.obj
 0002:00007350       $SG97122                   00432350     MyEnemy.obj
 0002:00007424       $SG97527                   00432424     MyEnemy.obj
 0002:00007428       $SG97123                   00432428     MyEnemy.obj
 0002:00007478       $SG97352                   00432478     MyEnemy.obj
 0002:000074e4       $SG97530                   004324e4     MyEnemy.obj
 0002:00007510       $SG97528                   00432510     MyEnemy.obj
 0002:0000757c       $SG97531                   0043257c     MyEnemy.obj
 0002:000075b8       $SG97529                   004325b8     MyEnemy.obj
 0002:00007760       $SG97009                   00432760     MyObjectB.obj
 0002:00007774       $SG97010                   00432774     MyObjectB.obj
 0002:00007778       $SG97011                   00432778     MyObjectB.obj
 0002:000077e4       $SG97014                   004327e4     MyObjectB.obj
 0002:0000780c       $SG97416                   0043280c     MyObjectB.obj
 0002:00007828       $SG97012                   00432828     MyObjectB.obj
 0002:000078fc       $SG97417                   004328fc     MyObjectB.obj
 0002:00007900       $SG97013                   00432900     MyObjectB.obj
 0002:00007950       $SG97242                   00432950     MyObjectB.obj
 0002:000079bc       $SG97420                   004329bc     MyObjectB.obj
 0002:000079e8       $SG97418                   004329e8     MyObjectB.obj
 0002:00007a54       $SG97421                   00432a54     MyObjectB.obj
 0002:00007a90       $SG97419                   00432a90     MyObjectB.obj
 0002:00007c38       $SG86051                   00432c38     Psyjl16TileManager.obj
 0002:00007c40       $SG97209                   00432c40     Psyjl16TileManager.obj
 0002:00007c54       $SG97210                   00432c54     Psyjl16TileManager.obj
 0002:00007c58       $SG97211                   00432c58     Psyjl16TileManager.obj
 0002:00007cc4       $SG97214                   00432cc4     Psyjl16TileManager.obj
 0002:00007cec       $SG97616                   00432cec     Psyjl16TileManager.obj
 0002:00007d08       $SG97212                   00432d08     Psyjl16TileManager.obj
 0002:00007ddc       $SG97617                   00432ddc     Psyjl16TileManager.obj
 0002:00007de0       $SG97213                   00432de0     Psyjl16TileManager.obj
 0002:00007e30       $SG97442                   00432e30     Psyjl16TileManager.obj
 0002:00007e9c       $SG97620                   00432e9c     Psyjl16TileManager.obj
 0002:00007ec8       $SG97618                   00432ec8     Psyjl16TileManager.obj
 0002:00007f34       $SG97621                   00432f34     Psyjl16TileManager.obj
 0002:00007f70       $SG97619                   00432f70     Psyjl16TileManager.obj
 0002:00008118       $SG98375                   00433118     SimpleImage.obj
 0002:00008134       $SG98376                   00433134     SimpleImage.obj
 0002:00008138       $SG98377                   00433138     SimpleImage.obj
 0002:000081a4       $SG98379                   004331a4     SimpleImage.obj
 0002:000081d0       $SG98378                   004331d0     SimpleImage.obj
 0002:000082a8       $SG98380                   004332a8     SimpleImage.obj
 0002:000082e0       $SG97472                   004332e0     SimpleImage.obj
 0002:000082f4       $SG97473                   004332f4     SimpleImage.obj
 0002:000082f8       $SG97474                   004332f8     SimpleImage.obj
 0002:00008364       $SG97477                   00433364     SimpleImage.obj
 0002:00008390       $SG97475                   00433390     SimpleImage.obj
 0002:00008468       $SG97476                   00433468     SimpleImage.obj
 0002:000084b8       $SG97705                   004334b8     SimpleImage.obj
 0002:00008600       $SG86166                   00433600     SimpleDemo.obj
 0002:00008630       $SG86167                   00433630     SimpleDemo.obj
 0002:00008648       $SG86172                   00433648     SimpleDemo.obj
 0002:00008670       $SG86173                   00433670     SimpleDemo.obj
 0002:00008688       $SG86175                   00433688     SimpleDemo.obj
 0002:00008698       $SG97336                   00433698     SimpleDemo.obj
 0002:000086ac       $SG97337                   004336ac     SimpleDemo.obj
 0002:000086b0       $SG97338                   004336b0     SimpleDemo.obj
 0002:0000871c       $SG97341                   0043371c     SimpleDemo.obj
 0002:00008744       $SG97743                   00433744     SimpleDemo.obj
 0002:00008760       $SG97339                   00433760     SimpleDemo.obj
 0002:00008834       $SG97744                   00433834     SimpleDemo.obj
 0002:00008838       $SG97340                   00433838     SimpleDemo.obj
 0002:00008888       $SG97569                   00433888     SimpleDemo.obj
 0002:000088f4       $SG97747                   004338f4     SimpleDemo.obj
 0002:00008920       $SG97745                   00433920     SimpleDemo.obj
 0002:0000898c       $SG97748                   0043398c     SimpleDemo.obj
 0002:000089c8       $SG97746                   004339c8     SimpleDemo.obj
 0002:00008c48       $SG97025                   00433c48     StarfieldDemo.obj
 0002:00008c5c       $SG97026                   00433c5c     StarfieldDemo.obj
 0002:00008c60       $SG97027                   00433c60     StarfieldDemo.obj
 0002:00008ccc       $SG97030                   00433ccc     StarfieldDemo.obj
 0002:00008cf4       $SG97432                   00433cf4     StarfieldDemo.obj
 0002:00008d10       $SG97028                   00433d10     StarfieldDemo.obj
 0002:00008de4       $SG97433                   00433de4     StarfieldDemo.obj
 0002:00008de8       $SG97029                   00433de8     StarfieldDemo.obj
 0002:00008e38       $SG97258                   00433e38     StarfieldDemo.obj
 0002:00008ea4       $SG97436                   00433ea4     StarfieldDemo.obj
 0002:00008ed0       $SG97434                   00433ed0     StarfieldDemo.obj
 0002:00008f3c       $SG97437                   00433f3c     StarfieldDemo.obj
 0002:00008f78       $SG97435                   00433f78     StarfieldDemo.obj
 0002:000091e8       $SG97139                   004341e8     TileManager.obj
 0002:000091fc       $SG97140                   004341fc     TileManager.obj
 0002:00009200       $SG97141                   00434200     TileManager.obj
 0002:0000926c       $SG97144                   0043426c     TileManager.obj
 0002:00009294       $SG97546                   00434294     TileManager.obj
 0002:000092b0       $SG97142                   004342b0     TileManager.obj
 0002:00009384       $SG97547                   00434384     TileManager.obj
 0002:00009388       $SG97143                   00434388     TileManager.obj
 0002:000093d8       $SG97372                   004343d8     TileManager.obj
 0002:00009444       $SG97550                   00434444     TileManager.obj
 0002:00009470       $SG97548                   00434470     TileManager.obj
 0002:000094dc       $SG97551                   004344dc     TileManager.obj
 0002:00009518       $SG97549                   00434518     TileManager.obj
 0002:000096c0       $SG97459                   004346c0     BouncingBall.obj
 0002:000096d4       $SG97460                   004346d4     BouncingBall.obj
 0002:000096d8       $SG97461                   004346d8     BouncingBall.obj
 0002:00009744       $SG97464                   00434744     BouncingBall.obj
 0002:0000976c       $SG97866                   0043476c     BouncingBall.obj
 0002:00009788       $SG97462                   00434788     BouncingBall.obj
 0002:0000985c       $SG97867                   0043485c     BouncingBall.obj
 0002:00009860       $SG97463                   00434860     BouncingBall.obj
 0002:000098b0       $SG97692                   004348b0     BouncingBall.obj
 0002:0000991c       $SG97870                   0043491c     BouncingBall.obj
 0002:00009948       $SG97868                   00434948     BouncingBall.obj
 0002:000099b4       $SG97871                   004349b4     BouncingBall.obj
 0002:000099f0       $SG97869                   004349f0     BouncingBall.obj
 0002:00009c70       $SG86480                   00434c70     BouncingBallMain.obj
 0002:00009c74       $SG86482                   00434c74     BouncingBallMain.obj
 0002:00009c78       $SG86484                   00434c78     BouncingBallMain.obj
 0002:00009c7c       $SG86488                   00434c7c     BouncingBallMain.obj
 0002:00009c94       $SG86489                   00434c94     BouncingBallMain.obj
 0002:00009ca4       $SG97646                   00434ca4     BouncingBallMain.obj
 0002:00009cb8       $SG97647                   00434cb8     BouncingBallMain.obj
 0002:00009cbc       $SG98053                   00434cbc     BouncingBallMain.obj
 0002:00009cd8       $SG97648                   00434cd8     BouncingBallMain.obj
 0002:00009d44       $SG97651                   00434d44     BouncingBallMain.obj
 0002:00009d6c       $SG98054                   00434d6c     BouncingBallMain.obj
 0002:00009d70       $SG97649                   00434d70     BouncingBallMain.obj
 0002:00009e44       $SG98057                   00434e44     BouncingBallMain.obj
 0002:00009e70       $SG97650                   00434e70     BouncingBallMain.obj
 0002:00009ec0       $SG97879                   00434ec0     BouncingBallMain.obj
 0002:00009f2c       $SG98058                   00434f2c     BouncingBallMain.obj
 0002:00009f68       $SG98055                   00434f68     BouncingBallMain.obj
 0002:00009fd8       $SG98056                   00434fd8     BouncingBallMain.obj
 0002:0000a2b8       $SG98618                   004352b8     ZoomingDemo.obj
 0002:0000a2d4       $SG98619                   004352d4     ZoomingDemo.obj
 0002:0000a2d8       $SG98620                   004352d8     ZoomingDemo.obj
 0002:0000a344       $SG98622                   00435344     ZoomingDemo.obj
 0002:0000a370       $SG98621                   00435370     ZoomingDemo.obj
 0002:0000a448       $SG98623                   00435448     ZoomingDemo.obj
 0002:0000a480       $SG86516                   00435480     ZoomingDemo.obj
 0002:0000a48c       $SG86518                   0043548c     ZoomingDemo.obj
 0002:0000a498       $SG86519                   00435498     ZoomingDemo.obj
 0002:0000a4a4       $SG86524                   004354a4     ZoomingDemo.obj
 0002:0000a4b8       $SG86525                   004354b8     ZoomingDemo.obj
 0002:0000a4d0       $SG86527                   004354d0     ZoomingDemo.obj
 0002:0000a4e0       $SG86532                   004354e0     ZoomingDemo.obj
 0002:0000a4ec       $SG86533                   004354ec     ZoomingDemo.obj
 0002:0000a504       $SG97715                   00435504     ZoomingDemo.obj
 0002:0000a518       $SG97716                   00435518     ZoomingDemo.obj
 0002:0000a520       $SG97717                   00435520     ZoomingDemo.obj
 0002:0000a590       $SG97718                   00435590     ZoomingDemo.obj
 0002:0000a668       $SG97719                   00435668     ZoomingDemo.obj
 0002:0000a6b8       $SG97720                   004356b8     ZoomingDemo.obj
 0002:0000a6e0       $SG97948                   004356e0     ZoomingDemo.obj
 0002:0000a878       $SG86182                   00435878     MazeDemoMain.obj
 0002:0000a890       $SG86183                   00435890     MazeDemoMain.obj
 0002:0000a8a8       $SG86184                   004358a8     MazeDemoMain.obj
 0002:0000a8c0       $SG86185                   004358c0     MazeDemoMain.obj
 0002:0000a8d8       $SG86186                   004358d8     MazeDemoMain.obj
 0002:0000a8f0       $SG86187                   004358f0     MazeDemoMain.obj
 0002:0000a908       $SG86188                   00435908     MazeDemoMain.obj
 0002:0000a920       $SG86189                   00435920     MazeDemoMain.obj
 0002:0000a938       $SG86190                   00435938     MazeDemoMain.obj
 0002:0000a950       $SG86191                   00435950     MazeDemoMain.obj
 0002:0000a968       $SG86192                   00435968     MazeDemoMain.obj
 0002:0000a980       $SG86219                   00435980     MazeDemoMain.obj
 0002:0000a9a4       $SG86221                   004359a4     MazeDemoMain.obj
 0002:0000a9ac       $SG86223                   004359ac     MazeDemoMain.obj
 0002:0000a9cc       $SG97483                   004359cc     MazeDemoMain.obj
 0002:0000a9e0       $SG97484                   004359e0     MazeDemoMain.obj
 0002:0000a9e4       $SG97890                   004359e4     MazeDemoMain.obj
 0002:0000aa00       $SG97485                   00435a00     MazeDemoMain.obj
 0002:0000aa6c       $SG97488                   00435a6c     MazeDemoMain.obj
 0002:0000aa94       $SG97891                   00435a94     MazeDemoMain.obj
 0002:0000aa98       $SG97486                   00435a98     MazeDemoMain.obj
 0002:0000ab6c       $SG97894                   00435b6c     MazeDemoMain.obj
 0002:0000ab98       $SG97487                   00435b98     MazeDemoMain.obj
 0002:0000abe8       $SG97716                   00435be8     MazeDemoMain.obj
 0002:0000ac54       $SG97895                   00435c54     MazeDemoMain.obj
 0002:0000ac90       $SG97892                   00435c90     MazeDemoMain.obj
 0002:0000ad00       $SG97893                   00435d00     MazeDemoMain.obj
 0002:0000afc0       $SG97369                   00435fc0     MazeDemoObject.obj
 0002:0000afd4       $SG97370                   00435fd4     MazeDemoObject.obj
 0002:0000afd8       $SG97371                   00435fd8     MazeDemoObject.obj
 0002:0000b044       $SG97374                   00436044     MazeDemoObject.obj
 0002:0000b06c       $SG97776                   0043606c     MazeDemoObject.obj
 0002:0000b088       $SG97372                   00436088     MazeDemoObject.obj
 0002:0000b15c       $SG97777                   0043615c     MazeDemoObject.obj
 0002:0000b160       $SG97373                   00436160     MazeDemoObject.obj
 0002:0000b1b0       $SG97602                   004361b0     MazeDemoObject.obj
 0002:0000b21c       $SG97780                   0043621c     MazeDemoObject.obj
 0002:0000b248       $SG97778                   00436248     MazeDemoObject.obj
 0002:0000b2b4       $SG97781                   004362b4     MazeDemoObject.obj
 0002:0000b2f0       $SG97779                   004362f0     MazeDemoObject.obj
 0002:0000b4d8       $SG97150                   004364d8     MazeDemoTileManager.obj
 0002:0000b4ec       $SG97151                   004364ec     MazeDemoTileManager.obj
 0002:0000b4f0       $SG97152                   004364f0     MazeDemoTileManager.obj
 0002:0000b55c       $SG97155                   0043655c     MazeDemoTileManager.obj
 0002:0000b584       $SG97557                   00436584     MazeDemoTileManager.obj
 0002:0000b5a0       $SG97153                   004365a0     MazeDemoTileManager.obj
 0002:0000b674       $SG97558                   00436674     MazeDemoTileManager.obj
 0002:0000b678       $SG97154                   00436678     MazeDemoTileManager.obj
 0002:0000b6c8       $SG97383                   004366c8     MazeDemoTileManager.obj
 0002:0000b734       $SG97561                   00436734     MazeDemoTileManager.obj
 0002:0000b760       $SG97559                   00436760     MazeDemoTileManager.obj
 0002:0000b7cc       $SG97562                   004367cc     MazeDemoTileManager.obj
 0002:0000b808       $SG97560                   00436808     MazeDemoTileManager.obj
 0002:0000b9cc       _GS_ExceptionPointers      004369cc     MSVCRTD:gs_report.obj
 0002:0000d610       __unwindtable$??0?$basic_string@DU?$char_traits@D@std@@V?$allocator@D@2@@std@@QAE@ABV01@@Z 00438610     DraggingDemo.obj
 0002:0000d620       __ehfuncinfo$??0?$basic_string@DU?$char_traits@D@std@@V?$allocator@D@2@@std@@QAE@ABV01@@Z 00438620     DraggingDemo.obj
 0002:0000d64c       __unwindtable$??0?$basic_string@DU?$char_traits@D@std@@V?$allocator@D@2@@std@@QAE@QBD@Z 0043864c     DraggingDemo.obj
 0002:0000d65c       __ehfuncinfo$??0?$basic_string@DU?$char_traits@D@std@@V?$allocator@D@2@@std@@QAE@QBD@Z 0043865c     DraggingDemo.obj
 0002:0000d688       __ehfuncinfo$??0?$basic_string@DU?$char_traits@D@std@@V?$allocator@D@2@@std@@QAE@$$QAV01@@Z 00438688     DraggingDemo.obj
 0002:0000d6b0       __ehfuncinfo$?_Take_contents@?$basic_string@DU?$char_traits@D@std@@V?$allocator@D@2@@std@@AAEXAAV12@@Z 004386b0     DraggingDemo.obj
 0002:0000d6d8       __ehfuncinfo$?_Tidy_deallocate@?$basic_string@DU?$char_traits@D@std@@V?$allocator@D@2@@std@@AAEXXZ 004386d8     DraggingDemo.obj
 0002:0000d700       __catchsym$??$?6U?$char_traits@D@std@@@std@@YAAAV?$basic_ostream@DU?$char_traits@D@std@@@0@AAV10@PBD@Z$3 00438700     DraggingDemo.obj
 0002:0000d710       __tryblocktable$??$?6U?$char_traits@D@std@@@std@@YAAAV?$basic_ostream@DU?$char_traits@D@std@@@0@AAV10@PBD@Z 00438710     DraggingDemo.obj
 0002:0000d724       __unwindtable$??$?6U?$char_traits@D@std@@@std@@YAAAV?$basic_ostream@DU?$char_traits@D@std@@@0@AAV10@PBD@Z 00438724     DraggingDemo.obj
 0002:0000d73c       __ehfuncinfo$??$?6U?$char_traits@D@std@@@std@@YAAAV?$basic_ostream@DU?$char_traits@D@std@@@0@AAV10@PBD@Z 0043873c     DraggingDemo.obj
 0002:0000d76c       __unwindtable$?_Orphan_range_locked@?$vector@PAVDisplayableObject@@V?$allocator@PAVDisplayableObject@@@std@@@std@@ABEXPAPAVDisplayableObject@@0@Z 0043876c     DraggingDemo.obj
 0002:0000d774       __ehfuncinfo$?_Orphan_range_locked@?$vector@PAVDisplayableObject@@V?$allocator@PAVDisplayableObject@@@std@@@std@@ABEXPAPAVDisplayableObject@@0@Z 00438774     DraggingDemo.obj
 0002:0000d79c       __unwindtable$??0RawImageData@@QAE@V?$basic_string@DU?$char_traits@D@std@@V?$allocator@D@2@@std@@@Z 0043879c     DraggingDemo.obj
 0002:0000d7a4       __ehfuncinfo$??0RawImageData@@QAE@V?$basic_string@DU?$char_traits@D@std@@V?$allocator@D@2@@std@@@Z 004387a4     DraggingDemo.obj
 0002:0000d7cc       __ehfuncinfo$??1RawImageData@@QAE@XZ 004387cc     DraggingDemo.obj
 0002:0000d7f4       __unwindtable$?loadImage@RawImageData@@QAE_NV?$basic_string@DU?$char_traits@D@std@@V?$allocator@D@2@@std@@HHHHH_N@Z 004387f4     DraggingDemo.obj
 0002:0000d7fc       __ehfuncinfo$?loadImage@RawImageData@@QAE_NV?$basic_string@DU?$char_traits@D@std@@V?$allocator@D@2@@std@@HHHHH_N@Z 004387fc     DraggingDemo.obj
 0002:0000d824       __unwindtable$?_Alloc_sentinel_and_proxy@?$_Tree@V?$_Tmap_traits@V?$basic_string@DU?$char_traits@D@std@@V?$allocator@D@2@@std@@V?$weak_ptr@VRawImageData@@@2@U?$less@V?$basic_string@DU?$char_traits@D@std@@V?$allocator@D@2@@std@@@2@V?$allocator@U?$pair@$$CBV?$basic_string@DU?$char_traits@D@std@@V?$allocator@D@2@@std@@V?$weak_ptr@VRawImageData@@@2@@std@@@2@$0A@@std@@@std@@IAEXXZ 00438824     DraggingDemo.obj
 0002:0000d82c       __ehfuncinfo$?_Alloc_sentinel_and_proxy@?$_Tree@V?$_Tmap_traits@V?$basic_string@DU?$char_traits@D@std@@V?$allocator@D@2@@std@@V?$weak_ptr@VRawImageData@@@2@U?$less@V?$basic_string@DU?$char_traits@D@std@@V?$allocator@D@2@@std@@@2@V?$allocator@U?$pair@$$CBV?$basic_string@DU?$char_traits@D@std@@V?$allocator@D@2@@std@@V?$weak_ptr@VRawImageData@@@2@@std@@@2@$0A@@std@@@std@@IAEXXZ 0043882c     DraggingDemo.obj
 0002:0000d854       __unwindtable$?_Alloc_sentinel_and_proxy@?$_Tree@V?$_Tmap_traits@V?$basic_string@DU?$char_traits@D@std@@V?$allocator@D@2@@std@@V?$shared_ptr@VRawImageData@@@2@U?$less@V?$basic_string@DU?$char_traits@D@std@@V?$allocator@D@2@@std@@@2@V?$allocator@U?$pair@$$CBV?$basic_string@DU?$char_traits@D@std@@V?$allocator@D@2@@std@@V?$shared_ptr@VRawImageData@@@2@@std@@@2@$0A@@std@@@std@@IAEXXZ 00438854     DraggingDemo.obj
 0002:0000d85c       __ehfuncinfo$?_Alloc_sentinel_and_proxy@?$_Tree@V?$_Tmap_traits@V?$basic_string@DU?$char_traits@D@std@@V?$allocator@D@2@@std@@V?$shared_ptr@VRawImageData@@@2@U?$less@V?$basic_string@DU?$char_traits@D@std@@V?$allocator@D@2@@std@@@2@V?$allocator@U?$pair@$$CBV?$basic_string@DU?$char_traits@D@std@@V?$allocator@D@2@@std@@V?$shared_ptr@VRawImageData@@@2@@std@@@2@$0A@@std@@@std@@IAEXXZ 0043885c     DraggingDemo.obj
 0002:0000d884       __unwindtable$?get@ImageManager@@SAPAV1@XZ 00438884     DraggingDemo.obj
 0002:0000d88c       __ehfuncinfo$?get@ImageManager@@SAPAV1@XZ 0043888c     DraggingDemo.obj
 0002:0000d8b4       __unwindtable$??0ImageManager@@QAE@XZ 004388b4     DraggingDemo.obj
 0002:0000d8bc       __ehfuncinfo$??0ImageManager@@QAE@XZ 004388bc     DraggingDemo.obj
 0002:0000d8e4       __ehfuncinfo$?getImagePtrbyURL@ImageManager@@QAE?AV?$shared_ptr@VRawImageData@@@std@@V?$basic_string@DU?$char_traits@D@std@@V?$allocator@D@2@@3@_N1@Z 004388e4     DraggingDemo.obj
 0002:0000d908       __unwindtable$?getImagePtrbyURL@ImageManager@@QAE?AV?$shared_ptr@VRawImageData@@@std@@V?$basic_string@DU?$char_traits@D@std@@V?$allocator@D@2@@3@_N1@Z 00438908     DraggingDemo.obj
 0002:0000d940       __unwindtable$?getImagebyURL@ImageManager@@QAE?AVSimpleImage@@V?$basic_string@DU?$char_traits@D@std@@V?$allocator@D@2@@std@@_N1@Z 00438940     DraggingDemo.obj
 0002:0000d948       __ehfuncinfo$?getImagebyURL@ImageManager@@QAE?AVSimpleImage@@V?$basic_string@DU?$char_traits@D@std@@V?$allocator@D@2@@std@@_N1@Z 00438948     DraggingDemo.obj
 0002:0000d970       __unwindtable$?loadAsNew@ImageManager@@QAE?AV?$shared_ptr@VRawImageData@@@std@@V?$basic_string@DU?$char_traits@D@std@@V?$allocator@D@2@@3@@Z 00438970     DraggingDemo.obj
 0002:0000d980       __ehfuncinfo$?loadAsNew@ImageManager@@QAE?AV?$shared_ptr@VRawImageData@@@std@@V?$basic_string@DU?$char_traits@D@std@@V?$allocator@D@2@@3@@Z 00438980     DraggingDemo.obj
 0002:0000d9ac       __unwindtable$??$?0VRawImageData@@$0A@@?$shared_ptr@VRawImageData@@@std@@QAE@PAVRawImageData@@@Z 004389ac     DraggingDemo.obj
 0002:0000d9bc       __ehfuncinfo$??$?0VRawImageData@@$0A@@?$shared_ptr@VRawImageData@@@std@@QAE@PAVRawImageData@@@Z 004389bc     DraggingDemo.obj
 0002:0000d9e8       __unwindtable$??0DragableObject@@QAE@PAVBaseEngine@@HH_N1@Z 004389e8     DraggingDemo.obj
 0002:0000d9f0       __ehfuncinfo$??0DragableObject@@QAE@PAVBaseEngine@@HH_N1@Z 004389f0     DraggingDemo.obj
 0002:0000da18       __unwindtable$??0DragableObject@@QAE@HHPAVBaseEngine@@HH_N1@Z 00438a18     DraggingDemo.obj
 0002:0000da20       __ehfuncinfo$??0DragableObject@@QAE@HHPAVBaseEngine@@HH_N1@Z 00438a20     DraggingDemo.obj
 0002:0000da48       __unwindtable$??0DragableImageObject@@QAE@HHPAVBaseEngine@@V?$basic_string@DU?$char_traits@D@std@@V?$allocator@D@2@@std@@_N2@Z 00438a48     DraggingDemo.obj
 0002:0000da68       __ehfuncinfo$??0DragableImageObject@@QAE@HHPAVBaseEngine@@V?$basic_string@DU?$char_traits@D@std@@V?$allocator@D@2@@std@@_N2@Z 00438a68     DraggingDemo.obj
 0002:0000da94       __ehfuncinfo$?virtInitialiseObjects@DraggingDemo@@UAEHXZ 00438a94     DraggingDemo.obj
 0002:0000dab8       __unwindtable$?virtInitialiseObjects@DraggingDemo@@UAEHXZ 00438ab8     DraggingDemo.obj
 0002:0000dae8       __unwindtable$??0ImageObject@@QAE@HHPAVBaseEngine@@V?$basic_string@DU?$char_traits@D@std@@V?$allocator@D@2@@std@@_N2@Z 00438ae8     DraggingDemo.obj
 0002:0000db08       __ehfuncinfo$??0ImageObject@@QAE@HHPAVBaseEngine@@V?$basic_string@DU?$char_traits@D@std@@V?$allocator@D@2@@std@@_N2@Z 00438b08     DraggingDemo.obj
 0002:0000db34       __ehfuncinfo$??$_Deallocate@$07$0A@@std@@YAXPAXI@Z 00438b34     DraggingDemo.obj
 0002:0000db5c       __ehfuncinfo$??1_Sentry_base@?$basic_ostream@DU?$char_traits@D@std@@@std@@QAE@XZ 00438b5c     DraggingDemo.obj
 0002:0000db84       __unwindtable$??0sentry@?$basic_ostream@DU?$char_traits@D@std@@@std@@QAE@AAV12@@Z 00438b84     DraggingDemo.obj
 0002:0000db8c       __ehfuncinfo$??0sentry@?$basic_ostream@DU?$char_traits@D@std@@@std@@QAE@AAV12@@Z 00438b8c     DraggingDemo.obj
 0002:0000dbb4       __ehfuncinfo$??1sentry@?$basic_ostream@DU?$char_traits@D@std@@@std@@QAE@XZ 00438bb4     DraggingDemo.obj
 0002:0000dbdc       __catchsym$??$_Insert_string@DU?$char_traits@D@std@@I@std@@YAAAV?$basic_ostream@DU?$char_traits@D@std@@@0@AAV10@QBDI@Z$3 00438bdc     DraggingDemo.obj
 0002:0000dbec       __tryblocktable$??$_Insert_string@DU?$char_traits@D@std@@I@std@@YAAAV?$basic_ostream@DU?$char_traits@D@std@@@0@AAV10@QBDI@Z 00438bec     DraggingDemo.obj
 0002:0000dc00       __unwindtable$??$_Insert_string@DU?$char_traits@D@std@@I@std@@YAAAV?$basic_ostream@DU?$char_traits@D@std@@@0@AAV10@QBDI@Z 00438c00     DraggingDemo.obj
 0002:0000dc18       __ehfuncinfo$??$_Insert_string@DU?$char_traits@D@std@@I@std@@YAAAV?$basic_ostream@DU?$char_traits@D@std@@@0@AAV10@QBDI@Z 00438c18     DraggingDemo.obj
 0002:0000dc48       __ehfuncinfo$??$_Deallocate_plain@V?$allocator@U_Container_proxy@std@@@std@@@std@@YAXAAV?$allocator@U_Container_proxy@std@@@0@QAU_Container_proxy@0@@Z 00438c48     DraggingDemo.obj
 0002:0000dc70       __ehfuncinfo$??$_Freenode0@V?$allocator@U?$_Tree_node@U?$pair@$$CBV?$basic_string@DU?$char_traits@D@std@@V?$allocator@D@2@@std@@V?$weak_ptr@VRawImageData@@@2@@std@@PAX@std@@@std@@@?$_Tree_node@U?$pair@$$CBV?$basic_string@DU?$char_traits@D@std@@V?$allocator@D@2@@std@@V?$weak_ptr@VRawImageData@@@2@@std@@PAX@std@@SAXAAV?$allocator@U?$_Tree_node@U?$pair@$$CBV?$basic_string@DU?$char_traits@D@std@@V?$allocator@D@2@@std@@V?$weak_ptr@VRawImageData@@@2@@std@@PAX@std@@@1@PAU01@@Z 00438c70     DraggingDemo.obj
 0002:0000dc98       __catchsym$??$_Resize_reallocate@U_Value_init_tag@std@@@?$vector@PAVDisplayableObject@@V?$allocator@PAVDisplayableObject@@@std@@@std@@AAEXIABU_Value_init_tag@1@@Z$2 00438c98     DraggingDemo.obj
 0002:0000dca8       __unwindtable$??$_Resize_reallocate@U_Value_init_tag@std@@@?$vector@PAVDisplayableObject@@V?$allocator@PAVDisplayableObject@@@std@@@std@@AAEXIABU_Value_init_tag@1@@Z 00438ca8     DraggingDemo.obj
 0002:0000dcb8       __tryblocktable$??$_Resize_reallocate@U_Value_init_tag@std@@@?$vector@PAVDisplayableObject@@V?$allocator@PAVDisplayableObject@@@std@@@std@@AAEXIABU_Value_init_tag@1@@Z 00438cb8     DraggingDemo.obj
 0002:0000dccc       __ehfuncinfo$??$_Resize_reallocate@U_Value_init_tag@std@@@?$vector@PAVDisplayableObject@@V?$allocator@PAVDisplayableObject@@@std@@@std@@AAEXIABU_Value_init_tag@1@@Z 00438ccc     DraggingDemo.obj
 0002:0000dcf8       __ehfuncinfo$??$_Freenode@V?$allocator@U?$_Tree_node@U?$pair@$$CBV?$basic_string@DU?$char_traits@D@std@@V?$allocator@D@2@@std@@V?$weak_ptr@VRawImageData@@@2@@std@@PAX@std@@@std@@@?$_Tree_node@U?$pair@$$CBV?$basic_string@DU?$char_traits@D@std@@V?$allocator@D@2@@std@@V?$weak_ptr@VRawImageData@@@2@@std@@PAX@std@@SAXAAV?$allocator@U?$_Tree_node@U?$pair@$$CBV?$basic_string@DU?$char_traits@D@std@@V?$allocator@D@2@@std@@V?$weak_ptr@VRawImageData@@@2@@std@@PAX@std@@@1@PAU01@@Z 00438cf8     DraggingDemo.obj
 0002:0000dd20       __unwindtable$??$_Uninitialized_move@PAPAVDisplayableObject@@V?$allocator@PAVDisplayableObject@@@std@@@std@@YAPAPAVDisplayableObject@@QAPAV1@0PAPAV1@AAV?$allocator@PAVDisplayableObject@@@0@@Z 00438d20     DraggingDemo.obj
 0002:0000dd28       __ehfuncinfo$??$_Uninitialized_move@PAPAVDisplayableObject@@V?$allocator@PAVDisplayableObject@@@std@@@std@@YAPAPAVDisplayableObject@@QAPAV1@0PAPAV1@AAV?$allocator@PAVDisplayableObject@@@0@@Z 00438d28     DraggingDemo.obj
 0002:0000dd50       __unwindtable$??$_Uninitialized_value_construct_n@V?$allocator@PAVDisplayableObject@@@std@@@std@@YAPAPAVDisplayableObject@@PAPAV1@IAAV?$allocator@PAVDisplayableObject@@@0@@Z 00438d50     DraggingDemo.obj
 0002:0000dd58       __ehfuncinfo$??$_Uninitialized_value_construct_n@V?$allocator@PAVDisplayableObject@@@std@@@std@@YAPAPAVDisplayableObject@@PAPAV1@IAAV?$allocator@PAVDisplayableObject@@@0@@Z 00438d58     DraggingDemo.obj
 0002:0000dd80       __ehfuncinfo$??1?$_Alloc_construct_ptr@V?$allocator@U?$_Tree_node@U?$pair@$$CBV?$basic_string@DU?$char_traits@D@std@@V?$allocator@D@2@@std@@V?$weak_ptr@VRawImageData@@@2@@std@@PAX@std@@@std@@@std@@QAE@XZ 00438d80     DraggingDemo.obj
 0002:0000dda8       __unwindtable$??0?$_Tree_temp_node_alloc@V?$allocator@U?$_Tree_node@U?$pair@$$CBV?$basic_string@DU?$char_traits@D@std@@V?$allocator@D@2@@std@@V?$weak_ptr@VRawImageData@@@2@@std@@PAX@std@@@std@@@std@@QAE@AAV?$allocator@U?$_Tree_node@U?$pair@$$CBV?$basic_string@DU?$char_traits@D@std@@V?$allocator@D@2@@std@@V?$weak_ptr@VRawImageData@@@2@@std@@PAX@std@@@1@@Z 00438da8     DraggingDemo.obj
 0002:0000ddb0       __ehfuncinfo$??0?$_Tree_temp_node_alloc@V?$allocator@U?$_Tree_node@U?$pair@$$CBV?$basic_string@DU?$char_traits@D@std@@V?$allocator@D@2@@std@@V?$weak_ptr@VRawImageData@@@2@@std@@PAX@std@@@std@@@std@@QAE@AAV?$allocator@U?$_Tree_node@U?$pair@$$CBV?$basic_string@DU?$char_traits@D@std@@V?$allocator@D@2@@std@@V?$weak_ptr@VRawImageData@@@2@@std@@PAX@std@@@1@@Z 00438db0     DraggingDemo.obj
 0002:0000ddd8       __ehfuncinfo$??1?$_Tree_temp_node@V?$allocator@U?$_Tree_node@U?$pair@$$CBV?$basic_string@DU?$char_traits@D@std@@V?$allocator@D@2@@std@@V?$weak_ptr@VRawImageData@@@2@@std@@PAX@std@@@std@@@std@@QAE@XZ 00438dd8     DraggingDemo.obj
 0002:0000de00       __unwindtable$??$?0U?$pair@V?$basic_string@DU?$char_traits@D@std@@V?$allocator@D@2@@std@@V?$weak_ptr@VRawImageData@@@2@@std@@@?$_Tree_temp_node@V?$allocator@U?$_Tree_node@U?$pair@$$CBV?$basic_string@DU?$char_traits@D@std@@V?$allocator@D@2@@std@@V?$weak_ptr@VRawImageData@@@2@@std@@PAX@std@@@std@@@std@@QAE@AAV?$allocator@U?$_Tree_node@U?$pair@$$CBV?$basic_string@DU?$char_traits@D@std@@V?$allocator@D@2@@std@@V?$weak_ptr@VRawImageData@@@2@@std@@PAX@std@@@1@PAU?$_Tree_node@U?$pair@$$CBV?$basic_string@DU?$char_traits@D@std@@V?$allocator@D@2@@std@@V?$weak_ptr@VRawImageData@@@2@@std@@PAX@1@$$QAU?$pair@V?$basic_string@DU?$char_traits@D@std@@V?$allocator@D@2@@std@@V?$weak_ptr@VRawImageData@@@2@@1@@Z 00438e00     DraggingDemo.obj
 0002:0000de08       __ehfuncinfo$??$?0U?$pair@V?$basic_string@DU?$char_traits@D@std@@V?$allocator@D@2@@std@@V?$weak_ptr@VRawImageData@@@2@@std@@@?$_Tree_temp_node@V?$allocator@U?$_Tree_node@U?$pair@$$CBV?$basic_string@DU?$char_traits@D@std@@V?$allocator@D@2@@std@@V?$weak_ptr@VRawImageData@@@2@@std@@PAX@std@@@std@@@std@@QAE@AAV?$allocator@U?$_Tree_node@U?$pair@$$CBV?$basic_string@DU?$char_traits@D@std@@V?$allocator@D@2@@std@@V?$weak_ptr@VRawImageData@@@2@@std@@PAX@std@@@1@PAU?$_Tree_node@U?$pair@$$CBV?$basic_string@DU?$char_traits@D@std@@V?$allocator@D@2@@std@@V?$weak_ptr@VRawImageData@@@2@@std@@PAX@1@$$QAU?$pair@V?$basic_string@DU?$char_traits@D@std@@V?$allocator@D@2@@std@@V?$weak_ptr@VRawImageData@@@2@@1@@Z 00438e08     DraggingDemo.obj
 0002:0000de30       __ehfuncinfo$??1?$_Alloc_construct_ptr@V?$allocator@U?$_Tree_node@U?$pair@$$CBV?$basic_string@DU?$char_traits@D@std@@V?$allocator@D@2@@std@@V?$shared_ptr@VRawImageData@@@2@@std@@PAX@std@@@std@@@std@@QAE@XZ 00438e30     DraggingDemo.obj
 0002:0000de58       __unwindtable$??0?$_Tree_temp_node_alloc@V?$allocator@U?$_Tree_node@U?$pair@$$CBV?$basic_string@DU?$char_traits@D@std@@V?$allocator@D@2@@std@@V?$shared_ptr@VRawImageData@@@2@@std@@PAX@std@@@std@@@std@@QAE@AAV?$allocator@U?$_Tree_node@U?$pair@$$CBV?$basic_string@DU?$char_traits@D@std@@V?$allocator@D@2@@std@@V?$shared_ptr@VRawImageData@@@2@@std@@PAX@std@@@1@@Z 00438e58     DraggingDemo.obj
 0002:0000de60       __ehfuncinfo$??0?$_Tree_temp_node_alloc@V?$allocator@U?$_Tree_node@U?$pair@$$CBV?$basic_string@DU?$char_traits@D@std@@V?$allocator@D@2@@std@@V?$shared_ptr@VRawImageData@@@2@@std@@PAX@std@@@std@@@std@@QAE@AAV?$allocator@U?$_Tree_node@U?$pair@$$CBV?$basic_string@DU?$char_traits@D@std@@V?$allocator@D@2@@std@@V?$shared_ptr@VRawImageData@@@2@@std@@PAX@std@@@1@@Z 00438e60     DraggingDemo.obj
 0002:0000de88       __ehfuncinfo$??1?$_Tree_temp_node@V?$allocator@U?$_Tree_node@U?$pair@$$CBV?$basic_string@DU?$char_traits@D@std@@V?$allocator@D@2@@std@@V?$shared_ptr@VRawImageData@@@2@@std@@PAX@std@@@std@@@std@@QAE@XZ 00438e88     DraggingDemo.obj
 0002:0000deb0       __unwindtable$??$?0U?$pair@V?$basic_string@DU?$char_traits@D@std@@V?$allocator@D@2@@std@@V?$shared_ptr@VRawImageData@@@2@@std@@@?$_Tree_temp_node@V?$allocator@U?$_Tree_node@U?$pair@$$CBV?$basic_string@DU?$char_traits@D@std@@V?$allocator@D@2@@std@@V?$shared_ptr@VRawImageData@@@2@@std@@PAX@std@@@std@@@std@@QAE@AAV?$allocator@U?$_Tree_node@U?$pair@$$CBV?$basic_string@DU?$char_traits@D@std@@V?$allocator@D@2@@std@@V?$shared_ptr@VRawImageData@@@2@@std@@PAX@std@@@1@PAU?$_Tree_node@U?$pair@$$CBV?$basic_string@DU?$char_traits@D@std@@V?$allocator@D@2@@std@@V?$shared_ptr@VRawImageData@@@2@@std@@PAX@1@$$QAU?$pair@V?$basic_string@DU?$char_traits@D@std@@V?$allocator@D@2@@std@@V?$shared_ptr@VRawImageData@@@2@@1@@Z 00438eb0     DraggingDemo.obj
 0002:0000deb8       __ehfuncinfo$??$?0U?$pair@V?$basic_string@DU?$char_traits@D@std@@V?$allocator@D@2@@std@@V?$shared_ptr@VRawImageData@@@2@@std@@@?$_Tree_temp_node@V?$allocator@U?$_Tree_node@U?$pair@$$CBV?$basic_string@DU?$char_traits@D@std@@V?$allocator@D@2@@std@@V?$shared_ptr@VRawImageData@@@2@@std@@PAX@std@@@std@@@std@@QAE@AAV?$allocator@U?$_Tree_node@U?$pair@$$CBV?$basic_string@DU?$char_traits@D@std@@V?$allocator@D@2@@std@@V?$shared_ptr@VRawImageData@@@2@@std@@PAX@std@@@1@PAU?$_Tree_node@U?$pair@$$CBV?$basic_string@DU?$char_traits@D@std@@V?$allocator@D@2@@std@@V?$shared_ptr@VRawImageData@@@2@@std@@PAX@1@$$QAU?$pair@V?$basic_string@DU?$char_traits@D@std@@V?$allocator@D@2@@std@@V?$shared_ptr@VRawImageData@@@2@@1@@Z 00438eb8     DraggingDemo.obj
 0002:0000df68       __unwindtable$??0FlashingDemo@@QAE@XZ 00438f68     FlashingDemo.obj
 0002:0000df80       __ehfuncinfo$??0FlashingDemo@@QAE@XZ 00438f80     FlashingDemo.obj
 0002:0000dfac       __ehfuncinfo$?virtInitialiseObjects@ImageMappingDemo@@UAEHXZ 00438fac     ImageMappingDemo.obj
 0002:0000dfd0       __unwindtable$?virtInitialiseObjects@ImageMappingDemo@@UAEHXZ 00438fd0     ImageMappingDemo.obj
 0002:0000e000       __unwindtable$??0MappableImageObject@@QAE@PAVImagePixelMapping@@HHPAVBaseEngine@@V?$basic_string@DU?$char_traits@D@std@@V?$allocator@D@2@@std@@_N3@Z 00439000     ImageMappingDemo.obj
 0002:0000e008       __ehfuncinfo$??0MappableImageObject@@QAE@PAVImagePixelMapping@@HHPAVBaseEngine@@V?$basic_string@DU?$char_traits@D@std@@V?$allocator@D@2@@std@@_N3@Z 00439008     ImageMappingDemo.obj
 0002:0000e030       __unwindtable$?setAllObjectsVisible@DisplayableObjectContainer@@QBEX_N@Z 00439030     Psyjl16Engine.obj
 0002:0000e038       __ehfuncinfo$?setAllObjectsVisible@DisplayableObjectContainer@@QBEX_N@Z 00439038     Psyjl16Engine.obj
 0002:0000e060       __unwindtable$?loadImage@ImageManager@@SA?AVSimpleImage@@V?$basic_string@DU?$char_traits@D@std@@V?$allocator@D@2@@std@@_N@Z 00439060     Psyjl16Engine.obj
 0002:0000e070       __ehfuncinfo$?loadImage@ImageManager@@SA?AVSimpleImage@@V?$basic_string@DU?$char_traits@D@std@@V?$allocator@D@2@@std@@_N@Z 00439070     Psyjl16Engine.obj
 0002:0000e09c       __unwindtable$??0MyObjectB@@QAE@PAVBaseEngine@@VSimpleImage@@@Z 0043909c     Psyjl16Engine.obj
 0002:0000e0ac       __ehfuncinfo$??0MyObjectB@@QAE@PAVBaseEngine@@VSimpleImage@@@Z 004390ac     Psyjl16Engine.obj
 0002:0000e0d8       __unwindtable$??0MyCharacter@@QAE@PAVBaseEngine@@VSimpleImage@@@Z 004390d8     Psyjl16Engine.obj
 0002:0000e0e0       __ehfuncinfo$??0MyCharacter@@QAE@PAVBaseEngine@@VSimpleImage@@@Z 004390e0     Psyjl16Engine.obj
 0002:0000e108       __unwindtable$??0MyEnemy@@QAE@PAVBaseEngine@@VSimpleImage@@PAVMyObjectB@@H@Z 00439108     Psyjl16Engine.obj
 0002:0000e118       __ehfuncinfo$??0MyEnemy@@QAE@PAVBaseEngine@@VSimpleImage@@PAVMyObjectB@@H@Z 00439118     Psyjl16Engine.obj
 0002:0000e144       __ehfuncinfo$?virtInitialiseObjects@Psyjl16Engine@@UAEHXZ 00439144     Psyjl16Engine.obj
 0002:0000e168       __unwindtable$?virtInitialiseObjects@Psyjl16Engine@@UAEHXZ 00439168     Psyjl16Engine.obj
 0002:0000e20c       __unwindtable$??0Psyjl16TileManager@@QAE@XZ 0043920c     mainfunction.obj
 0002:0000e214       __ehfuncinfo$??0Psyjl16TileManager@@QAE@XZ 00439214     mainfunction.obj
 0002:0000e23c       __unwindtable$??0Psyjl16Engine@@QAE@XZ 0043923c     mainfunction.obj
 0002:0000e244       __ehfuncinfo$??0Psyjl16Engine@@QAE@XZ 00439244     mainfunction.obj
 0002:0000e26c       __unwindtable$?doProgram@@YAHHQAPAD@Z 0043926c     mainfunction.obj
 0002:0000e274       __ehfuncinfo$?doProgram@@YAHHQAPAD@Z 00439274     mainfunction.obj
 0002:0000e29c       __ehfuncinfo$??$_Freenode0@V?$allocator@U?$_Tree_node@U?$pair@$$CBV?$basic_string@DU?$char_traits@D@std@@V?$allocator@D@2@@std@@V?$shared_ptr@VRawImageData@@@2@@std@@PAX@std@@@std@@@?$_Tree_node@U?$pair@$$CBV?$basic_string@DU?$char_traits@D@std@@V?$allocator@D@2@@std@@V?$shared_ptr@VRawImageData@@@2@@std@@PAX@std@@SAXAAV?$allocator@U?$_Tree_node@U?$pair@$$CBV?$basic_string@DU?$char_traits@D@std@@V?$allocator@D@2@@std@@V?$shared_ptr@VRawImageData@@@2@@std@@PAX@std@@@1@PAU01@@Z 0043929c     mainfunction.obj
 0002:0000e2c4       __ehfuncinfo$??$_Freenode@V?$allocator@U?$_Tree_node@U?$pair@$$CBV?$basic_string@DU?$char_traits@D@std@@V?$allocator@D@2@@std@@V?$shared_ptr@VRawImageData@@@2@@std@@PAX@std@@@std@@@?$_Tree_node@U?$pair@$$CBV?$basic_string@DU?$char_traits@D@std@@V?$allocator@D@2@@std@@V?$shared_ptr@VRawImageData@@@2@@std@@PAX@std@@SAXAAV?$allocator@U?$_Tree_node@U?$pair@$$CBV?$basic_string@DU?$char_traits@D@std@@V?$allocator@D@2@@std@@V?$shared_ptr@VRawImageData@@@2@@std@@PAX@std@@@1@PAU01@@Z 004392c4     mainfunction.obj
 0002:0000e2ec       __ehfuncinfo$??1DisplayableObjectContainer@@UAE@XZ 004392ec     BaseEngine.obj
 0002:0000e314       __ehfuncinfo$?_Tidy@?$vector@PAVDisplayableObject@@V?$allocator@PAVDisplayableObject@@@std@@@std@@AAEXXZ 00439314     BaseEngine.obj
 0002:0000e33c       __unwindtable$?updateAllObjects@BaseEngine@@UAEXH@Z 0043933c     BaseEngine.obj
 0002:0000e34c       __unwindtable$?drawAllObjects@BaseEngine@@UAEXXZ 0043934c     BaseEngine.obj
 0002:0000e35c       __unwindtable$??0BaseEngine@@QAE@XZ 0043935c     BaseEngine.obj
 0002:0000e374       __ehfuncinfo$?updateAllObjects@BaseEngine@@UAEXH@Z 00439374     BaseEngine.obj
 0002:0000e398       __ehfuncinfo$?drawAllObjects@BaseEngine@@UAEXXZ 00439398     BaseEngine.obj
 0002:0000e3bc       __ehfuncinfo$??0BaseEngine@@QAE@XZ 004393bc     BaseEngine.obj
 0002:0000e3f0       __unwindtable$??$for_each@V?$_Vector_iterator@V?$_Vector_val@U?$_Simple_types@PAVDisplayableObject@@@std@@@std@@@std@@V<lambda_57ee486f2f872818e4e1ef76732269ef>@@@std@@YA?AV<lambda_57ee486f2f872818e4e1ef76732269ef>@@V?$_Vector_iterator@V?$_Vector_val@U?$_Simple_types@PAVDisplayableObject@@@std@@@std@@@0@0V1@@Z 004393f0     BaseEngine.obj
 0002:0000e400       __ehfuncinfo$??$for_each@V?$_Vector_iterator@V?$_Vector_val@U?$_Simple_types@PAVDisplayableObject@@@std@@@std@@@std@@V<lambda_57ee486f2f872818e4e1ef76732269ef>@@@std@@YA?AV<lambda_57ee486f2f872818e4e1ef76732269ef>@@V?$_Vector_iterator@V?$_Vector_val@U?$_Simple_types@PAVDisplayableObject@@@std@@@std@@@0@0V1@@Z 00439400     BaseEngine.obj
 0002:0000e42c       __unwindtable$??$for_each@V?$_Vector_iterator@V?$_Vector_val@U?$_Simple_types@PAVDisplayableObject@@@std@@@std@@@std@@V<lambda_83eb8fcb36b73c451092a4848be40800>@@@std@@YA?AV<lambda_83eb8fcb36b73c451092a4848be40800>@@V?$_Vector_iterator@V?$_Vector_val@U?$_Simple_types@PAVDisplayableObject@@@std@@@std@@@0@0V1@@Z 0043942c     BaseEngine.obj
 0002:0000e43c       __ehfuncinfo$??$for_each@V?$_Vector_iterator@V?$_Vector_val@U?$_Simple_types@PAVDisplayableObject@@@std@@@std@@@std@@V<lambda_83eb8fcb36b73c451092a4848be40800>@@@std@@YA?AV<lambda_83eb8fcb36b73c451092a4848be40800>@@V?$_Vector_iterator@V?$_Vector_val@U?$_Simple_types@PAVDisplayableObject@@@std@@@std@@@0@0V1@@Z 0043943c     BaseEngine.obj
 0002:0000e468       __unwindtable$??$for_each@V?$_Vector_iterator@V?$_Vector_val@U?$_Simple_types@PAVDisplayableObject@@@std@@@std@@@std@@V<lambda_b68d6ab0d55fd1970844512a3930ef49>@@@std@@YA?AV<lambda_b68d6ab0d55fd1970844512a3930ef49>@@V?$_Vector_iterator@V?$_Vector_val@U?$_Simple_types@PAVDisplayableObject@@@std@@@std@@@0@0V1@@Z 00439468     BaseEngine.obj
 0002:0000e478       __ehfuncinfo$??$for_each@V?$_Vector_iterator@V?$_Vector_val@U?$_Simple_types@PAVDisplayableObject@@@std@@@std@@@std@@V<lambda_b68d6ab0d55fd1970844512a3930ef49>@@@std@@YA?AV<lambda_b68d6ab0d55fd1970844512a3930ef49>@@V?$_Vector_iterator@V?$_Vector_val@U?$_Simple_types@PAVDisplayableObject@@@std@@@std@@@0@0V1@@Z 00439478     BaseEngine.obj
 0002:0000e4a4       __unwindtable$??$for_each@V?$_Vector_iterator@V?$_Vector_val@U?$_Simple_types@PAVDisplayableObject@@@std@@@std@@@std@@V<lambda_9a6d32bae543137263d1d545e39fdd7d>@@@std@@YA?AV<lambda_9a6d32bae543137263d1d545e39fdd7d>@@V?$_Vector_iterator@V?$_Vector_val@U?$_Simple_types@PAVDisplayableObject@@@std@@@std@@@0@0V1@@Z 004394a4     BaseEngine.obj
 0002:0000e4b4       __ehfuncinfo$??$for_each@V?$_Vector_iterator@V?$_Vector_val@U?$_Simple_types@PAVDisplayableObject@@@std@@@std@@@std@@V<lambda_9a6d32bae543137263d1d545e39fdd7d>@@@std@@YA?AV<lambda_9a6d32bae543137263d1d545e39fdd7d>@@V?$_Vector_iterator@V?$_Vector_val@U?$_Simple_types@PAVDisplayableObject@@@std@@@std@@@0@0V1@@Z 004394b4     BaseEngine.obj
 0002:0000e4e0       __unwindtable$??$for_each@V?$_Vector_iterator@V?$_Vector_val@U?$_Simple_types@PAVDisplayableObject@@@std@@@std@@@std@@V<lambda_aaa801efaf28ef4796b623796d655d59>@@@std@@YA?AV<lambda_aaa801efaf28ef4796b623796d655d59>@@V?$_Vector_iterator@V?$_Vector_val@U?$_Simple_types@PAVDisplayableObject@@@std@@@std@@@0@0V1@@Z 004394e0     BaseEngine.obj
 0002:0000e4f0       __ehfuncinfo$??$for_each@V?$_Vector_iterator@V?$_Vector_val@U?$_Simple_types@PAVDisplayableObject@@@std@@@std@@@std@@V<lambda_aaa801efaf28ef4796b623796d655d59>@@@std@@YA?AV<lambda_aaa801efaf28ef4796b623796d655d59>@@V?$_Vector_iterator@V?$_Vector_val@U?$_Simple_types@PAVDisplayableObject@@@std@@@std@@@0@0V1@@Z 004394f0     BaseEngine.obj
 0002:0000e51c       __unwindtable$??$_Construct_n_copies_of_ty@U_Value_init_tag@std@@@?$vector@PAVDisplayableObject@@V?$allocator@PAVDisplayableObject@@@std@@@std@@AAEXIABU_Value_init_tag@1@@Z 0043951c     BaseEngine.obj
 0002:0000e52c       __ehfuncinfo$??$_Construct_n_copies_of_ty@U_Value_init_tag@std@@@?$vector@PAVDisplayableObject@@V?$allocator@PAVDisplayableObject@@@std@@@std@@AAEXIABU_Value_init_tag@1@@Z 0043952c     BaseEngine.obj
 0002:0000e558       __unwindtable$?getFont@FontManager@@QAEPAVFont@@PBDH@Z 00439558     FontManager.obj
 0002:0000e560       __ehfuncinfo$?getFont@FontManager@@QAEPAVFont@@PBDH@Z 00439560     FontManager.obj
 0002:0000e588       __unwindtable$?virtInitialiseObjects@SimpleDemo@@UAEHXZ 00439588     SimpleDemo.obj
 0002:0000e598       __ehfuncinfo$?virtInitialiseObjects@SimpleDemo@@UAEHXZ 00439598     SimpleDemo.obj
 0002:0000e5c4       __unwindtable$??0BouncingObject@@QAE@PAVBaseEngine@@HHNNNN@Z 004395c4     SimpleDemo.obj
 0002:0000e5cc       __ehfuncinfo$??0BouncingObject@@QAE@PAVBaseEngine@@HHNNNN@Z 004395cc     SimpleDemo.obj
 0002:0000e5f4       __catchsym$??$_Emplace_reallocate@ABQAVDisplayableObject@@@?$vector@PAVDisplayableObject@@V?$allocator@PAVDisplayableObject@@@std@@@std@@QAEPAPAVDisplayableObject@@QAPAV2@ABQAV2@@Z$2 004395f4     SimpleDemo.obj
 0002:0000e604       __unwindtable$??$_Emplace_reallocate@ABQAVDisplayableObject@@@?$vector@PAVDisplayableObject@@V?$allocator@PAVDisplayableObject@@@std@@@std@@QAEPAPAVDisplayableObject@@QAPAV2@ABQAV2@@Z 00439604     SimpleDemo.obj
 0002:0000e614       __tryblocktable$??$_Emplace_reallocate@ABQAVDisplayableObject@@@?$vector@PAVDisplayableObject@@V?$allocator@PAVDisplayableObject@@@std@@@std@@QAEPAPAVDisplayableObject@@QAPAV2@ABQAV2@@Z 00439614     SimpleDemo.obj
 0002:0000e628       __ehfuncinfo$??$_Emplace_reallocate@ABQAVDisplayableObject@@@?$vector@PAVDisplayableObject@@V?$allocator@PAVDisplayableObject@@@std@@@std@@QAEPAPAVDisplayableObject@@QAPAV2@ABQAV2@@Z 00439628     SimpleDemo.obj
 0002:0000e654       __unwindtable$??0BouncingBall1@@QAE@PAVBouncingBallMain@@HHHHPBDHHPAVTileManager@@@Z 00439654     BouncingBall.obj
 0002:0000e65c       __unwindtable$??0BouncingBall@@QAE@PAVBouncingBallMain@@HHHHPBDHH@Z 0043965c     BouncingBall.obj
 0002:0000e664       __ehfuncinfo$??0BouncingBall1@@QAE@PAVBouncingBallMain@@HHHHPBDHHPAVTileManager@@@Z 00439664     BouncingBall.obj
 0002:0000e688       __ehfuncinfo$??0BouncingBall@@QAE@PAVBouncingBallMain@@HHHHPBDHH@Z 00439688     BouncingBall.obj
 0002:0000e6b4       __unwindtable$?virtInitialiseObjects@BouncingBallMain@@UAEHXZ 004396b4     BouncingBallMain.obj
 0002:0000e6cc       __ehfuncinfo$?virtInitialiseObjects@BouncingBallMain@@UAEHXZ 004396cc     BouncingBallMain.obj
 0002:0000e6f8       __unwindtable$?virtInitialiseObjects@ZoomingDemo@@UAEHXZ 004396f8     ZoomingDemo.obj
 0002:0000e718       __ehfuncinfo$?virtInitialiseObjects@ZoomingDemo@@UAEHXZ 00439718     ZoomingDemo.obj
 0002:0000e744       __ehfuncinfo$??0SimpleFlashingDragableImageObject@@QAE@HHPAVBaseEngine@@V?$basic_string@DU?$char_traits@D@std@@V?$allocator@D@2@@std@@1_N2@Z 00439744     ZoomingDemo.obj
 0002:0000e768       __unwindtable$??0SimpleFlashingDragableImageObject@@QAE@HHPAVBaseEngine@@V?$basic_string@DU?$char_traits@D@std@@V?$allocator@D@2@@std@@1_N2@Z 00439768     ZoomingDemo.obj
 0002:0000e7ac       __unwindtable$??0MazeDemoMain@@QAE@XZ 004397ac     MazeDemoMain.obj
 0002:0000e7b4       __ehfuncinfo$?virtInitialiseObjects@MazeDemoMain@@UAEHXZ 004397b4     MazeDemoMain.obj
 0002:0000e7d8       __ehfuncinfo$??0MazeDemoMain@@QAE@XZ 004397d8     MazeDemoMain.obj
 0002:0000e7fc       __unwindtable$?virtInitialiseObjects@MazeDemoMain@@UAEHXZ 004397fc     MazeDemoMain.obj
 0002:0000e830       __unwindtable$??0MazeDemoObject@@QAE@PAVMazeDemoMain@@HH@Z 00439830     MazeDemoObject.obj
 0002:0000e838       __ehfuncinfo$??0MazeDemoObject@@QAE@PAVMazeDemoMain@@HH@Z 00439838     MazeDemoObject.obj
 0002:0000e860       __sehtable$?__scrt_common_main_seh@@YAHXZ 00439860     MSVCRTD:exe_main.obj
 0002:0000e880       __sehtable$___scrt_is_nonwritable_in_current_image 00439880     MSVCRTD:utility.obj
 0002:0000e8c0       __unwindtable$??0MyTextBar@@QAE@PAVBaseEngine@@@Z 004398c0     Psyjl16Engine.obj
 0002:0000e8c8       __ehfuncinfo$??0MyTextBar@@QAE@PAVBaseEngine@@@Z 004398c8     Psyjl16Engine.obj
 0002:0000e8ec       __ehfuncinfo$?pop_back@?$basic_string@DU?$char_traits@D@std@@V?$allocator@D@2@@std@@QAEXXZ 004398ec     MyTextBar.obj
 0003:00000000       ?firstClick@?1??handleEvent@BaseEngine@@QAE_NPATSDL_Event@@@Z@4_NA 0043a000     BaseEngine.obj
 0003:00000004       ?nullMapping@@3VCroppedImagePixelMapping@@A 0043a004     SimpleImage.obj
 0003:000008b0       ?is_initialized_as_dll@@3_NA 0043a8b0     MSVCRTD:utility.obj
 0003:000008b1       ?module_local_atexit_table_initialized@@3_NA 0043a8b1     MSVCRTD:utility.obj
 0003:000008b4       ?module_local_atexit_table@@3U_onexit_table_t@@A 0043a8b4     MSVCRTD:utility.obj
 0003:000008c0       ?module_local_at_quick_exit_table@@3U_onexit_table_t@@A 0043a8c0     MSVCRTD:utility.obj
 0003:00000900       _GS_ExceptionRecord        0043a900     MSVCRTD:gs_report.obj
 0003:00000950       _GS_ContextRecord          0043a950     MSVCRTD:gs_report.obj
 0004:00000918       .idata$6                   0043b918     SDL2:SDL2.dll
 0004:0000092e       .idata$6                   0043b92e     SDL2_image:SDL2_image.dll
 0004:0000098e       .idata$6                   0043b98e     SDL2_ttf:SDL2_ttf.dll
 0004:00000e22       .idata$6                   0043be22     msvcprtd:MSVCP140D.dll
 0004:00000f30       .idata$6                   0043bf30     vcruntimed:VCRUNTIME140D.dll
 0004:00001244       .idata$6                   0043c244     ucrtd:ucrtbased.dll
 0004:000013c6       .idata$6                   0043c3c6     kernel32:KERNEL32.dll
 0006:00000170       $R000000                   0043e170     * linker generated manifest res *
